ARM GAS  C:\Users\Giorgio\AppData\Local\Temp\cc3JIPZT.s 			page 1


   1              		.cpu cortex-m7
   2              		.eabi_attribute 28, 1
   3              		.eabi_attribute 20, 1
   4              		.eabi_attribute 21, 1
   5              		.eabi_attribute 23, 3
   6              		.eabi_attribute 24, 1
   7              		.eabi_attribute 25, 1
   8              		.eabi_attribute 26, 1
   9              		.eabi_attribute 30, 1
  10              		.eabi_attribute 34, 1
  11              		.eabi_attribute 18, 4
  12              		.file	"BMX160.c"
  13              		.text
  14              	.Ltext0:
  15              		.cfi_sections	.debug_frame
  16              		.section	.text.BMX_calibration,"ax",%progbits
  17              		.align	1
  18              		.global	BMX_calibration
  19              		.arch armv7e-m
  20              		.syntax unified
  21              		.thumb
  22              		.thumb_func
  23              		.fpu fpv5-d16
  25              	BMX_calibration:
  26              	.LVL0:
  27              	.LFB851:
  28              		.file 1 "Src/BMX160.c"
   1:Src/BMX160.c  **** /* Code used to define functions useful for 
   2:Src/BMX160.c  **** 
   3:Src/BMX160.c  **** */
   4:Src/BMX160.c  **** 
   5:Src/BMX160.c  **** #include "BMX160.h"
   6:Src/BMX160.c  **** 
   7:Src/BMX160.c  **** void BMX_calibration(BMX_IMU_typedef *BMX_str){
  29              		.loc 1 7 47 view -0
  30              		.cfi_startproc
  31              		@ args = 0, pretend = 0, frame = 64
  32              		@ frame_needed = 0, uses_anonymous_args = 0
  33              		.loc 1 7 47 is_stmt 0 view .LVU1
  34 0000 30B5     		push	{r4, r5, lr}
  35              	.LCFI0:
  36              		.cfi_def_cfa_offset 12
  37              		.cfi_offset 4, -12
  38              		.cfi_offset 5, -8
  39              		.cfi_offset 14, -4
  40 0002 93B0     		sub	sp, sp, #76
  41              	.LCFI1:
  42              		.cfi_def_cfa_offset 88
  43 0004 0446     		mov	r4, r0
   8:Src/BMX160.c  ****     
   9:Src/BMX160.c  ****     uint8_t tx_buff[4]; //buffer for transmit bytes
  44              		.loc 1 9 5 is_stmt 1 view .LVU2
  10:Src/BMX160.c  ****     uint8_t data_buffer[48]; //buffer for received data
  45              		.loc 1 10 5 view .LVU3
  11:Src/BMX160.c  ****     int16_t raw_data[6]; 
  46              		.loc 1 11 5 view .LVU4
  12:Src/BMX160.c  ****     int i_count;
ARM GAS  C:\Users\Giorgio\AppData\Local\Temp\cc3JIPZT.s 			page 2


  47              		.loc 1 12 5 view .LVU5
  13:Src/BMX160.c  ****     
  14:Src/BMX160.c  ****     //polling for data giving the first reg and ack for receiving that and the following 11 reg
  15:Src/BMX160.c  ****     tx_buff[0] = GYRO_XLSB_REG;
  48              		.loc 1 15 5 view .LVU6
  49              		.loc 1 15 16 is_stmt 0 view .LVU7
  50 0006 0C23     		movs	r3, #12
  51 0008 8DF84430 		strb	r3, [sp, #68]
  16:Src/BMX160.c  ****     
  17:Src/BMX160.c  ****     // calibration is performed with 5 thousand subsequent readings 
  18:Src/BMX160.c  ****     for(int i_gyro_cal=0; i_gyro_cal<2000; i_gyro_cal++){
  52              		.loc 1 18 5 is_stmt 1 view .LVU8
  53              	.LBB13:
  54              		.loc 1 18 9 view .LVU9
  55              	.LVL1:
  56              		.loc 1 18 13 is_stmt 0 view .LVU10
  57 000c 0025     		movs	r5, #0
  58              		.loc 1 18 5 view .LVU11
  59 000e 66E0     		b	.L2
  60              	.LVL2:
  61              	.L5:
  19:Src/BMX160.c  **** 
  20:Src/BMX160.c  ****         //zero te timer 1 counter
  21:Src/BMX160.c  ****         LL_TIM_SetCounter(TIM1,0);
  22:Src/BMX160.c  **** 
  23:Src/BMX160.c  ****         //polling for data giving the first reg and ack for receiving that and the following 11 reg
  24:Src/BMX160.c  ****         HAL_I2C_Master_Transmit(BMX_str->i2c_handler_ptr, BMX160Address, tx_buff, 1, HAL_MAX_DELAY)
  25:Src/BMX160.c  ****         //wait 5 us
  26:Src/BMX160.c  ****         while(LL_TIM_GetCounter(TIM1)<25){}
  27:Src/BMX160.c  ****         HAL_I2C_Master_Receive(BMX_str->i2c_handler_ptr, BMX160Address, data_buffer, 12, HAL_MAX_DE
  28:Src/BMX160.c  **** 
  29:Src/BMX160.c  ****         //data unpack
  30:Src/BMX160.c  ****         for(i_count=0; i_count<12; i_count++){
  31:Src/BMX160.c  ****             *((uint8_t*)raw_data+i_count) = *(data_buffer+i_count);
  62              		.loc 1 31 13 is_stmt 1 discriminator 3 view .LVU12
  63              		.loc 1 31 45 is_stmt 0 discriminator 3 view .LVU13
  64 0010 05AA     		add	r2, sp, #20
  65 0012 D15C     		ldrb	r1, [r2, r3]	@ zero_extendqisi2
  66              		.loc 1 31 43 discriminator 3 view .LVU14
  67 0014 02AA     		add	r2, sp, #8
  68 0016 D154     		strb	r1, [r2, r3]
  30:Src/BMX160.c  ****             *((uint8_t*)raw_data+i_count) = *(data_buffer+i_count);
  69              		.loc 1 30 36 is_stmt 1 discriminator 3 view .LVU15
  30:Src/BMX160.c  ****             *((uint8_t*)raw_data+i_count) = *(data_buffer+i_count);
  70              		.loc 1 30 43 is_stmt 0 discriminator 3 view .LVU16
  71 0018 0133     		adds	r3, r3, #1
  72              	.LVL3:
  73              	.L4:
  30:Src/BMX160.c  ****             *((uint8_t*)raw_data+i_count) = *(data_buffer+i_count);
  74              		.loc 1 30 24 is_stmt 1 discriminator 1 view .LVU17
  30:Src/BMX160.c  ****             *((uint8_t*)raw_data+i_count) = *(data_buffer+i_count);
  75              		.loc 1 30 9 is_stmt 0 discriminator 1 view .LVU18
  76 001a 0B2B     		cmp	r3, #11
  77 001c F8DD     		ble	.L5
  32:Src/BMX160.c  ****         }
  33:Src/BMX160.c  **** 
  34:Src/BMX160.c  ****         //gyro data definition
ARM GAS  C:\Users\Giorgio\AppData\Local\Temp\cc3JIPZT.s 			page 3


  35:Src/BMX160.c  ****         for(i_count=0; i_count<3; i_count++){
  78              		.loc 1 35 20 view .LVU19
  79 001e 0023     		movs	r3, #0
  80              	.LVL4:
  81              		.loc 1 35 20 view .LVU20
  82 0020 13E0     		b	.L6
  83              	.LVL5:
  84              	.L7:
  36:Src/BMX160.c  ****             *(BMX_str->Omega+i_count) = (((float)raw_data[i_count]) * BMX_str->gyro_FS_conv); //- B
  85              		.loc 1 36 13 is_stmt 1 discriminator 3 view .LVU21
  86              		.loc 1 36 58 is_stmt 0 discriminator 3 view .LVU22
  87 0022 12AA     		add	r2, sp, #72
  88 0024 02EB4302 		add	r2, r2, r3, lsl #1
  89 0028 32F9402C 		ldrsh	r2, [r2, #-64]
  90 002c 07EE902A 		vmov	s15, r2	@ int
  91              		.loc 1 36 43 discriminator 3 view .LVU23
  92 0030 F8EEE77A 		vcvt.f32.s32	s15, s15
  93              		.loc 1 36 78 discriminator 3 view .LVU24
  94 0034 94ED0E7A 		vldr.32	s14, [r4, #56]
  95              		.loc 1 36 15 discriminator 3 view .LVU25
  96 0038 04F10802 		add	r2, r4, #8
  97              		.loc 1 36 29 discriminator 3 view .LVU26
  98 003c 02EB8302 		add	r2, r2, r3, lsl #2
  99              		.loc 1 36 69 discriminator 3 view .LVU27
 100 0040 67EE877A 		vmul.f32	s15, s15, s14
 101              		.loc 1 36 39 discriminator 3 view .LVU28
 102 0044 C2ED007A 		vstr.32	s15, [r2]
  35:Src/BMX160.c  ****             *(BMX_str->Omega+i_count) = (((float)raw_data[i_count]) * BMX_str->gyro_FS_conv); //- B
 103              		.loc 1 35 35 is_stmt 1 discriminator 3 view .LVU29
  35:Src/BMX160.c  ****             *(BMX_str->Omega+i_count) = (((float)raw_data[i_count]) * BMX_str->gyro_FS_conv); //- B
 104              		.loc 1 35 42 is_stmt 0 discriminator 3 view .LVU30
 105 0048 0133     		adds	r3, r3, #1
 106              	.LVL6:
 107              	.L6:
  35:Src/BMX160.c  ****             *(BMX_str->Omega+i_count) = (((float)raw_data[i_count]) * BMX_str->gyro_FS_conv); //- B
 108              		.loc 1 35 24 is_stmt 1 discriminator 1 view .LVU31
  35:Src/BMX160.c  ****             *(BMX_str->Omega+i_count) = (((float)raw_data[i_count]) * BMX_str->gyro_FS_conv); //- B
 109              		.loc 1 35 9 is_stmt 0 discriminator 1 view .LVU32
 110 004a 022B     		cmp	r3, #2
 111 004c E9DD     		ble	.L7
  37:Src/BMX160.c  ****         }
  38:Src/BMX160.c  **** 
  39:Src/BMX160.c  ****         //acc data definition
  40:Src/BMX160.c  ****         for(i_count=0; i_count<3; i_count++){
 112              		.loc 1 40 20 view .LVU33
 113 004e 0023     		movs	r3, #0
 114              	.LVL7:
 115              		.loc 1 40 20 view .LVU34
 116 0050 14E0     		b	.L8
 117              	.LVL8:
 118              	.L9:
  41:Src/BMX160.c  ****             *(BMX_str->Acceleration+i_count) = (((float)raw_data[i_count+3]) * BMX_str->acc_FS_conv
 119              		.loc 1 41 13 is_stmt 1 discriminator 3 view .LVU35
 120              		.loc 1 41 73 is_stmt 0 discriminator 3 view .LVU36
 121 0052 DA1C     		adds	r2, r3, #3
 122              		.loc 1 41 65 discriminator 3 view .LVU37
 123 0054 12A9     		add	r1, sp, #72
ARM GAS  C:\Users\Giorgio\AppData\Local\Temp\cc3JIPZT.s 			page 4


 124 0056 01EB4202 		add	r2, r1, r2, lsl #1
 125 005a 32F9402C 		ldrsh	r2, [r2, #-64]
 126 005e 07EE902A 		vmov	s15, r2	@ int
 127              		.loc 1 41 50 discriminator 3 view .LVU38
 128 0062 F8EEE77A 		vcvt.f32.s32	s15, s15
 129              		.loc 1 41 87 discriminator 3 view .LVU39
 130 0066 94ED0F7A 		vldr.32	s14, [r4, #60]
 131              		.loc 1 41 15 discriminator 3 view .LVU40
 132 006a 04F11402 		add	r2, r4, #20
 133              		.loc 1 41 36 discriminator 3 view .LVU41
 134 006e 02EB8302 		add	r2, r2, r3, lsl #2
 135              		.loc 1 41 78 discriminator 3 view .LVU42
 136 0072 67EE877A 		vmul.f32	s15, s15, s14
 137              		.loc 1 41 46 discriminator 3 view .LVU43
 138 0076 C2ED007A 		vstr.32	s15, [r2]
  40:Src/BMX160.c  ****             *(BMX_str->Acceleration+i_count) = (((float)raw_data[i_count+3]) * BMX_str->acc_FS_conv
 139              		.loc 1 40 35 is_stmt 1 discriminator 3 view .LVU44
  40:Src/BMX160.c  ****             *(BMX_str->Acceleration+i_count) = (((float)raw_data[i_count+3]) * BMX_str->acc_FS_conv
 140              		.loc 1 40 42 is_stmt 0 discriminator 3 view .LVU45
 141 007a 0133     		adds	r3, r3, #1
 142              	.LVL9:
 143              	.L8:
  40:Src/BMX160.c  ****             *(BMX_str->Acceleration+i_count) = (((float)raw_data[i_count+3]) * BMX_str->acc_FS_conv
 144              		.loc 1 40 24 is_stmt 1 discriminator 1 view .LVU46
  40:Src/BMX160.c  ****             *(BMX_str->Acceleration+i_count) = (((float)raw_data[i_count+3]) * BMX_str->acc_FS_conv
 145              		.loc 1 40 9 is_stmt 0 discriminator 1 view .LVU47
 146 007c 022B     		cmp	r3, #2
 147 007e E8DD     		ble	.L9
  42:Src/BMX160.c  ****         }
  43:Src/BMX160.c  **** 
  44:Src/BMX160.c  ****         //update of bias via a simple sum with the previous value
  45:Src/BMX160.c  **** 
  46:Src/BMX160.c  ****         //gyro bias update definition
  47:Src/BMX160.c  ****         for(i_count=0; i_count<3; i_count++){
 148              		.loc 1 47 20 view .LVU48
 149 0080 0023     		movs	r3, #0
 150              	.LVL10:
 151              		.loc 1 47 20 view .LVU49
 152 0082 0FE0     		b	.L10
 153              	.LVL11:
 154              	.L11:
  48:Src/BMX160.c  ****             BMX_str->gyro_st_bias[i_count] += BMX_str->Omega[i_count];
 155              		.loc 1 48 13 is_stmt 1 discriminator 3 view .LVU50
 156              		.loc 1 48 61 is_stmt 0 discriminator 3 view .LVU51
 157 0084 9A1C     		adds	r2, r3, #2
 158 0086 04EB8202 		add	r2, r4, r2, lsl #2
 159 008a 92ED007A 		vldr.32	s14, [r2]
 160              		.loc 1 48 44 discriminator 3 view .LVU52
 161 008e 03F11002 		add	r2, r3, #16
 162 0092 04EB8202 		add	r2, r4, r2, lsl #2
 163 0096 D2ED007A 		vldr.32	s15, [r2]
 164 009a 77EE877A 		vadd.f32	s15, s15, s14
 165 009e C2ED007A 		vstr.32	s15, [r2]
  47:Src/BMX160.c  ****             BMX_str->gyro_st_bias[i_count] += BMX_str->Omega[i_count];
 166              		.loc 1 47 35 is_stmt 1 discriminator 3 view .LVU53
  47:Src/BMX160.c  ****             BMX_str->gyro_st_bias[i_count] += BMX_str->Omega[i_count];
 167              		.loc 1 47 42 is_stmt 0 discriminator 3 view .LVU54
ARM GAS  C:\Users\Giorgio\AppData\Local\Temp\cc3JIPZT.s 			page 5


 168 00a2 0133     		adds	r3, r3, #1
 169              	.LVL12:
 170              	.L10:
  47:Src/BMX160.c  ****             BMX_str->gyro_st_bias[i_count] += BMX_str->Omega[i_count];
 171              		.loc 1 47 24 is_stmt 1 discriminator 1 view .LVU55
  47:Src/BMX160.c  ****             BMX_str->gyro_st_bias[i_count] += BMX_str->Omega[i_count];
 172              		.loc 1 47 9 is_stmt 0 discriminator 1 view .LVU56
 173 00a4 022B     		cmp	r3, #2
 174 00a6 EDDD     		ble	.L11
  49:Src/BMX160.c  ****         }
  50:Src/BMX160.c  **** 
  51:Src/BMX160.c  ****         //acc bias update definition
  52:Src/BMX160.c  ****         for(i_count=0; i_count<3; i_count++){
 175              		.loc 1 52 20 view .LVU57
 176 00a8 0023     		movs	r3, #0
 177              	.LVL13:
 178              		.loc 1 52 20 view .LVU58
 179 00aa 0FE0     		b	.L12
 180              	.LVL14:
 181              	.L13:
  53:Src/BMX160.c  ****             BMX_str->acc_st_bias[i_count] += BMX_str->Acceleration[i_count];
 182              		.loc 1 53 13 is_stmt 1 discriminator 3 view .LVU59
 183              		.loc 1 53 67 is_stmt 0 discriminator 3 view .LVU60
 184 00ac 1A1D     		adds	r2, r3, #4
 185 00ae 04EB8202 		add	r2, r4, r2, lsl #2
 186 00b2 92ED017A 		vldr.32	s14, [r2, #4]
 187              		.loc 1 53 43 discriminator 3 view .LVU61
 188 00b6 03F11202 		add	r2, r3, #18
 189 00ba 04EB8202 		add	r2, r4, r2, lsl #2
 190 00be D2ED017A 		vldr.32	s15, [r2, #4]
 191 00c2 77EE877A 		vadd.f32	s15, s15, s14
 192 00c6 C2ED017A 		vstr.32	s15, [r2, #4]
  52:Src/BMX160.c  ****             BMX_str->acc_st_bias[i_count] += BMX_str->Acceleration[i_count];
 193              		.loc 1 52 35 is_stmt 1 discriminator 3 view .LVU62
  52:Src/BMX160.c  ****             BMX_str->acc_st_bias[i_count] += BMX_str->Acceleration[i_count];
 194              		.loc 1 52 42 is_stmt 0 discriminator 3 view .LVU63
 195 00ca 0133     		adds	r3, r3, #1
 196              	.LVL15:
 197              	.L12:
  52:Src/BMX160.c  ****             BMX_str->acc_st_bias[i_count] += BMX_str->Acceleration[i_count];
 198              		.loc 1 52 24 is_stmt 1 discriminator 1 view .LVU64
  52:Src/BMX160.c  ****             BMX_str->acc_st_bias[i_count] += BMX_str->Acceleration[i_count];
 199              		.loc 1 52 9 is_stmt 0 discriminator 1 view .LVU65
 200 00cc 022B     		cmp	r3, #2
 201 00ce EDDD     		ble	.L13
 202              	.LVL16:
 203              	.L14:
  54:Src/BMX160.c  ****         }
  55:Src/BMX160.c  **** 
  56:Src/BMX160.c  ****         while(LL_TIM_GetCounter(TIM1)<10000){}
 204              		.loc 1 56 46 is_stmt 1 discriminator 1 view .LVU66
 205              		.loc 1 56 14 discriminator 1 view .LVU67
 206              	.LBB14:
 207              	.LBI14:
 208              		.file 2 "Drivers/STM32F7xx_HAL_Driver/Inc/stm32f7xx_ll_tim.h"
   1:Drivers/STM32F7xx_HAL_Driver/Inc/stm32f7xx_ll_tim.h **** /**
   2:Drivers/STM32F7xx_HAL_Driver/Inc/stm32f7xx_ll_tim.h ****   ******************************************************************************
ARM GAS  C:\Users\Giorgio\AppData\Local\Temp\cc3JIPZT.s 			page 6


   3:Drivers/STM32F7xx_HAL_Driver/Inc/stm32f7xx_ll_tim.h ****   * @file    stm32f7xx_ll_tim.h
   4:Drivers/STM32F7xx_HAL_Driver/Inc/stm32f7xx_ll_tim.h ****   * @author  MCD Application Team
   5:Drivers/STM32F7xx_HAL_Driver/Inc/stm32f7xx_ll_tim.h ****   * @brief   Header file of TIM LL module.
   6:Drivers/STM32F7xx_HAL_Driver/Inc/stm32f7xx_ll_tim.h ****   ******************************************************************************
   7:Drivers/STM32F7xx_HAL_Driver/Inc/stm32f7xx_ll_tim.h ****   * @attention
   8:Drivers/STM32F7xx_HAL_Driver/Inc/stm32f7xx_ll_tim.h ****   *
   9:Drivers/STM32F7xx_HAL_Driver/Inc/stm32f7xx_ll_tim.h ****   * <h2><center>&copy; Copyright (c) 2017 STMicroelectronics.
  10:Drivers/STM32F7xx_HAL_Driver/Inc/stm32f7xx_ll_tim.h ****   * All rights reserved.</center></h2>
  11:Drivers/STM32F7xx_HAL_Driver/Inc/stm32f7xx_ll_tim.h ****   *
  12:Drivers/STM32F7xx_HAL_Driver/Inc/stm32f7xx_ll_tim.h ****   * This software component is licensed by ST under BSD 3-Clause license,
  13:Drivers/STM32F7xx_HAL_Driver/Inc/stm32f7xx_ll_tim.h ****   * the "License"; You may not use this file except in compliance with the
  14:Drivers/STM32F7xx_HAL_Driver/Inc/stm32f7xx_ll_tim.h ****   * License. You may obtain a copy of the License at:
  15:Drivers/STM32F7xx_HAL_Driver/Inc/stm32f7xx_ll_tim.h ****   *                        opensource.org/licenses/BSD-3-Clause
  16:Drivers/STM32F7xx_HAL_Driver/Inc/stm32f7xx_ll_tim.h ****   *
  17:Drivers/STM32F7xx_HAL_Driver/Inc/stm32f7xx_ll_tim.h ****   ******************************************************************************
  18:Drivers/STM32F7xx_HAL_Driver/Inc/stm32f7xx_ll_tim.h ****   */
  19:Drivers/STM32F7xx_HAL_Driver/Inc/stm32f7xx_ll_tim.h **** 
  20:Drivers/STM32F7xx_HAL_Driver/Inc/stm32f7xx_ll_tim.h **** /* Define to prevent recursive inclusion -------------------------------------*/
  21:Drivers/STM32F7xx_HAL_Driver/Inc/stm32f7xx_ll_tim.h **** #ifndef __STM32F7xx_LL_TIM_H
  22:Drivers/STM32F7xx_HAL_Driver/Inc/stm32f7xx_ll_tim.h **** #define __STM32F7xx_LL_TIM_H
  23:Drivers/STM32F7xx_HAL_Driver/Inc/stm32f7xx_ll_tim.h **** 
  24:Drivers/STM32F7xx_HAL_Driver/Inc/stm32f7xx_ll_tim.h **** #ifdef __cplusplus
  25:Drivers/STM32F7xx_HAL_Driver/Inc/stm32f7xx_ll_tim.h **** extern "C" {
  26:Drivers/STM32F7xx_HAL_Driver/Inc/stm32f7xx_ll_tim.h **** #endif
  27:Drivers/STM32F7xx_HAL_Driver/Inc/stm32f7xx_ll_tim.h **** 
  28:Drivers/STM32F7xx_HAL_Driver/Inc/stm32f7xx_ll_tim.h **** /* Includes ------------------------------------------------------------------*/
  29:Drivers/STM32F7xx_HAL_Driver/Inc/stm32f7xx_ll_tim.h **** #include "stm32f7xx.h"
  30:Drivers/STM32F7xx_HAL_Driver/Inc/stm32f7xx_ll_tim.h **** 
  31:Drivers/STM32F7xx_HAL_Driver/Inc/stm32f7xx_ll_tim.h **** /** @addtogroup STM32F7xx_LL_Driver
  32:Drivers/STM32F7xx_HAL_Driver/Inc/stm32f7xx_ll_tim.h ****   * @{
  33:Drivers/STM32F7xx_HAL_Driver/Inc/stm32f7xx_ll_tim.h ****   */
  34:Drivers/STM32F7xx_HAL_Driver/Inc/stm32f7xx_ll_tim.h **** 
  35:Drivers/STM32F7xx_HAL_Driver/Inc/stm32f7xx_ll_tim.h **** #if defined (TIM1) || defined (TIM8) || defined (TIM2) || defined (TIM3) ||  defined (TIM4) || defi
  36:Drivers/STM32F7xx_HAL_Driver/Inc/stm32f7xx_ll_tim.h **** 
  37:Drivers/STM32F7xx_HAL_Driver/Inc/stm32f7xx_ll_tim.h **** /** @defgroup TIM_LL TIM
  38:Drivers/STM32F7xx_HAL_Driver/Inc/stm32f7xx_ll_tim.h ****   * @{
  39:Drivers/STM32F7xx_HAL_Driver/Inc/stm32f7xx_ll_tim.h ****   */
  40:Drivers/STM32F7xx_HAL_Driver/Inc/stm32f7xx_ll_tim.h **** 
  41:Drivers/STM32F7xx_HAL_Driver/Inc/stm32f7xx_ll_tim.h **** /* Private types -------------------------------------------------------------*/
  42:Drivers/STM32F7xx_HAL_Driver/Inc/stm32f7xx_ll_tim.h **** /* Private variables ---------------------------------------------------------*/
  43:Drivers/STM32F7xx_HAL_Driver/Inc/stm32f7xx_ll_tim.h **** /** @defgroup TIM_LL_Private_Variables TIM Private Variables
  44:Drivers/STM32F7xx_HAL_Driver/Inc/stm32f7xx_ll_tim.h ****   * @{
  45:Drivers/STM32F7xx_HAL_Driver/Inc/stm32f7xx_ll_tim.h ****   */
  46:Drivers/STM32F7xx_HAL_Driver/Inc/stm32f7xx_ll_tim.h **** static const uint8_t OFFSET_TAB_CCMRx[] =
  47:Drivers/STM32F7xx_HAL_Driver/Inc/stm32f7xx_ll_tim.h **** {
  48:Drivers/STM32F7xx_HAL_Driver/Inc/stm32f7xx_ll_tim.h ****   0x00U,   /* 0: TIMx_CH1  */
  49:Drivers/STM32F7xx_HAL_Driver/Inc/stm32f7xx_ll_tim.h ****   0x00U,   /* 1: TIMx_CH1N */
  50:Drivers/STM32F7xx_HAL_Driver/Inc/stm32f7xx_ll_tim.h ****   0x00U,   /* 2: TIMx_CH2  */
  51:Drivers/STM32F7xx_HAL_Driver/Inc/stm32f7xx_ll_tim.h ****   0x00U,   /* 3: TIMx_CH2N */
  52:Drivers/STM32F7xx_HAL_Driver/Inc/stm32f7xx_ll_tim.h ****   0x04U,   /* 4: TIMx_CH3  */
  53:Drivers/STM32F7xx_HAL_Driver/Inc/stm32f7xx_ll_tim.h ****   0x04U,   /* 5: TIMx_CH3N */
  54:Drivers/STM32F7xx_HAL_Driver/Inc/stm32f7xx_ll_tim.h ****   0x04U,   /* 6: TIMx_CH4  */
  55:Drivers/STM32F7xx_HAL_Driver/Inc/stm32f7xx_ll_tim.h ****   0x3CU,   /* 7: TIMx_CH5  */
  56:Drivers/STM32F7xx_HAL_Driver/Inc/stm32f7xx_ll_tim.h ****   0x3CU    /* 8: TIMx_CH6  */
  57:Drivers/STM32F7xx_HAL_Driver/Inc/stm32f7xx_ll_tim.h **** };
  58:Drivers/STM32F7xx_HAL_Driver/Inc/stm32f7xx_ll_tim.h **** 
  59:Drivers/STM32F7xx_HAL_Driver/Inc/stm32f7xx_ll_tim.h **** static const uint8_t SHIFT_TAB_OCxx[] =
ARM GAS  C:\Users\Giorgio\AppData\Local\Temp\cc3JIPZT.s 			page 7


  60:Drivers/STM32F7xx_HAL_Driver/Inc/stm32f7xx_ll_tim.h **** {
  61:Drivers/STM32F7xx_HAL_Driver/Inc/stm32f7xx_ll_tim.h ****   0U,            /* 0: OC1M, OC1FE, OC1PE */
  62:Drivers/STM32F7xx_HAL_Driver/Inc/stm32f7xx_ll_tim.h ****   0U,            /* 1: - NA */
  63:Drivers/STM32F7xx_HAL_Driver/Inc/stm32f7xx_ll_tim.h ****   8U,            /* 2: OC2M, OC2FE, OC2PE */
  64:Drivers/STM32F7xx_HAL_Driver/Inc/stm32f7xx_ll_tim.h ****   0U,            /* 3: - NA */
  65:Drivers/STM32F7xx_HAL_Driver/Inc/stm32f7xx_ll_tim.h ****   0U,            /* 4: OC3M, OC3FE, OC3PE */
  66:Drivers/STM32F7xx_HAL_Driver/Inc/stm32f7xx_ll_tim.h ****   0U,            /* 5: - NA */
  67:Drivers/STM32F7xx_HAL_Driver/Inc/stm32f7xx_ll_tim.h ****   8U,            /* 6: OC4M, OC4FE, OC4PE */
  68:Drivers/STM32F7xx_HAL_Driver/Inc/stm32f7xx_ll_tim.h ****   0U,            /* 7: OC5M, OC5FE, OC5PE */
  69:Drivers/STM32F7xx_HAL_Driver/Inc/stm32f7xx_ll_tim.h ****   8U             /* 8: OC6M, OC6FE, OC6PE */
  70:Drivers/STM32F7xx_HAL_Driver/Inc/stm32f7xx_ll_tim.h **** };
  71:Drivers/STM32F7xx_HAL_Driver/Inc/stm32f7xx_ll_tim.h **** 
  72:Drivers/STM32F7xx_HAL_Driver/Inc/stm32f7xx_ll_tim.h **** static const uint8_t SHIFT_TAB_ICxx[] =
  73:Drivers/STM32F7xx_HAL_Driver/Inc/stm32f7xx_ll_tim.h **** {
  74:Drivers/STM32F7xx_HAL_Driver/Inc/stm32f7xx_ll_tim.h ****   0U,            /* 0: CC1S, IC1PSC, IC1F */
  75:Drivers/STM32F7xx_HAL_Driver/Inc/stm32f7xx_ll_tim.h ****   0U,            /* 1: - NA */
  76:Drivers/STM32F7xx_HAL_Driver/Inc/stm32f7xx_ll_tim.h ****   8U,            /* 2: CC2S, IC2PSC, IC2F */
  77:Drivers/STM32F7xx_HAL_Driver/Inc/stm32f7xx_ll_tim.h ****   0U,            /* 3: - NA */
  78:Drivers/STM32F7xx_HAL_Driver/Inc/stm32f7xx_ll_tim.h ****   0U,            /* 4: CC3S, IC3PSC, IC3F */
  79:Drivers/STM32F7xx_HAL_Driver/Inc/stm32f7xx_ll_tim.h ****   0U,            /* 5: - NA */
  80:Drivers/STM32F7xx_HAL_Driver/Inc/stm32f7xx_ll_tim.h ****   8U,            /* 6: CC4S, IC4PSC, IC4F */
  81:Drivers/STM32F7xx_HAL_Driver/Inc/stm32f7xx_ll_tim.h ****   0U,            /* 7: - NA */
  82:Drivers/STM32F7xx_HAL_Driver/Inc/stm32f7xx_ll_tim.h ****   0U             /* 8: - NA */
  83:Drivers/STM32F7xx_HAL_Driver/Inc/stm32f7xx_ll_tim.h **** };
  84:Drivers/STM32F7xx_HAL_Driver/Inc/stm32f7xx_ll_tim.h **** 
  85:Drivers/STM32F7xx_HAL_Driver/Inc/stm32f7xx_ll_tim.h **** static const uint8_t SHIFT_TAB_CCxP[] =
  86:Drivers/STM32F7xx_HAL_Driver/Inc/stm32f7xx_ll_tim.h **** {
  87:Drivers/STM32F7xx_HAL_Driver/Inc/stm32f7xx_ll_tim.h ****   0U,            /* 0: CC1P */
  88:Drivers/STM32F7xx_HAL_Driver/Inc/stm32f7xx_ll_tim.h ****   2U,            /* 1: CC1NP */
  89:Drivers/STM32F7xx_HAL_Driver/Inc/stm32f7xx_ll_tim.h ****   4U,            /* 2: CC2P */
  90:Drivers/STM32F7xx_HAL_Driver/Inc/stm32f7xx_ll_tim.h ****   6U,            /* 3: CC2NP */
  91:Drivers/STM32F7xx_HAL_Driver/Inc/stm32f7xx_ll_tim.h ****   8U,            /* 4: CC3P */
  92:Drivers/STM32F7xx_HAL_Driver/Inc/stm32f7xx_ll_tim.h ****   10U,           /* 5: CC3NP */
  93:Drivers/STM32F7xx_HAL_Driver/Inc/stm32f7xx_ll_tim.h ****   12U,           /* 6: CC4P */
  94:Drivers/STM32F7xx_HAL_Driver/Inc/stm32f7xx_ll_tim.h ****   16U,           /* 7: CC5P */
  95:Drivers/STM32F7xx_HAL_Driver/Inc/stm32f7xx_ll_tim.h ****   20U            /* 8: CC6P */
  96:Drivers/STM32F7xx_HAL_Driver/Inc/stm32f7xx_ll_tim.h **** };
  97:Drivers/STM32F7xx_HAL_Driver/Inc/stm32f7xx_ll_tim.h **** 
  98:Drivers/STM32F7xx_HAL_Driver/Inc/stm32f7xx_ll_tim.h **** static const uint8_t SHIFT_TAB_OISx[] =
  99:Drivers/STM32F7xx_HAL_Driver/Inc/stm32f7xx_ll_tim.h **** {
 100:Drivers/STM32F7xx_HAL_Driver/Inc/stm32f7xx_ll_tim.h ****   0U,            /* 0: OIS1 */
 101:Drivers/STM32F7xx_HAL_Driver/Inc/stm32f7xx_ll_tim.h ****   1U,            /* 1: OIS1N */
 102:Drivers/STM32F7xx_HAL_Driver/Inc/stm32f7xx_ll_tim.h ****   2U,            /* 2: OIS2 */
 103:Drivers/STM32F7xx_HAL_Driver/Inc/stm32f7xx_ll_tim.h ****   3U,            /* 3: OIS2N */
 104:Drivers/STM32F7xx_HAL_Driver/Inc/stm32f7xx_ll_tim.h ****   4U,            /* 4: OIS3 */
 105:Drivers/STM32F7xx_HAL_Driver/Inc/stm32f7xx_ll_tim.h ****   5U,            /* 5: OIS3N */
 106:Drivers/STM32F7xx_HAL_Driver/Inc/stm32f7xx_ll_tim.h ****   6U,            /* 6: OIS4 */
 107:Drivers/STM32F7xx_HAL_Driver/Inc/stm32f7xx_ll_tim.h ****   8U,            /* 7: OIS5 */
 108:Drivers/STM32F7xx_HAL_Driver/Inc/stm32f7xx_ll_tim.h ****   10U            /* 8: OIS6 */
 109:Drivers/STM32F7xx_HAL_Driver/Inc/stm32f7xx_ll_tim.h **** };
 110:Drivers/STM32F7xx_HAL_Driver/Inc/stm32f7xx_ll_tim.h **** /**
 111:Drivers/STM32F7xx_HAL_Driver/Inc/stm32f7xx_ll_tim.h ****   * @}
 112:Drivers/STM32F7xx_HAL_Driver/Inc/stm32f7xx_ll_tim.h ****   */
 113:Drivers/STM32F7xx_HAL_Driver/Inc/stm32f7xx_ll_tim.h **** 
 114:Drivers/STM32F7xx_HAL_Driver/Inc/stm32f7xx_ll_tim.h **** /* Private constants ---------------------------------------------------------*/
 115:Drivers/STM32F7xx_HAL_Driver/Inc/stm32f7xx_ll_tim.h **** /** @defgroup TIM_LL_Private_Constants TIM Private Constants
 116:Drivers/STM32F7xx_HAL_Driver/Inc/stm32f7xx_ll_tim.h ****   * @{
ARM GAS  C:\Users\Giorgio\AppData\Local\Temp\cc3JIPZT.s 			page 8


 117:Drivers/STM32F7xx_HAL_Driver/Inc/stm32f7xx_ll_tim.h ****   */
 118:Drivers/STM32F7xx_HAL_Driver/Inc/stm32f7xx_ll_tim.h **** 
 119:Drivers/STM32F7xx_HAL_Driver/Inc/stm32f7xx_ll_tim.h **** #if   defined(TIM_BREAK_INPUT_SUPPORT)
 120:Drivers/STM32F7xx_HAL_Driver/Inc/stm32f7xx_ll_tim.h **** /* Defines used for the bit position in the register and perform offsets */
 121:Drivers/STM32F7xx_HAL_Driver/Inc/stm32f7xx_ll_tim.h **** #define TIM_POSITION_BRK_SOURCE           (POSITION_VAL(Source) & 0x1FUL)
 122:Drivers/STM32F7xx_HAL_Driver/Inc/stm32f7xx_ll_tim.h **** 
 123:Drivers/STM32F7xx_HAL_Driver/Inc/stm32f7xx_ll_tim.h **** /* Generic bit definitions for TIMx_AF1 register */
 124:Drivers/STM32F7xx_HAL_Driver/Inc/stm32f7xx_ll_tim.h **** #define TIMx_AF1_BKINE          TIM1_AF1_BKINE       /*!< BRK BKINE input enable */
 125:Drivers/STM32F7xx_HAL_Driver/Inc/stm32f7xx_ll_tim.h **** #if defined(DFSDM1_Channel0)
 126:Drivers/STM32F7xx_HAL_Driver/Inc/stm32f7xx_ll_tim.h **** #define TIMx_AF1_BKDFBKE        TIM1_AF1_BKDFBKE     /*!< BRK DFSDM1_BREAK[0] enable */
 127:Drivers/STM32F7xx_HAL_Driver/Inc/stm32f7xx_ll_tim.h **** #endif /* DFSDM1_Channel0 */
 128:Drivers/STM32F7xx_HAL_Driver/Inc/stm32f7xx_ll_tim.h **** #define TIMx_AF1_BKINP        TIM1_AF1_BKINP       /*!< BRK BKIN input polarity */
 129:Drivers/STM32F7xx_HAL_Driver/Inc/stm32f7xx_ll_tim.h **** /* Generic bit definitions for TIMx_AF2 register */
 130:Drivers/STM32F7xx_HAL_Driver/Inc/stm32f7xx_ll_tim.h **** #define TIMx_AF2_BK2INE         TIM1_AF2_BK2INE      /*!< BRK B2KINE input enable */
 131:Drivers/STM32F7xx_HAL_Driver/Inc/stm32f7xx_ll_tim.h **** #if defined(DFSDM1_Channel0)
 132:Drivers/STM32F7xx_HAL_Driver/Inc/stm32f7xx_ll_tim.h **** #define TIMx_AF2_BK2DFBKE       TIM1_AF2_BK2DFBKE    /*!< BRK DFSDM_BREAK[0] enable */
 133:Drivers/STM32F7xx_HAL_Driver/Inc/stm32f7xx_ll_tim.h **** #endif /* DFSDM1_Channel0 */
 134:Drivers/STM32F7xx_HAL_Driver/Inc/stm32f7xx_ll_tim.h **** #define TIMx_AF2_BK2INP       TIM1_AF2_BK2INP      /*!< BRK BK2IN input polarity */
 135:Drivers/STM32F7xx_HAL_Driver/Inc/stm32f7xx_ll_tim.h **** #endif /* TIM_BREAK_INPUT_SUPPORT */
 136:Drivers/STM32F7xx_HAL_Driver/Inc/stm32f7xx_ll_tim.h **** 
 137:Drivers/STM32F7xx_HAL_Driver/Inc/stm32f7xx_ll_tim.h **** /* Remap mask definitions */
 138:Drivers/STM32F7xx_HAL_Driver/Inc/stm32f7xx_ll_tim.h **** #define TIMx_OR_RMP_SHIFT  16U
 139:Drivers/STM32F7xx_HAL_Driver/Inc/stm32f7xx_ll_tim.h **** #define TIMx_OR_RMP_MASK   0x0000FFFFU
 140:Drivers/STM32F7xx_HAL_Driver/Inc/stm32f7xx_ll_tim.h **** #define TIM2_OR_RMP_MASK   (TIM2_OR_ITR1_RMP << TIMx_OR_RMP_SHIFT)
 141:Drivers/STM32F7xx_HAL_Driver/Inc/stm32f7xx_ll_tim.h **** #define TIM5_OR_RMP_MASK   (TIM5_OR_TI4_RMP << TIMx_OR_RMP_SHIFT)
 142:Drivers/STM32F7xx_HAL_Driver/Inc/stm32f7xx_ll_tim.h **** #define TIM11_OR_RMP_MASK  (TIM11_OR_TI1_RMP << TIMx_OR_RMP_SHIFT)
 143:Drivers/STM32F7xx_HAL_Driver/Inc/stm32f7xx_ll_tim.h **** 
 144:Drivers/STM32F7xx_HAL_Driver/Inc/stm32f7xx_ll_tim.h **** /* Mask used to set the TDG[x:0] of the DTG bits of the TIMx_BDTR register */
 145:Drivers/STM32F7xx_HAL_Driver/Inc/stm32f7xx_ll_tim.h **** #define DT_DELAY_1 ((uint8_t)0x7F)
 146:Drivers/STM32F7xx_HAL_Driver/Inc/stm32f7xx_ll_tim.h **** #define DT_DELAY_2 ((uint8_t)0x3F)
 147:Drivers/STM32F7xx_HAL_Driver/Inc/stm32f7xx_ll_tim.h **** #define DT_DELAY_3 ((uint8_t)0x1F)
 148:Drivers/STM32F7xx_HAL_Driver/Inc/stm32f7xx_ll_tim.h **** #define DT_DELAY_4 ((uint8_t)0x1F)
 149:Drivers/STM32F7xx_HAL_Driver/Inc/stm32f7xx_ll_tim.h **** 
 150:Drivers/STM32F7xx_HAL_Driver/Inc/stm32f7xx_ll_tim.h **** /* Mask used to set the DTG[7:5] bits of the DTG bits of the TIMx_BDTR register */
 151:Drivers/STM32F7xx_HAL_Driver/Inc/stm32f7xx_ll_tim.h **** #define DT_RANGE_1 ((uint8_t)0x00)
 152:Drivers/STM32F7xx_HAL_Driver/Inc/stm32f7xx_ll_tim.h **** #define DT_RANGE_2 ((uint8_t)0x80)
 153:Drivers/STM32F7xx_HAL_Driver/Inc/stm32f7xx_ll_tim.h **** #define DT_RANGE_3 ((uint8_t)0xC0)
 154:Drivers/STM32F7xx_HAL_Driver/Inc/stm32f7xx_ll_tim.h **** #define DT_RANGE_4 ((uint8_t)0xE0)
 155:Drivers/STM32F7xx_HAL_Driver/Inc/stm32f7xx_ll_tim.h **** 
 156:Drivers/STM32F7xx_HAL_Driver/Inc/stm32f7xx_ll_tim.h **** 
 157:Drivers/STM32F7xx_HAL_Driver/Inc/stm32f7xx_ll_tim.h **** /**
 158:Drivers/STM32F7xx_HAL_Driver/Inc/stm32f7xx_ll_tim.h ****   * @}
 159:Drivers/STM32F7xx_HAL_Driver/Inc/stm32f7xx_ll_tim.h ****   */
 160:Drivers/STM32F7xx_HAL_Driver/Inc/stm32f7xx_ll_tim.h **** 
 161:Drivers/STM32F7xx_HAL_Driver/Inc/stm32f7xx_ll_tim.h **** /* Private macros ------------------------------------------------------------*/
 162:Drivers/STM32F7xx_HAL_Driver/Inc/stm32f7xx_ll_tim.h **** /** @defgroup TIM_LL_Private_Macros TIM Private Macros
 163:Drivers/STM32F7xx_HAL_Driver/Inc/stm32f7xx_ll_tim.h ****   * @{
 164:Drivers/STM32F7xx_HAL_Driver/Inc/stm32f7xx_ll_tim.h ****   */
 165:Drivers/STM32F7xx_HAL_Driver/Inc/stm32f7xx_ll_tim.h **** /** @brief  Convert channel id into channel index.
 166:Drivers/STM32F7xx_HAL_Driver/Inc/stm32f7xx_ll_tim.h ****   * @param  __CHANNEL__ This parameter can be one of the following values:
 167:Drivers/STM32F7xx_HAL_Driver/Inc/stm32f7xx_ll_tim.h ****   *         @arg @ref LL_TIM_CHANNEL_CH1
 168:Drivers/STM32F7xx_HAL_Driver/Inc/stm32f7xx_ll_tim.h ****   *         @arg @ref LL_TIM_CHANNEL_CH1N
 169:Drivers/STM32F7xx_HAL_Driver/Inc/stm32f7xx_ll_tim.h ****   *         @arg @ref LL_TIM_CHANNEL_CH2
 170:Drivers/STM32F7xx_HAL_Driver/Inc/stm32f7xx_ll_tim.h ****   *         @arg @ref LL_TIM_CHANNEL_CH2N
 171:Drivers/STM32F7xx_HAL_Driver/Inc/stm32f7xx_ll_tim.h ****   *         @arg @ref LL_TIM_CHANNEL_CH3
 172:Drivers/STM32F7xx_HAL_Driver/Inc/stm32f7xx_ll_tim.h ****   *         @arg @ref LL_TIM_CHANNEL_CH3N
 173:Drivers/STM32F7xx_HAL_Driver/Inc/stm32f7xx_ll_tim.h ****   *         @arg @ref LL_TIM_CHANNEL_CH4
ARM GAS  C:\Users\Giorgio\AppData\Local\Temp\cc3JIPZT.s 			page 9


 174:Drivers/STM32F7xx_HAL_Driver/Inc/stm32f7xx_ll_tim.h ****   *         @arg @ref LL_TIM_CHANNEL_CH5
 175:Drivers/STM32F7xx_HAL_Driver/Inc/stm32f7xx_ll_tim.h ****   *         @arg @ref LL_TIM_CHANNEL_CH6
 176:Drivers/STM32F7xx_HAL_Driver/Inc/stm32f7xx_ll_tim.h ****   * @retval none
 177:Drivers/STM32F7xx_HAL_Driver/Inc/stm32f7xx_ll_tim.h ****   */
 178:Drivers/STM32F7xx_HAL_Driver/Inc/stm32f7xx_ll_tim.h **** #define TIM_GET_CHANNEL_INDEX( __CHANNEL__) \
 179:Drivers/STM32F7xx_HAL_Driver/Inc/stm32f7xx_ll_tim.h **** (((__CHANNEL__) == LL_TIM_CHANNEL_CH1) ? 0U :\
 180:Drivers/STM32F7xx_HAL_Driver/Inc/stm32f7xx_ll_tim.h **** ((__CHANNEL__) == LL_TIM_CHANNEL_CH1N) ? 1U :\
 181:Drivers/STM32F7xx_HAL_Driver/Inc/stm32f7xx_ll_tim.h **** ((__CHANNEL__) == LL_TIM_CHANNEL_CH2) ? 2U :\
 182:Drivers/STM32F7xx_HAL_Driver/Inc/stm32f7xx_ll_tim.h **** ((__CHANNEL__) == LL_TIM_CHANNEL_CH2N) ? 3U :\
 183:Drivers/STM32F7xx_HAL_Driver/Inc/stm32f7xx_ll_tim.h **** ((__CHANNEL__) == LL_TIM_CHANNEL_CH3) ? 4U :\
 184:Drivers/STM32F7xx_HAL_Driver/Inc/stm32f7xx_ll_tim.h **** ((__CHANNEL__) == LL_TIM_CHANNEL_CH3N) ? 5U :\
 185:Drivers/STM32F7xx_HAL_Driver/Inc/stm32f7xx_ll_tim.h **** ((__CHANNEL__) == LL_TIM_CHANNEL_CH4) ? 6U :\
 186:Drivers/STM32F7xx_HAL_Driver/Inc/stm32f7xx_ll_tim.h **** ((__CHANNEL__) == LL_TIM_CHANNEL_CH5) ? 7U : 8U)
 187:Drivers/STM32F7xx_HAL_Driver/Inc/stm32f7xx_ll_tim.h **** 
 188:Drivers/STM32F7xx_HAL_Driver/Inc/stm32f7xx_ll_tim.h **** /** @brief  Calculate the deadtime sampling period(in ps).
 189:Drivers/STM32F7xx_HAL_Driver/Inc/stm32f7xx_ll_tim.h ****   * @param  __TIMCLK__ timer input clock frequency (in Hz).
 190:Drivers/STM32F7xx_HAL_Driver/Inc/stm32f7xx_ll_tim.h ****   * @param  __CKD__ This parameter can be one of the following values:
 191:Drivers/STM32F7xx_HAL_Driver/Inc/stm32f7xx_ll_tim.h ****   *         @arg @ref LL_TIM_CLOCKDIVISION_DIV1
 192:Drivers/STM32F7xx_HAL_Driver/Inc/stm32f7xx_ll_tim.h ****   *         @arg @ref LL_TIM_CLOCKDIVISION_DIV2
 193:Drivers/STM32F7xx_HAL_Driver/Inc/stm32f7xx_ll_tim.h ****   *         @arg @ref LL_TIM_CLOCKDIVISION_DIV4
 194:Drivers/STM32F7xx_HAL_Driver/Inc/stm32f7xx_ll_tim.h ****   * @retval none
 195:Drivers/STM32F7xx_HAL_Driver/Inc/stm32f7xx_ll_tim.h ****   */
 196:Drivers/STM32F7xx_HAL_Driver/Inc/stm32f7xx_ll_tim.h **** #define TIM_CALC_DTS(__TIMCLK__, __CKD__)                                                        \
 197:Drivers/STM32F7xx_HAL_Driver/Inc/stm32f7xx_ll_tim.h ****     (((__CKD__) == LL_TIM_CLOCKDIVISION_DIV1) ? ((uint64_t)1000000000000U/(__TIMCLK__))         : \
 198:Drivers/STM32F7xx_HAL_Driver/Inc/stm32f7xx_ll_tim.h ****      ((__CKD__) == LL_TIM_CLOCKDIVISION_DIV2) ? ((uint64_t)1000000000000U/((__TIMCLK__) >> 1U)) : \
 199:Drivers/STM32F7xx_HAL_Driver/Inc/stm32f7xx_ll_tim.h ****      ((uint64_t)1000000000000U/((__TIMCLK__) >> 2U)))
 200:Drivers/STM32F7xx_HAL_Driver/Inc/stm32f7xx_ll_tim.h **** /**
 201:Drivers/STM32F7xx_HAL_Driver/Inc/stm32f7xx_ll_tim.h ****   * @}
 202:Drivers/STM32F7xx_HAL_Driver/Inc/stm32f7xx_ll_tim.h ****   */
 203:Drivers/STM32F7xx_HAL_Driver/Inc/stm32f7xx_ll_tim.h **** 
 204:Drivers/STM32F7xx_HAL_Driver/Inc/stm32f7xx_ll_tim.h **** 
 205:Drivers/STM32F7xx_HAL_Driver/Inc/stm32f7xx_ll_tim.h **** /* Exported types ------------------------------------------------------------*/
 206:Drivers/STM32F7xx_HAL_Driver/Inc/stm32f7xx_ll_tim.h **** #if defined(USE_FULL_LL_DRIVER)
 207:Drivers/STM32F7xx_HAL_Driver/Inc/stm32f7xx_ll_tim.h **** /** @defgroup TIM_LL_ES_INIT TIM Exported Init structure
 208:Drivers/STM32F7xx_HAL_Driver/Inc/stm32f7xx_ll_tim.h ****   * @{
 209:Drivers/STM32F7xx_HAL_Driver/Inc/stm32f7xx_ll_tim.h ****   */
 210:Drivers/STM32F7xx_HAL_Driver/Inc/stm32f7xx_ll_tim.h **** 
 211:Drivers/STM32F7xx_HAL_Driver/Inc/stm32f7xx_ll_tim.h **** /**
 212:Drivers/STM32F7xx_HAL_Driver/Inc/stm32f7xx_ll_tim.h ****   * @brief  TIM Time Base configuration structure definition.
 213:Drivers/STM32F7xx_HAL_Driver/Inc/stm32f7xx_ll_tim.h ****   */
 214:Drivers/STM32F7xx_HAL_Driver/Inc/stm32f7xx_ll_tim.h **** typedef struct
 215:Drivers/STM32F7xx_HAL_Driver/Inc/stm32f7xx_ll_tim.h **** {
 216:Drivers/STM32F7xx_HAL_Driver/Inc/stm32f7xx_ll_tim.h ****   uint16_t Prescaler;         /*!< Specifies the prescaler value used to divide the TIM clock.
 217:Drivers/STM32F7xx_HAL_Driver/Inc/stm32f7xx_ll_tim.h ****                                    This parameter can be a number between Min_Data=0x0000 and Max_D
 218:Drivers/STM32F7xx_HAL_Driver/Inc/stm32f7xx_ll_tim.h **** 
 219:Drivers/STM32F7xx_HAL_Driver/Inc/stm32f7xx_ll_tim.h ****                                    This feature can be modified afterwards using unitary function @
 220:Drivers/STM32F7xx_HAL_Driver/Inc/stm32f7xx_ll_tim.h **** 
 221:Drivers/STM32F7xx_HAL_Driver/Inc/stm32f7xx_ll_tim.h ****   uint32_t CounterMode;       /*!< Specifies the counter mode.
 222:Drivers/STM32F7xx_HAL_Driver/Inc/stm32f7xx_ll_tim.h ****                                    This parameter can be a value of @ref TIM_LL_EC_COUNTERMODE.
 223:Drivers/STM32F7xx_HAL_Driver/Inc/stm32f7xx_ll_tim.h **** 
 224:Drivers/STM32F7xx_HAL_Driver/Inc/stm32f7xx_ll_tim.h ****                                    This feature can be modified afterwards using unitary function @
 225:Drivers/STM32F7xx_HAL_Driver/Inc/stm32f7xx_ll_tim.h **** 
 226:Drivers/STM32F7xx_HAL_Driver/Inc/stm32f7xx_ll_tim.h ****   uint32_t Autoreload;        /*!< Specifies the auto reload value to be loaded into the active
 227:Drivers/STM32F7xx_HAL_Driver/Inc/stm32f7xx_ll_tim.h ****                                    Auto-Reload Register at the next update event.
 228:Drivers/STM32F7xx_HAL_Driver/Inc/stm32f7xx_ll_tim.h ****                                    This parameter must be a number between Min_Data=0x0000 and Max_
 229:Drivers/STM32F7xx_HAL_Driver/Inc/stm32f7xx_ll_tim.h ****                                    Some timer instances may support 32 bits counters. In that case 
 230:Drivers/STM32F7xx_HAL_Driver/Inc/stm32f7xx_ll_tim.h **** 
ARM GAS  C:\Users\Giorgio\AppData\Local\Temp\cc3JIPZT.s 			page 10


 231:Drivers/STM32F7xx_HAL_Driver/Inc/stm32f7xx_ll_tim.h ****                                    This feature can be modified afterwards using unitary function @
 232:Drivers/STM32F7xx_HAL_Driver/Inc/stm32f7xx_ll_tim.h **** 
 233:Drivers/STM32F7xx_HAL_Driver/Inc/stm32f7xx_ll_tim.h ****   uint32_t ClockDivision;     /*!< Specifies the clock division.
 234:Drivers/STM32F7xx_HAL_Driver/Inc/stm32f7xx_ll_tim.h ****                                    This parameter can be a value of @ref TIM_LL_EC_CLOCKDIVISION.
 235:Drivers/STM32F7xx_HAL_Driver/Inc/stm32f7xx_ll_tim.h **** 
 236:Drivers/STM32F7xx_HAL_Driver/Inc/stm32f7xx_ll_tim.h ****                                    This feature can be modified afterwards using unitary function @
 237:Drivers/STM32F7xx_HAL_Driver/Inc/stm32f7xx_ll_tim.h **** 
 238:Drivers/STM32F7xx_HAL_Driver/Inc/stm32f7xx_ll_tim.h ****   uint8_t RepetitionCounter;  /*!< Specifies the repetition counter value. Each time the RCR downco
 239:Drivers/STM32F7xx_HAL_Driver/Inc/stm32f7xx_ll_tim.h ****                                    reaches zero, an update event is generated and counting restarts
 240:Drivers/STM32F7xx_HAL_Driver/Inc/stm32f7xx_ll_tim.h ****                                    from the RCR value (N).
 241:Drivers/STM32F7xx_HAL_Driver/Inc/stm32f7xx_ll_tim.h ****                                    This means in PWM mode that (N+1) corresponds to:
 242:Drivers/STM32F7xx_HAL_Driver/Inc/stm32f7xx_ll_tim.h ****                                       - the number of PWM periods in edge-aligned mode
 243:Drivers/STM32F7xx_HAL_Driver/Inc/stm32f7xx_ll_tim.h ****                                       - the number of half PWM period in center-aligned mode
 244:Drivers/STM32F7xx_HAL_Driver/Inc/stm32f7xx_ll_tim.h ****                                    This parameter must be a number between 0x00 and 0xFF.
 245:Drivers/STM32F7xx_HAL_Driver/Inc/stm32f7xx_ll_tim.h **** 
 246:Drivers/STM32F7xx_HAL_Driver/Inc/stm32f7xx_ll_tim.h ****                                    This feature can be modified afterwards using unitary function @
 247:Drivers/STM32F7xx_HAL_Driver/Inc/stm32f7xx_ll_tim.h **** } LL_TIM_InitTypeDef;
 248:Drivers/STM32F7xx_HAL_Driver/Inc/stm32f7xx_ll_tim.h **** 
 249:Drivers/STM32F7xx_HAL_Driver/Inc/stm32f7xx_ll_tim.h **** /**
 250:Drivers/STM32F7xx_HAL_Driver/Inc/stm32f7xx_ll_tim.h ****   * @brief  TIM Output Compare configuration structure definition.
 251:Drivers/STM32F7xx_HAL_Driver/Inc/stm32f7xx_ll_tim.h ****   */
 252:Drivers/STM32F7xx_HAL_Driver/Inc/stm32f7xx_ll_tim.h **** typedef struct
 253:Drivers/STM32F7xx_HAL_Driver/Inc/stm32f7xx_ll_tim.h **** {
 254:Drivers/STM32F7xx_HAL_Driver/Inc/stm32f7xx_ll_tim.h ****   uint32_t OCMode;        /*!< Specifies the output mode.
 255:Drivers/STM32F7xx_HAL_Driver/Inc/stm32f7xx_ll_tim.h ****                                This parameter can be a value of @ref TIM_LL_EC_OCMODE.
 256:Drivers/STM32F7xx_HAL_Driver/Inc/stm32f7xx_ll_tim.h **** 
 257:Drivers/STM32F7xx_HAL_Driver/Inc/stm32f7xx_ll_tim.h ****                                This feature can be modified afterwards using unitary function @ref 
 258:Drivers/STM32F7xx_HAL_Driver/Inc/stm32f7xx_ll_tim.h **** 
 259:Drivers/STM32F7xx_HAL_Driver/Inc/stm32f7xx_ll_tim.h ****   uint32_t OCState;       /*!< Specifies the TIM Output Compare state.
 260:Drivers/STM32F7xx_HAL_Driver/Inc/stm32f7xx_ll_tim.h ****                                This parameter can be a value of @ref TIM_LL_EC_OCSTATE.
 261:Drivers/STM32F7xx_HAL_Driver/Inc/stm32f7xx_ll_tim.h **** 
 262:Drivers/STM32F7xx_HAL_Driver/Inc/stm32f7xx_ll_tim.h ****                                This feature can be modified afterwards using unitary functions @ref
 263:Drivers/STM32F7xx_HAL_Driver/Inc/stm32f7xx_ll_tim.h **** 
 264:Drivers/STM32F7xx_HAL_Driver/Inc/stm32f7xx_ll_tim.h ****   uint32_t OCNState;      /*!< Specifies the TIM complementary Output Compare state.
 265:Drivers/STM32F7xx_HAL_Driver/Inc/stm32f7xx_ll_tim.h ****                                This parameter can be a value of @ref TIM_LL_EC_OCSTATE.
 266:Drivers/STM32F7xx_HAL_Driver/Inc/stm32f7xx_ll_tim.h **** 
 267:Drivers/STM32F7xx_HAL_Driver/Inc/stm32f7xx_ll_tim.h ****                                This feature can be modified afterwards using unitary functions @ref
 268:Drivers/STM32F7xx_HAL_Driver/Inc/stm32f7xx_ll_tim.h **** 
 269:Drivers/STM32F7xx_HAL_Driver/Inc/stm32f7xx_ll_tim.h ****   uint32_t CompareValue;  /*!< Specifies the Compare value to be loaded into the Capture Compare Re
 270:Drivers/STM32F7xx_HAL_Driver/Inc/stm32f7xx_ll_tim.h ****                                This parameter can be a number between Min_Data=0x0000 and Max_Data=
 271:Drivers/STM32F7xx_HAL_Driver/Inc/stm32f7xx_ll_tim.h **** 
 272:Drivers/STM32F7xx_HAL_Driver/Inc/stm32f7xx_ll_tim.h ****                                This feature can be modified afterwards using unitary function LL_TI
 273:Drivers/STM32F7xx_HAL_Driver/Inc/stm32f7xx_ll_tim.h **** 
 274:Drivers/STM32F7xx_HAL_Driver/Inc/stm32f7xx_ll_tim.h ****   uint32_t OCPolarity;    /*!< Specifies the output polarity.
 275:Drivers/STM32F7xx_HAL_Driver/Inc/stm32f7xx_ll_tim.h ****                                This parameter can be a value of @ref TIM_LL_EC_OCPOLARITY.
 276:Drivers/STM32F7xx_HAL_Driver/Inc/stm32f7xx_ll_tim.h **** 
 277:Drivers/STM32F7xx_HAL_Driver/Inc/stm32f7xx_ll_tim.h ****                                This feature can be modified afterwards using unitary function @ref 
 278:Drivers/STM32F7xx_HAL_Driver/Inc/stm32f7xx_ll_tim.h **** 
 279:Drivers/STM32F7xx_HAL_Driver/Inc/stm32f7xx_ll_tim.h ****   uint32_t OCNPolarity;   /*!< Specifies the complementary output polarity.
 280:Drivers/STM32F7xx_HAL_Driver/Inc/stm32f7xx_ll_tim.h ****                                This parameter can be a value of @ref TIM_LL_EC_OCPOLARITY.
 281:Drivers/STM32F7xx_HAL_Driver/Inc/stm32f7xx_ll_tim.h **** 
 282:Drivers/STM32F7xx_HAL_Driver/Inc/stm32f7xx_ll_tim.h ****                                This feature can be modified afterwards using unitary function @ref 
 283:Drivers/STM32F7xx_HAL_Driver/Inc/stm32f7xx_ll_tim.h **** 
 284:Drivers/STM32F7xx_HAL_Driver/Inc/stm32f7xx_ll_tim.h **** 
 285:Drivers/STM32F7xx_HAL_Driver/Inc/stm32f7xx_ll_tim.h ****   uint32_t OCIdleState;   /*!< Specifies the TIM Output Compare pin state during Idle state.
 286:Drivers/STM32F7xx_HAL_Driver/Inc/stm32f7xx_ll_tim.h ****                                This parameter can be a value of @ref TIM_LL_EC_OCIDLESTATE.
 287:Drivers/STM32F7xx_HAL_Driver/Inc/stm32f7xx_ll_tim.h **** 
ARM GAS  C:\Users\Giorgio\AppData\Local\Temp\cc3JIPZT.s 			page 11


 288:Drivers/STM32F7xx_HAL_Driver/Inc/stm32f7xx_ll_tim.h ****                                This feature can be modified afterwards using unitary function @ref 
 289:Drivers/STM32F7xx_HAL_Driver/Inc/stm32f7xx_ll_tim.h **** 
 290:Drivers/STM32F7xx_HAL_Driver/Inc/stm32f7xx_ll_tim.h ****   uint32_t OCNIdleState;  /*!< Specifies the TIM Output Compare pin state during Idle state.
 291:Drivers/STM32F7xx_HAL_Driver/Inc/stm32f7xx_ll_tim.h ****                                This parameter can be a value of @ref TIM_LL_EC_OCIDLESTATE.
 292:Drivers/STM32F7xx_HAL_Driver/Inc/stm32f7xx_ll_tim.h **** 
 293:Drivers/STM32F7xx_HAL_Driver/Inc/stm32f7xx_ll_tim.h ****                                This feature can be modified afterwards using unitary function @ref 
 294:Drivers/STM32F7xx_HAL_Driver/Inc/stm32f7xx_ll_tim.h **** } LL_TIM_OC_InitTypeDef;
 295:Drivers/STM32F7xx_HAL_Driver/Inc/stm32f7xx_ll_tim.h **** 
 296:Drivers/STM32F7xx_HAL_Driver/Inc/stm32f7xx_ll_tim.h **** /**
 297:Drivers/STM32F7xx_HAL_Driver/Inc/stm32f7xx_ll_tim.h ****   * @brief  TIM Input Capture configuration structure definition.
 298:Drivers/STM32F7xx_HAL_Driver/Inc/stm32f7xx_ll_tim.h ****   */
 299:Drivers/STM32F7xx_HAL_Driver/Inc/stm32f7xx_ll_tim.h **** 
 300:Drivers/STM32F7xx_HAL_Driver/Inc/stm32f7xx_ll_tim.h **** typedef struct
 301:Drivers/STM32F7xx_HAL_Driver/Inc/stm32f7xx_ll_tim.h **** {
 302:Drivers/STM32F7xx_HAL_Driver/Inc/stm32f7xx_ll_tim.h **** 
 303:Drivers/STM32F7xx_HAL_Driver/Inc/stm32f7xx_ll_tim.h ****   uint32_t ICPolarity;    /*!< Specifies the active edge of the input signal.
 304:Drivers/STM32F7xx_HAL_Driver/Inc/stm32f7xx_ll_tim.h ****                                This parameter can be a value of @ref TIM_LL_EC_IC_POLARITY.
 305:Drivers/STM32F7xx_HAL_Driver/Inc/stm32f7xx_ll_tim.h **** 
 306:Drivers/STM32F7xx_HAL_Driver/Inc/stm32f7xx_ll_tim.h ****                                This feature can be modified afterwards using unitary function @ref 
 307:Drivers/STM32F7xx_HAL_Driver/Inc/stm32f7xx_ll_tim.h **** 
 308:Drivers/STM32F7xx_HAL_Driver/Inc/stm32f7xx_ll_tim.h ****   uint32_t ICActiveInput; /*!< Specifies the input.
 309:Drivers/STM32F7xx_HAL_Driver/Inc/stm32f7xx_ll_tim.h ****                                This parameter can be a value of @ref TIM_LL_EC_ACTIVEINPUT.
 310:Drivers/STM32F7xx_HAL_Driver/Inc/stm32f7xx_ll_tim.h **** 
 311:Drivers/STM32F7xx_HAL_Driver/Inc/stm32f7xx_ll_tim.h ****                                This feature can be modified afterwards using unitary function @ref 
 312:Drivers/STM32F7xx_HAL_Driver/Inc/stm32f7xx_ll_tim.h **** 
 313:Drivers/STM32F7xx_HAL_Driver/Inc/stm32f7xx_ll_tim.h ****   uint32_t ICPrescaler;   /*!< Specifies the Input Capture Prescaler.
 314:Drivers/STM32F7xx_HAL_Driver/Inc/stm32f7xx_ll_tim.h ****                                This parameter can be a value of @ref TIM_LL_EC_ICPSC.
 315:Drivers/STM32F7xx_HAL_Driver/Inc/stm32f7xx_ll_tim.h **** 
 316:Drivers/STM32F7xx_HAL_Driver/Inc/stm32f7xx_ll_tim.h ****                                This feature can be modified afterwards using unitary function @ref 
 317:Drivers/STM32F7xx_HAL_Driver/Inc/stm32f7xx_ll_tim.h **** 
 318:Drivers/STM32F7xx_HAL_Driver/Inc/stm32f7xx_ll_tim.h ****   uint32_t ICFilter;      /*!< Specifies the input capture filter.
 319:Drivers/STM32F7xx_HAL_Driver/Inc/stm32f7xx_ll_tim.h ****                                This parameter can be a value of @ref TIM_LL_EC_IC_FILTER.
 320:Drivers/STM32F7xx_HAL_Driver/Inc/stm32f7xx_ll_tim.h **** 
 321:Drivers/STM32F7xx_HAL_Driver/Inc/stm32f7xx_ll_tim.h ****                                This feature can be modified afterwards using unitary function @ref 
 322:Drivers/STM32F7xx_HAL_Driver/Inc/stm32f7xx_ll_tim.h **** } LL_TIM_IC_InitTypeDef;
 323:Drivers/STM32F7xx_HAL_Driver/Inc/stm32f7xx_ll_tim.h **** 
 324:Drivers/STM32F7xx_HAL_Driver/Inc/stm32f7xx_ll_tim.h **** 
 325:Drivers/STM32F7xx_HAL_Driver/Inc/stm32f7xx_ll_tim.h **** /**
 326:Drivers/STM32F7xx_HAL_Driver/Inc/stm32f7xx_ll_tim.h ****   * @brief  TIM Encoder interface configuration structure definition.
 327:Drivers/STM32F7xx_HAL_Driver/Inc/stm32f7xx_ll_tim.h ****   */
 328:Drivers/STM32F7xx_HAL_Driver/Inc/stm32f7xx_ll_tim.h **** typedef struct
 329:Drivers/STM32F7xx_HAL_Driver/Inc/stm32f7xx_ll_tim.h **** {
 330:Drivers/STM32F7xx_HAL_Driver/Inc/stm32f7xx_ll_tim.h ****   uint32_t EncoderMode;     /*!< Specifies the encoder resolution (x2 or x4).
 331:Drivers/STM32F7xx_HAL_Driver/Inc/stm32f7xx_ll_tim.h ****                                  This parameter can be a value of @ref TIM_LL_EC_ENCODERMODE.
 332:Drivers/STM32F7xx_HAL_Driver/Inc/stm32f7xx_ll_tim.h **** 
 333:Drivers/STM32F7xx_HAL_Driver/Inc/stm32f7xx_ll_tim.h ****                                  This feature can be modified afterwards using unitary function @re
 334:Drivers/STM32F7xx_HAL_Driver/Inc/stm32f7xx_ll_tim.h **** 
 335:Drivers/STM32F7xx_HAL_Driver/Inc/stm32f7xx_ll_tim.h ****   uint32_t IC1Polarity;     /*!< Specifies the active edge of TI1 input.
 336:Drivers/STM32F7xx_HAL_Driver/Inc/stm32f7xx_ll_tim.h ****                                  This parameter can be a value of @ref TIM_LL_EC_IC_POLARITY.
 337:Drivers/STM32F7xx_HAL_Driver/Inc/stm32f7xx_ll_tim.h **** 
 338:Drivers/STM32F7xx_HAL_Driver/Inc/stm32f7xx_ll_tim.h ****                                  This feature can be modified afterwards using unitary function @re
 339:Drivers/STM32F7xx_HAL_Driver/Inc/stm32f7xx_ll_tim.h **** 
 340:Drivers/STM32F7xx_HAL_Driver/Inc/stm32f7xx_ll_tim.h ****   uint32_t IC1ActiveInput;  /*!< Specifies the TI1 input source
 341:Drivers/STM32F7xx_HAL_Driver/Inc/stm32f7xx_ll_tim.h ****                                  This parameter can be a value of @ref TIM_LL_EC_ACTIVEINPUT.
 342:Drivers/STM32F7xx_HAL_Driver/Inc/stm32f7xx_ll_tim.h **** 
 343:Drivers/STM32F7xx_HAL_Driver/Inc/stm32f7xx_ll_tim.h ****                                  This feature can be modified afterwards using unitary function @re
 344:Drivers/STM32F7xx_HAL_Driver/Inc/stm32f7xx_ll_tim.h **** 
ARM GAS  C:\Users\Giorgio\AppData\Local\Temp\cc3JIPZT.s 			page 12


 345:Drivers/STM32F7xx_HAL_Driver/Inc/stm32f7xx_ll_tim.h ****   uint32_t IC1Prescaler;    /*!< Specifies the TI1 input prescaler value.
 346:Drivers/STM32F7xx_HAL_Driver/Inc/stm32f7xx_ll_tim.h ****                                  This parameter can be a value of @ref TIM_LL_EC_ICPSC.
 347:Drivers/STM32F7xx_HAL_Driver/Inc/stm32f7xx_ll_tim.h **** 
 348:Drivers/STM32F7xx_HAL_Driver/Inc/stm32f7xx_ll_tim.h ****                                  This feature can be modified afterwards using unitary function @re
 349:Drivers/STM32F7xx_HAL_Driver/Inc/stm32f7xx_ll_tim.h **** 
 350:Drivers/STM32F7xx_HAL_Driver/Inc/stm32f7xx_ll_tim.h ****   uint32_t IC1Filter;       /*!< Specifies the TI1 input filter.
 351:Drivers/STM32F7xx_HAL_Driver/Inc/stm32f7xx_ll_tim.h ****                                  This parameter can be a value of @ref TIM_LL_EC_IC_FILTER.
 352:Drivers/STM32F7xx_HAL_Driver/Inc/stm32f7xx_ll_tim.h **** 
 353:Drivers/STM32F7xx_HAL_Driver/Inc/stm32f7xx_ll_tim.h ****                                  This feature can be modified afterwards using unitary function @re
 354:Drivers/STM32F7xx_HAL_Driver/Inc/stm32f7xx_ll_tim.h **** 
 355:Drivers/STM32F7xx_HAL_Driver/Inc/stm32f7xx_ll_tim.h ****   uint32_t IC2Polarity;      /*!< Specifies the active edge of TI2 input.
 356:Drivers/STM32F7xx_HAL_Driver/Inc/stm32f7xx_ll_tim.h ****                                  This parameter can be a value of @ref TIM_LL_EC_IC_POLARITY.
 357:Drivers/STM32F7xx_HAL_Driver/Inc/stm32f7xx_ll_tim.h **** 
 358:Drivers/STM32F7xx_HAL_Driver/Inc/stm32f7xx_ll_tim.h ****                                  This feature can be modified afterwards using unitary function @re
 359:Drivers/STM32F7xx_HAL_Driver/Inc/stm32f7xx_ll_tim.h **** 
 360:Drivers/STM32F7xx_HAL_Driver/Inc/stm32f7xx_ll_tim.h ****   uint32_t IC2ActiveInput;  /*!< Specifies the TI2 input source
 361:Drivers/STM32F7xx_HAL_Driver/Inc/stm32f7xx_ll_tim.h ****                                  This parameter can be a value of @ref TIM_LL_EC_ACTIVEINPUT.
 362:Drivers/STM32F7xx_HAL_Driver/Inc/stm32f7xx_ll_tim.h **** 
 363:Drivers/STM32F7xx_HAL_Driver/Inc/stm32f7xx_ll_tim.h ****                                  This feature can be modified afterwards using unitary function @re
 364:Drivers/STM32F7xx_HAL_Driver/Inc/stm32f7xx_ll_tim.h **** 
 365:Drivers/STM32F7xx_HAL_Driver/Inc/stm32f7xx_ll_tim.h ****   uint32_t IC2Prescaler;    /*!< Specifies the TI2 input prescaler value.
 366:Drivers/STM32F7xx_HAL_Driver/Inc/stm32f7xx_ll_tim.h ****                                  This parameter can be a value of @ref TIM_LL_EC_ICPSC.
 367:Drivers/STM32F7xx_HAL_Driver/Inc/stm32f7xx_ll_tim.h **** 
 368:Drivers/STM32F7xx_HAL_Driver/Inc/stm32f7xx_ll_tim.h ****                                  This feature can be modified afterwards using unitary function @re
 369:Drivers/STM32F7xx_HAL_Driver/Inc/stm32f7xx_ll_tim.h **** 
 370:Drivers/STM32F7xx_HAL_Driver/Inc/stm32f7xx_ll_tim.h ****   uint32_t IC2Filter;       /*!< Specifies the TI2 input filter.
 371:Drivers/STM32F7xx_HAL_Driver/Inc/stm32f7xx_ll_tim.h ****                                  This parameter can be a value of @ref TIM_LL_EC_IC_FILTER.
 372:Drivers/STM32F7xx_HAL_Driver/Inc/stm32f7xx_ll_tim.h **** 
 373:Drivers/STM32F7xx_HAL_Driver/Inc/stm32f7xx_ll_tim.h ****                                  This feature can be modified afterwards using unitary function @re
 374:Drivers/STM32F7xx_HAL_Driver/Inc/stm32f7xx_ll_tim.h **** 
 375:Drivers/STM32F7xx_HAL_Driver/Inc/stm32f7xx_ll_tim.h **** } LL_TIM_ENCODER_InitTypeDef;
 376:Drivers/STM32F7xx_HAL_Driver/Inc/stm32f7xx_ll_tim.h **** 
 377:Drivers/STM32F7xx_HAL_Driver/Inc/stm32f7xx_ll_tim.h **** /**
 378:Drivers/STM32F7xx_HAL_Driver/Inc/stm32f7xx_ll_tim.h ****   * @brief  TIM Hall sensor interface configuration structure definition.
 379:Drivers/STM32F7xx_HAL_Driver/Inc/stm32f7xx_ll_tim.h ****   */
 380:Drivers/STM32F7xx_HAL_Driver/Inc/stm32f7xx_ll_tim.h **** typedef struct
 381:Drivers/STM32F7xx_HAL_Driver/Inc/stm32f7xx_ll_tim.h **** {
 382:Drivers/STM32F7xx_HAL_Driver/Inc/stm32f7xx_ll_tim.h **** 
 383:Drivers/STM32F7xx_HAL_Driver/Inc/stm32f7xx_ll_tim.h ****   uint32_t IC1Polarity;        /*!< Specifies the active edge of TI1 input.
 384:Drivers/STM32F7xx_HAL_Driver/Inc/stm32f7xx_ll_tim.h ****                                     This parameter can be a value of @ref TIM_LL_EC_IC_POLARITY.
 385:Drivers/STM32F7xx_HAL_Driver/Inc/stm32f7xx_ll_tim.h **** 
 386:Drivers/STM32F7xx_HAL_Driver/Inc/stm32f7xx_ll_tim.h ****                                     This feature can be modified afterwards using unitary function 
 387:Drivers/STM32F7xx_HAL_Driver/Inc/stm32f7xx_ll_tim.h **** 
 388:Drivers/STM32F7xx_HAL_Driver/Inc/stm32f7xx_ll_tim.h ****   uint32_t IC1Prescaler;       /*!< Specifies the TI1 input prescaler value.
 389:Drivers/STM32F7xx_HAL_Driver/Inc/stm32f7xx_ll_tim.h ****                                     Prescaler must be set to get a maximum counter period longer th
 390:Drivers/STM32F7xx_HAL_Driver/Inc/stm32f7xx_ll_tim.h ****                                     time interval between 2 consecutive changes on the Hall inputs.
 391:Drivers/STM32F7xx_HAL_Driver/Inc/stm32f7xx_ll_tim.h ****                                     This parameter can be a value of @ref TIM_LL_EC_ICPSC.
 392:Drivers/STM32F7xx_HAL_Driver/Inc/stm32f7xx_ll_tim.h **** 
 393:Drivers/STM32F7xx_HAL_Driver/Inc/stm32f7xx_ll_tim.h ****                                     This feature can be modified afterwards using unitary function 
 394:Drivers/STM32F7xx_HAL_Driver/Inc/stm32f7xx_ll_tim.h **** 
 395:Drivers/STM32F7xx_HAL_Driver/Inc/stm32f7xx_ll_tim.h ****   uint32_t IC1Filter;          /*!< Specifies the TI1 input filter.
 396:Drivers/STM32F7xx_HAL_Driver/Inc/stm32f7xx_ll_tim.h ****                                     This parameter can be a value of @ref TIM_LL_EC_IC_FILTER.
 397:Drivers/STM32F7xx_HAL_Driver/Inc/stm32f7xx_ll_tim.h **** 
 398:Drivers/STM32F7xx_HAL_Driver/Inc/stm32f7xx_ll_tim.h ****                                     This feature can be modified afterwards using unitary function 
 399:Drivers/STM32F7xx_HAL_Driver/Inc/stm32f7xx_ll_tim.h **** 
 400:Drivers/STM32F7xx_HAL_Driver/Inc/stm32f7xx_ll_tim.h ****   uint32_t CommutationDelay;   /*!< Specifies the compare value to be loaded into the Capture Compa
 401:Drivers/STM32F7xx_HAL_Driver/Inc/stm32f7xx_ll_tim.h ****                                     A positive pulse (TRGO event) is generated with a programmable 
ARM GAS  C:\Users\Giorgio\AppData\Local\Temp\cc3JIPZT.s 			page 13


 402:Drivers/STM32F7xx_HAL_Driver/Inc/stm32f7xx_ll_tim.h ****                                     a change occurs on the Hall inputs.
 403:Drivers/STM32F7xx_HAL_Driver/Inc/stm32f7xx_ll_tim.h ****                                     This parameter can be a number between Min_Data = 0x0000 and Ma
 404:Drivers/STM32F7xx_HAL_Driver/Inc/stm32f7xx_ll_tim.h **** 
 405:Drivers/STM32F7xx_HAL_Driver/Inc/stm32f7xx_ll_tim.h ****                                     This feature can be modified afterwards using unitary function 
 406:Drivers/STM32F7xx_HAL_Driver/Inc/stm32f7xx_ll_tim.h **** } LL_TIM_HALLSENSOR_InitTypeDef;
 407:Drivers/STM32F7xx_HAL_Driver/Inc/stm32f7xx_ll_tim.h **** 
 408:Drivers/STM32F7xx_HAL_Driver/Inc/stm32f7xx_ll_tim.h **** /**
 409:Drivers/STM32F7xx_HAL_Driver/Inc/stm32f7xx_ll_tim.h ****   * @brief  BDTR (Break and Dead Time) structure definition
 410:Drivers/STM32F7xx_HAL_Driver/Inc/stm32f7xx_ll_tim.h ****   */
 411:Drivers/STM32F7xx_HAL_Driver/Inc/stm32f7xx_ll_tim.h **** typedef struct
 412:Drivers/STM32F7xx_HAL_Driver/Inc/stm32f7xx_ll_tim.h **** {
 413:Drivers/STM32F7xx_HAL_Driver/Inc/stm32f7xx_ll_tim.h ****   uint32_t OSSRState;            /*!< Specifies the Off-State selection used in Run mode.
 414:Drivers/STM32F7xx_HAL_Driver/Inc/stm32f7xx_ll_tim.h ****                                       This parameter can be a value of @ref TIM_LL_EC_OSSR
 415:Drivers/STM32F7xx_HAL_Driver/Inc/stm32f7xx_ll_tim.h **** 
 416:Drivers/STM32F7xx_HAL_Driver/Inc/stm32f7xx_ll_tim.h ****                                       This feature can be modified afterwards using unitary functio
 417:Drivers/STM32F7xx_HAL_Driver/Inc/stm32f7xx_ll_tim.h **** 
 418:Drivers/STM32F7xx_HAL_Driver/Inc/stm32f7xx_ll_tim.h ****                                       @note This bit-field cannot be modified as long as LOCK level
 419:Drivers/STM32F7xx_HAL_Driver/Inc/stm32f7xx_ll_tim.h **** 
 420:Drivers/STM32F7xx_HAL_Driver/Inc/stm32f7xx_ll_tim.h ****   uint32_t OSSIState;            /*!< Specifies the Off-State used in Idle state.
 421:Drivers/STM32F7xx_HAL_Driver/Inc/stm32f7xx_ll_tim.h ****                                       This parameter can be a value of @ref TIM_LL_EC_OSSI
 422:Drivers/STM32F7xx_HAL_Driver/Inc/stm32f7xx_ll_tim.h **** 
 423:Drivers/STM32F7xx_HAL_Driver/Inc/stm32f7xx_ll_tim.h ****                                       This feature can be modified afterwards using unitary functio
 424:Drivers/STM32F7xx_HAL_Driver/Inc/stm32f7xx_ll_tim.h **** 
 425:Drivers/STM32F7xx_HAL_Driver/Inc/stm32f7xx_ll_tim.h ****                                       @note This bit-field cannot be modified as long as LOCK level
 426:Drivers/STM32F7xx_HAL_Driver/Inc/stm32f7xx_ll_tim.h **** 
 427:Drivers/STM32F7xx_HAL_Driver/Inc/stm32f7xx_ll_tim.h ****   uint32_t LockLevel;            /*!< Specifies the LOCK level parameters.
 428:Drivers/STM32F7xx_HAL_Driver/Inc/stm32f7xx_ll_tim.h ****                                       This parameter can be a value of @ref TIM_LL_EC_LOCKLEVEL
 429:Drivers/STM32F7xx_HAL_Driver/Inc/stm32f7xx_ll_tim.h **** 
 430:Drivers/STM32F7xx_HAL_Driver/Inc/stm32f7xx_ll_tim.h ****                                       @note The LOCK bits can be written only once after the reset.
 431:Drivers/STM32F7xx_HAL_Driver/Inc/stm32f7xx_ll_tim.h ****                                             has been written, their content is frozen until the nex
 432:Drivers/STM32F7xx_HAL_Driver/Inc/stm32f7xx_ll_tim.h **** 
 433:Drivers/STM32F7xx_HAL_Driver/Inc/stm32f7xx_ll_tim.h ****   uint8_t DeadTime;              /*!< Specifies the delay time between the switching-off and the
 434:Drivers/STM32F7xx_HAL_Driver/Inc/stm32f7xx_ll_tim.h ****                                       switching-on of the outputs.
 435:Drivers/STM32F7xx_HAL_Driver/Inc/stm32f7xx_ll_tim.h ****                                       This parameter can be a number between Min_Data = 0x00 and Ma
 436:Drivers/STM32F7xx_HAL_Driver/Inc/stm32f7xx_ll_tim.h **** 
 437:Drivers/STM32F7xx_HAL_Driver/Inc/stm32f7xx_ll_tim.h ****                                       This feature can be modified afterwards using unitary functio
 438:Drivers/STM32F7xx_HAL_Driver/Inc/stm32f7xx_ll_tim.h **** 
 439:Drivers/STM32F7xx_HAL_Driver/Inc/stm32f7xx_ll_tim.h ****                                       @note This bit-field can not be modified as long as LOCK leve
 440:Drivers/STM32F7xx_HAL_Driver/Inc/stm32f7xx_ll_tim.h **** 
 441:Drivers/STM32F7xx_HAL_Driver/Inc/stm32f7xx_ll_tim.h ****   uint16_t BreakState;           /*!< Specifies whether the TIM Break input is enabled or not.
 442:Drivers/STM32F7xx_HAL_Driver/Inc/stm32f7xx_ll_tim.h ****                                       This parameter can be a value of @ref TIM_LL_EC_BREAK_ENABLE
 443:Drivers/STM32F7xx_HAL_Driver/Inc/stm32f7xx_ll_tim.h **** 
 444:Drivers/STM32F7xx_HAL_Driver/Inc/stm32f7xx_ll_tim.h ****                                       This feature can be modified afterwards using unitary functio
 445:Drivers/STM32F7xx_HAL_Driver/Inc/stm32f7xx_ll_tim.h **** 
 446:Drivers/STM32F7xx_HAL_Driver/Inc/stm32f7xx_ll_tim.h ****                                       @note This bit-field can not be modified as long as LOCK leve
 447:Drivers/STM32F7xx_HAL_Driver/Inc/stm32f7xx_ll_tim.h **** 
 448:Drivers/STM32F7xx_HAL_Driver/Inc/stm32f7xx_ll_tim.h ****   uint32_t BreakPolarity;        /*!< Specifies the TIM Break Input pin polarity.
 449:Drivers/STM32F7xx_HAL_Driver/Inc/stm32f7xx_ll_tim.h ****                                       This parameter can be a value of @ref TIM_LL_EC_BREAK_POLARIT
 450:Drivers/STM32F7xx_HAL_Driver/Inc/stm32f7xx_ll_tim.h **** 
 451:Drivers/STM32F7xx_HAL_Driver/Inc/stm32f7xx_ll_tim.h ****                                       This feature can be modified afterwards using unitary functio
 452:Drivers/STM32F7xx_HAL_Driver/Inc/stm32f7xx_ll_tim.h **** 
 453:Drivers/STM32F7xx_HAL_Driver/Inc/stm32f7xx_ll_tim.h ****                                       @note This bit-field can not be modified as long as LOCK leve
 454:Drivers/STM32F7xx_HAL_Driver/Inc/stm32f7xx_ll_tim.h **** 
 455:Drivers/STM32F7xx_HAL_Driver/Inc/stm32f7xx_ll_tim.h ****   uint32_t BreakFilter;          /*!< Specifies the TIM Break Filter.
 456:Drivers/STM32F7xx_HAL_Driver/Inc/stm32f7xx_ll_tim.h ****                                       This parameter can be a value of @ref TIM_LL_EC_BREAK_FILTER
 457:Drivers/STM32F7xx_HAL_Driver/Inc/stm32f7xx_ll_tim.h **** 
 458:Drivers/STM32F7xx_HAL_Driver/Inc/stm32f7xx_ll_tim.h ****                                       This feature can be modified afterwards using unitary functio
ARM GAS  C:\Users\Giorgio\AppData\Local\Temp\cc3JIPZT.s 			page 14


 459:Drivers/STM32F7xx_HAL_Driver/Inc/stm32f7xx_ll_tim.h **** 
 460:Drivers/STM32F7xx_HAL_Driver/Inc/stm32f7xx_ll_tim.h ****                                       @note This bit-field can not be modified as long as LOCK leve
 461:Drivers/STM32F7xx_HAL_Driver/Inc/stm32f7xx_ll_tim.h **** 
 462:Drivers/STM32F7xx_HAL_Driver/Inc/stm32f7xx_ll_tim.h ****   uint32_t Break2State;          /*!< Specifies whether the TIM Break2 input is enabled or not.
 463:Drivers/STM32F7xx_HAL_Driver/Inc/stm32f7xx_ll_tim.h ****                                       This parameter can be a value of @ref TIM_LL_EC_BREAK2_ENABLE
 464:Drivers/STM32F7xx_HAL_Driver/Inc/stm32f7xx_ll_tim.h **** 
 465:Drivers/STM32F7xx_HAL_Driver/Inc/stm32f7xx_ll_tim.h ****                                       This feature can be modified afterwards using unitary functio
 466:Drivers/STM32F7xx_HAL_Driver/Inc/stm32f7xx_ll_tim.h **** 
 467:Drivers/STM32F7xx_HAL_Driver/Inc/stm32f7xx_ll_tim.h ****                                       @note This bit-field can not be modified as long as LOCK leve
 468:Drivers/STM32F7xx_HAL_Driver/Inc/stm32f7xx_ll_tim.h **** 
 469:Drivers/STM32F7xx_HAL_Driver/Inc/stm32f7xx_ll_tim.h ****   uint32_t Break2Polarity;        /*!< Specifies the TIM Break2 Input pin polarity.
 470:Drivers/STM32F7xx_HAL_Driver/Inc/stm32f7xx_ll_tim.h ****                                       This parameter can be a value of @ref TIM_LL_EC_BREAK2_POLARI
 471:Drivers/STM32F7xx_HAL_Driver/Inc/stm32f7xx_ll_tim.h **** 
 472:Drivers/STM32F7xx_HAL_Driver/Inc/stm32f7xx_ll_tim.h ****                                       This feature can be modified afterwards using unitary functio
 473:Drivers/STM32F7xx_HAL_Driver/Inc/stm32f7xx_ll_tim.h **** 
 474:Drivers/STM32F7xx_HAL_Driver/Inc/stm32f7xx_ll_tim.h ****                                       @note This bit-field can not be modified as long as LOCK leve
 475:Drivers/STM32F7xx_HAL_Driver/Inc/stm32f7xx_ll_tim.h **** 
 476:Drivers/STM32F7xx_HAL_Driver/Inc/stm32f7xx_ll_tim.h ****   uint32_t Break2Filter;          /*!< Specifies the TIM Break2 Filter.
 477:Drivers/STM32F7xx_HAL_Driver/Inc/stm32f7xx_ll_tim.h ****                                       This parameter can be a value of @ref TIM_LL_EC_BREAK2_FILTER
 478:Drivers/STM32F7xx_HAL_Driver/Inc/stm32f7xx_ll_tim.h **** 
 479:Drivers/STM32F7xx_HAL_Driver/Inc/stm32f7xx_ll_tim.h ****                                       This feature can be modified afterwards using unitary functio
 480:Drivers/STM32F7xx_HAL_Driver/Inc/stm32f7xx_ll_tim.h **** 
 481:Drivers/STM32F7xx_HAL_Driver/Inc/stm32f7xx_ll_tim.h ****                                       @note This bit-field can not be modified as long as LOCK leve
 482:Drivers/STM32F7xx_HAL_Driver/Inc/stm32f7xx_ll_tim.h **** 
 483:Drivers/STM32F7xx_HAL_Driver/Inc/stm32f7xx_ll_tim.h ****   uint32_t AutomaticOutput;      /*!< Specifies whether the TIM Automatic Output feature is enabled
 484:Drivers/STM32F7xx_HAL_Driver/Inc/stm32f7xx_ll_tim.h ****                                       This parameter can be a value of @ref TIM_LL_EC_AUTOMATICOUTP
 485:Drivers/STM32F7xx_HAL_Driver/Inc/stm32f7xx_ll_tim.h **** 
 486:Drivers/STM32F7xx_HAL_Driver/Inc/stm32f7xx_ll_tim.h ****                                       This feature can be modified afterwards using unitary functio
 487:Drivers/STM32F7xx_HAL_Driver/Inc/stm32f7xx_ll_tim.h **** 
 488:Drivers/STM32F7xx_HAL_Driver/Inc/stm32f7xx_ll_tim.h ****                                       @note This bit-field can not be modified as long as LOCK leve
 489:Drivers/STM32F7xx_HAL_Driver/Inc/stm32f7xx_ll_tim.h **** } LL_TIM_BDTR_InitTypeDef;
 490:Drivers/STM32F7xx_HAL_Driver/Inc/stm32f7xx_ll_tim.h **** 
 491:Drivers/STM32F7xx_HAL_Driver/Inc/stm32f7xx_ll_tim.h **** /**
 492:Drivers/STM32F7xx_HAL_Driver/Inc/stm32f7xx_ll_tim.h ****   * @}
 493:Drivers/STM32F7xx_HAL_Driver/Inc/stm32f7xx_ll_tim.h ****   */
 494:Drivers/STM32F7xx_HAL_Driver/Inc/stm32f7xx_ll_tim.h **** #endif /* USE_FULL_LL_DRIVER */
 495:Drivers/STM32F7xx_HAL_Driver/Inc/stm32f7xx_ll_tim.h **** 
 496:Drivers/STM32F7xx_HAL_Driver/Inc/stm32f7xx_ll_tim.h **** /* Exported constants --------------------------------------------------------*/
 497:Drivers/STM32F7xx_HAL_Driver/Inc/stm32f7xx_ll_tim.h **** /** @defgroup TIM_LL_Exported_Constants TIM Exported Constants
 498:Drivers/STM32F7xx_HAL_Driver/Inc/stm32f7xx_ll_tim.h ****   * @{
 499:Drivers/STM32F7xx_HAL_Driver/Inc/stm32f7xx_ll_tim.h ****   */
 500:Drivers/STM32F7xx_HAL_Driver/Inc/stm32f7xx_ll_tim.h **** 
 501:Drivers/STM32F7xx_HAL_Driver/Inc/stm32f7xx_ll_tim.h **** /** @defgroup TIM_LL_EC_GET_FLAG Get Flags Defines
 502:Drivers/STM32F7xx_HAL_Driver/Inc/stm32f7xx_ll_tim.h ****   * @brief    Flags defines which can be used with LL_TIM_ReadReg function.
 503:Drivers/STM32F7xx_HAL_Driver/Inc/stm32f7xx_ll_tim.h ****   * @{
 504:Drivers/STM32F7xx_HAL_Driver/Inc/stm32f7xx_ll_tim.h ****   */
 505:Drivers/STM32F7xx_HAL_Driver/Inc/stm32f7xx_ll_tim.h **** #define LL_TIM_SR_UIF                          TIM_SR_UIF           /*!< Update interrupt flag */
 506:Drivers/STM32F7xx_HAL_Driver/Inc/stm32f7xx_ll_tim.h **** #define LL_TIM_SR_CC1IF                        TIM_SR_CC1IF         /*!< Capture/compare 1 interrup
 507:Drivers/STM32F7xx_HAL_Driver/Inc/stm32f7xx_ll_tim.h **** #define LL_TIM_SR_CC2IF                        TIM_SR_CC2IF         /*!< Capture/compare 2 interrup
 508:Drivers/STM32F7xx_HAL_Driver/Inc/stm32f7xx_ll_tim.h **** #define LL_TIM_SR_CC3IF                        TIM_SR_CC3IF         /*!< Capture/compare 3 interrup
 509:Drivers/STM32F7xx_HAL_Driver/Inc/stm32f7xx_ll_tim.h **** #define LL_TIM_SR_CC4IF                        TIM_SR_CC4IF         /*!< Capture/compare 4 interrup
 510:Drivers/STM32F7xx_HAL_Driver/Inc/stm32f7xx_ll_tim.h **** #define LL_TIM_SR_CC5IF                        TIM_SR_CC5IF         /*!< Capture/compare 5 interrup
 511:Drivers/STM32F7xx_HAL_Driver/Inc/stm32f7xx_ll_tim.h **** #define LL_TIM_SR_CC6IF                        TIM_SR_CC6IF         /*!< Capture/compare 6 interrup
 512:Drivers/STM32F7xx_HAL_Driver/Inc/stm32f7xx_ll_tim.h **** #define LL_TIM_SR_COMIF                        TIM_SR_COMIF         /*!< COM interrupt flag */
 513:Drivers/STM32F7xx_HAL_Driver/Inc/stm32f7xx_ll_tim.h **** #define LL_TIM_SR_TIF                          TIM_SR_TIF           /*!< Trigger interrupt flag */
 514:Drivers/STM32F7xx_HAL_Driver/Inc/stm32f7xx_ll_tim.h **** #define LL_TIM_SR_BIF                          TIM_SR_BIF           /*!< Break interrupt flag */
 515:Drivers/STM32F7xx_HAL_Driver/Inc/stm32f7xx_ll_tim.h **** #define LL_TIM_SR_B2IF                         TIM_SR_B2IF          /*!< Second break interrupt fla
ARM GAS  C:\Users\Giorgio\AppData\Local\Temp\cc3JIPZT.s 			page 15


 516:Drivers/STM32F7xx_HAL_Driver/Inc/stm32f7xx_ll_tim.h **** #define LL_TIM_SR_CC1OF                        TIM_SR_CC1OF         /*!< Capture/Compare 1 overcapt
 517:Drivers/STM32F7xx_HAL_Driver/Inc/stm32f7xx_ll_tim.h **** #define LL_TIM_SR_CC2OF                        TIM_SR_CC2OF         /*!< Capture/Compare 2 overcapt
 518:Drivers/STM32F7xx_HAL_Driver/Inc/stm32f7xx_ll_tim.h **** #define LL_TIM_SR_CC3OF                        TIM_SR_CC3OF         /*!< Capture/Compare 3 overcapt
 519:Drivers/STM32F7xx_HAL_Driver/Inc/stm32f7xx_ll_tim.h **** #define LL_TIM_SR_CC4OF                        TIM_SR_CC4OF         /*!< Capture/Compare 4 overcapt
 520:Drivers/STM32F7xx_HAL_Driver/Inc/stm32f7xx_ll_tim.h **** #define LL_TIM_SR_SBIF                         TIM_SR_SBIF          /*!< System Break interrupt fla
 521:Drivers/STM32F7xx_HAL_Driver/Inc/stm32f7xx_ll_tim.h **** /**
 522:Drivers/STM32F7xx_HAL_Driver/Inc/stm32f7xx_ll_tim.h ****   * @}
 523:Drivers/STM32F7xx_HAL_Driver/Inc/stm32f7xx_ll_tim.h ****   */
 524:Drivers/STM32F7xx_HAL_Driver/Inc/stm32f7xx_ll_tim.h **** 
 525:Drivers/STM32F7xx_HAL_Driver/Inc/stm32f7xx_ll_tim.h **** #if defined(USE_FULL_LL_DRIVER)
 526:Drivers/STM32F7xx_HAL_Driver/Inc/stm32f7xx_ll_tim.h **** /** @defgroup TIM_LL_EC_BREAK_ENABLE Break Enable
 527:Drivers/STM32F7xx_HAL_Driver/Inc/stm32f7xx_ll_tim.h ****   * @{
 528:Drivers/STM32F7xx_HAL_Driver/Inc/stm32f7xx_ll_tim.h ****   */
 529:Drivers/STM32F7xx_HAL_Driver/Inc/stm32f7xx_ll_tim.h **** #define LL_TIM_BREAK_DISABLE            0x00000000U             /*!< Break function disabled */
 530:Drivers/STM32F7xx_HAL_Driver/Inc/stm32f7xx_ll_tim.h **** #define LL_TIM_BREAK_ENABLE             TIM_BDTR_BKE            /*!< Break function enabled */
 531:Drivers/STM32F7xx_HAL_Driver/Inc/stm32f7xx_ll_tim.h **** /**
 532:Drivers/STM32F7xx_HAL_Driver/Inc/stm32f7xx_ll_tim.h ****   * @}
 533:Drivers/STM32F7xx_HAL_Driver/Inc/stm32f7xx_ll_tim.h ****   */
 534:Drivers/STM32F7xx_HAL_Driver/Inc/stm32f7xx_ll_tim.h **** 
 535:Drivers/STM32F7xx_HAL_Driver/Inc/stm32f7xx_ll_tim.h **** /** @defgroup TIM_LL_EC_BREAK2_ENABLE Break2 Enable
 536:Drivers/STM32F7xx_HAL_Driver/Inc/stm32f7xx_ll_tim.h ****   * @{
 537:Drivers/STM32F7xx_HAL_Driver/Inc/stm32f7xx_ll_tim.h ****   */
 538:Drivers/STM32F7xx_HAL_Driver/Inc/stm32f7xx_ll_tim.h **** #define LL_TIM_BREAK2_DISABLE            0x00000000U              /*!< Break2 function disabled */
 539:Drivers/STM32F7xx_HAL_Driver/Inc/stm32f7xx_ll_tim.h **** #define LL_TIM_BREAK2_ENABLE             TIM_BDTR_BK2E            /*!< Break2 function enabled */
 540:Drivers/STM32F7xx_HAL_Driver/Inc/stm32f7xx_ll_tim.h **** /**
 541:Drivers/STM32F7xx_HAL_Driver/Inc/stm32f7xx_ll_tim.h ****   * @}
 542:Drivers/STM32F7xx_HAL_Driver/Inc/stm32f7xx_ll_tim.h ****   */
 543:Drivers/STM32F7xx_HAL_Driver/Inc/stm32f7xx_ll_tim.h **** 
 544:Drivers/STM32F7xx_HAL_Driver/Inc/stm32f7xx_ll_tim.h **** /** @defgroup TIM_LL_EC_AUTOMATICOUTPUT_ENABLE Automatic output enable
 545:Drivers/STM32F7xx_HAL_Driver/Inc/stm32f7xx_ll_tim.h ****   * @{
 546:Drivers/STM32F7xx_HAL_Driver/Inc/stm32f7xx_ll_tim.h ****   */
 547:Drivers/STM32F7xx_HAL_Driver/Inc/stm32f7xx_ll_tim.h **** #define LL_TIM_AUTOMATICOUTPUT_DISABLE         0x00000000U             /*!< MOE can be set only by 
 548:Drivers/STM32F7xx_HAL_Driver/Inc/stm32f7xx_ll_tim.h **** #define LL_TIM_AUTOMATICOUTPUT_ENABLE          TIM_BDTR_AOE            /*!< MOE can be set by softw
 549:Drivers/STM32F7xx_HAL_Driver/Inc/stm32f7xx_ll_tim.h **** /**
 550:Drivers/STM32F7xx_HAL_Driver/Inc/stm32f7xx_ll_tim.h ****   * @}
 551:Drivers/STM32F7xx_HAL_Driver/Inc/stm32f7xx_ll_tim.h ****   */
 552:Drivers/STM32F7xx_HAL_Driver/Inc/stm32f7xx_ll_tim.h **** #endif /* USE_FULL_LL_DRIVER */
 553:Drivers/STM32F7xx_HAL_Driver/Inc/stm32f7xx_ll_tim.h **** 
 554:Drivers/STM32F7xx_HAL_Driver/Inc/stm32f7xx_ll_tim.h **** /** @defgroup TIM_LL_EC_IT IT Defines
 555:Drivers/STM32F7xx_HAL_Driver/Inc/stm32f7xx_ll_tim.h ****   * @brief    IT defines which can be used with LL_TIM_ReadReg and  LL_TIM_WriteReg functions.
 556:Drivers/STM32F7xx_HAL_Driver/Inc/stm32f7xx_ll_tim.h ****   * @{
 557:Drivers/STM32F7xx_HAL_Driver/Inc/stm32f7xx_ll_tim.h ****   */
 558:Drivers/STM32F7xx_HAL_Driver/Inc/stm32f7xx_ll_tim.h **** #define LL_TIM_DIER_UIE                        TIM_DIER_UIE         /*!< Update interrupt enable */
 559:Drivers/STM32F7xx_HAL_Driver/Inc/stm32f7xx_ll_tim.h **** #define LL_TIM_DIER_CC1IE                      TIM_DIER_CC1IE       /*!< Capture/compare 1 interrup
 560:Drivers/STM32F7xx_HAL_Driver/Inc/stm32f7xx_ll_tim.h **** #define LL_TIM_DIER_CC2IE                      TIM_DIER_CC2IE       /*!< Capture/compare 2 interrup
 561:Drivers/STM32F7xx_HAL_Driver/Inc/stm32f7xx_ll_tim.h **** #define LL_TIM_DIER_CC3IE                      TIM_DIER_CC3IE       /*!< Capture/compare 3 interrup
 562:Drivers/STM32F7xx_HAL_Driver/Inc/stm32f7xx_ll_tim.h **** #define LL_TIM_DIER_CC4IE                      TIM_DIER_CC4IE       /*!< Capture/compare 4 interrup
 563:Drivers/STM32F7xx_HAL_Driver/Inc/stm32f7xx_ll_tim.h **** #define LL_TIM_DIER_COMIE                      TIM_DIER_COMIE       /*!< COM interrupt enable */
 564:Drivers/STM32F7xx_HAL_Driver/Inc/stm32f7xx_ll_tim.h **** #define LL_TIM_DIER_TIE                        TIM_DIER_TIE         /*!< Trigger interrupt enable *
 565:Drivers/STM32F7xx_HAL_Driver/Inc/stm32f7xx_ll_tim.h **** #define LL_TIM_DIER_BIE                        TIM_DIER_BIE         /*!< Break interrupt enable */
 566:Drivers/STM32F7xx_HAL_Driver/Inc/stm32f7xx_ll_tim.h **** /**
 567:Drivers/STM32F7xx_HAL_Driver/Inc/stm32f7xx_ll_tim.h ****   * @}
 568:Drivers/STM32F7xx_HAL_Driver/Inc/stm32f7xx_ll_tim.h ****   */
 569:Drivers/STM32F7xx_HAL_Driver/Inc/stm32f7xx_ll_tim.h **** 
 570:Drivers/STM32F7xx_HAL_Driver/Inc/stm32f7xx_ll_tim.h **** /** @defgroup TIM_LL_EC_UPDATESOURCE Update Source
 571:Drivers/STM32F7xx_HAL_Driver/Inc/stm32f7xx_ll_tim.h ****   * @{
 572:Drivers/STM32F7xx_HAL_Driver/Inc/stm32f7xx_ll_tim.h ****   */
ARM GAS  C:\Users\Giorgio\AppData\Local\Temp\cc3JIPZT.s 			page 16


 573:Drivers/STM32F7xx_HAL_Driver/Inc/stm32f7xx_ll_tim.h **** #define LL_TIM_UPDATESOURCE_REGULAR            0x00000000U          /*!< Counter overflow/underflow
 574:Drivers/STM32F7xx_HAL_Driver/Inc/stm32f7xx_ll_tim.h **** #define LL_TIM_UPDATESOURCE_COUNTER            TIM_CR1_URS          /*!< Only counter overflow/unde
 575:Drivers/STM32F7xx_HAL_Driver/Inc/stm32f7xx_ll_tim.h **** /**
 576:Drivers/STM32F7xx_HAL_Driver/Inc/stm32f7xx_ll_tim.h ****   * @}
 577:Drivers/STM32F7xx_HAL_Driver/Inc/stm32f7xx_ll_tim.h ****   */
 578:Drivers/STM32F7xx_HAL_Driver/Inc/stm32f7xx_ll_tim.h **** 
 579:Drivers/STM32F7xx_HAL_Driver/Inc/stm32f7xx_ll_tim.h **** /** @defgroup TIM_LL_EC_ONEPULSEMODE One Pulse Mode
 580:Drivers/STM32F7xx_HAL_Driver/Inc/stm32f7xx_ll_tim.h ****   * @{
 581:Drivers/STM32F7xx_HAL_Driver/Inc/stm32f7xx_ll_tim.h ****   */
 582:Drivers/STM32F7xx_HAL_Driver/Inc/stm32f7xx_ll_tim.h **** #define LL_TIM_ONEPULSEMODE_SINGLE             TIM_CR1_OPM          /*!< Counter is not stopped at 
 583:Drivers/STM32F7xx_HAL_Driver/Inc/stm32f7xx_ll_tim.h **** #define LL_TIM_ONEPULSEMODE_REPETITIVE         0x00000000U          /*!< Counter stops counting at 
 584:Drivers/STM32F7xx_HAL_Driver/Inc/stm32f7xx_ll_tim.h **** /**
 585:Drivers/STM32F7xx_HAL_Driver/Inc/stm32f7xx_ll_tim.h ****   * @}
 586:Drivers/STM32F7xx_HAL_Driver/Inc/stm32f7xx_ll_tim.h ****   */
 587:Drivers/STM32F7xx_HAL_Driver/Inc/stm32f7xx_ll_tim.h **** 
 588:Drivers/STM32F7xx_HAL_Driver/Inc/stm32f7xx_ll_tim.h **** /** @defgroup TIM_LL_EC_COUNTERMODE Counter Mode
 589:Drivers/STM32F7xx_HAL_Driver/Inc/stm32f7xx_ll_tim.h ****   * @{
 590:Drivers/STM32F7xx_HAL_Driver/Inc/stm32f7xx_ll_tim.h ****   */
 591:Drivers/STM32F7xx_HAL_Driver/Inc/stm32f7xx_ll_tim.h **** #define LL_TIM_COUNTERMODE_UP                  0x00000000U          /*!<Counter used as upcounter *
 592:Drivers/STM32F7xx_HAL_Driver/Inc/stm32f7xx_ll_tim.h **** #define LL_TIM_COUNTERMODE_DOWN                TIM_CR1_DIR          /*!< Counter used as downcounte
 593:Drivers/STM32F7xx_HAL_Driver/Inc/stm32f7xx_ll_tim.h **** #define LL_TIM_COUNTERMODE_CENTER_UP           TIM_CR1_CMS_0        /*!< The counter counts up and 
 594:Drivers/STM32F7xx_HAL_Driver/Inc/stm32f7xx_ll_tim.h **** #define LL_TIM_COUNTERMODE_CENTER_DOWN         TIM_CR1_CMS_1        /*!<The counter counts up and d
 595:Drivers/STM32F7xx_HAL_Driver/Inc/stm32f7xx_ll_tim.h **** #define LL_TIM_COUNTERMODE_CENTER_UP_DOWN      TIM_CR1_CMS          /*!< The counter counts up and 
 596:Drivers/STM32F7xx_HAL_Driver/Inc/stm32f7xx_ll_tim.h **** /**
 597:Drivers/STM32F7xx_HAL_Driver/Inc/stm32f7xx_ll_tim.h ****   * @}
 598:Drivers/STM32F7xx_HAL_Driver/Inc/stm32f7xx_ll_tim.h ****   */
 599:Drivers/STM32F7xx_HAL_Driver/Inc/stm32f7xx_ll_tim.h **** 
 600:Drivers/STM32F7xx_HAL_Driver/Inc/stm32f7xx_ll_tim.h **** /** @defgroup TIM_LL_EC_CLOCKDIVISION Clock Division
 601:Drivers/STM32F7xx_HAL_Driver/Inc/stm32f7xx_ll_tim.h ****   * @{
 602:Drivers/STM32F7xx_HAL_Driver/Inc/stm32f7xx_ll_tim.h ****   */
 603:Drivers/STM32F7xx_HAL_Driver/Inc/stm32f7xx_ll_tim.h **** #define LL_TIM_CLOCKDIVISION_DIV1              0x00000000U          /*!< tDTS=tCK_INT */
 604:Drivers/STM32F7xx_HAL_Driver/Inc/stm32f7xx_ll_tim.h **** #define LL_TIM_CLOCKDIVISION_DIV2              TIM_CR1_CKD_0        /*!< tDTS=2*tCK_INT */
 605:Drivers/STM32F7xx_HAL_Driver/Inc/stm32f7xx_ll_tim.h **** #define LL_TIM_CLOCKDIVISION_DIV4              TIM_CR1_CKD_1        /*!< tDTS=4*tCK_INT */
 606:Drivers/STM32F7xx_HAL_Driver/Inc/stm32f7xx_ll_tim.h **** /**
 607:Drivers/STM32F7xx_HAL_Driver/Inc/stm32f7xx_ll_tim.h ****   * @}
 608:Drivers/STM32F7xx_HAL_Driver/Inc/stm32f7xx_ll_tim.h ****   */
 609:Drivers/STM32F7xx_HAL_Driver/Inc/stm32f7xx_ll_tim.h **** 
 610:Drivers/STM32F7xx_HAL_Driver/Inc/stm32f7xx_ll_tim.h **** /** @defgroup TIM_LL_EC_COUNTERDIRECTION Counter Direction
 611:Drivers/STM32F7xx_HAL_Driver/Inc/stm32f7xx_ll_tim.h ****   * @{
 612:Drivers/STM32F7xx_HAL_Driver/Inc/stm32f7xx_ll_tim.h ****   */
 613:Drivers/STM32F7xx_HAL_Driver/Inc/stm32f7xx_ll_tim.h **** #define LL_TIM_COUNTERDIRECTION_UP             0x00000000U          /*!< Timer counter counts up */
 614:Drivers/STM32F7xx_HAL_Driver/Inc/stm32f7xx_ll_tim.h **** #define LL_TIM_COUNTERDIRECTION_DOWN           TIM_CR1_DIR          /*!< Timer counter counts down 
 615:Drivers/STM32F7xx_HAL_Driver/Inc/stm32f7xx_ll_tim.h **** /**
 616:Drivers/STM32F7xx_HAL_Driver/Inc/stm32f7xx_ll_tim.h ****   * @}
 617:Drivers/STM32F7xx_HAL_Driver/Inc/stm32f7xx_ll_tim.h ****   */
 618:Drivers/STM32F7xx_HAL_Driver/Inc/stm32f7xx_ll_tim.h **** 
 619:Drivers/STM32F7xx_HAL_Driver/Inc/stm32f7xx_ll_tim.h **** /** @defgroup TIM_LL_EC_CCUPDATESOURCE Capture Compare  Update Source
 620:Drivers/STM32F7xx_HAL_Driver/Inc/stm32f7xx_ll_tim.h ****   * @{
 621:Drivers/STM32F7xx_HAL_Driver/Inc/stm32f7xx_ll_tim.h ****   */
 622:Drivers/STM32F7xx_HAL_Driver/Inc/stm32f7xx_ll_tim.h **** #define LL_TIM_CCUPDATESOURCE_COMG_ONLY        0x00000000U          /*!< Capture/compare control bi
 623:Drivers/STM32F7xx_HAL_Driver/Inc/stm32f7xx_ll_tim.h **** #define LL_TIM_CCUPDATESOURCE_COMG_AND_TRGI    TIM_CR2_CCUS         /*!< Capture/compare control bi
 624:Drivers/STM32F7xx_HAL_Driver/Inc/stm32f7xx_ll_tim.h **** /**
 625:Drivers/STM32F7xx_HAL_Driver/Inc/stm32f7xx_ll_tim.h ****   * @}
 626:Drivers/STM32F7xx_HAL_Driver/Inc/stm32f7xx_ll_tim.h ****   */
 627:Drivers/STM32F7xx_HAL_Driver/Inc/stm32f7xx_ll_tim.h **** 
 628:Drivers/STM32F7xx_HAL_Driver/Inc/stm32f7xx_ll_tim.h **** /** @defgroup TIM_LL_EC_CCDMAREQUEST Capture Compare DMA Request
 629:Drivers/STM32F7xx_HAL_Driver/Inc/stm32f7xx_ll_tim.h ****   * @{
ARM GAS  C:\Users\Giorgio\AppData\Local\Temp\cc3JIPZT.s 			page 17


 630:Drivers/STM32F7xx_HAL_Driver/Inc/stm32f7xx_ll_tim.h ****   */
 631:Drivers/STM32F7xx_HAL_Driver/Inc/stm32f7xx_ll_tim.h **** #define LL_TIM_CCDMAREQUEST_CC                 0x00000000U          /*!< CCx DMA request sent when 
 632:Drivers/STM32F7xx_HAL_Driver/Inc/stm32f7xx_ll_tim.h **** #define LL_TIM_CCDMAREQUEST_UPDATE             TIM_CR2_CCDS         /*!< CCx DMA requests sent when
 633:Drivers/STM32F7xx_HAL_Driver/Inc/stm32f7xx_ll_tim.h **** /**
 634:Drivers/STM32F7xx_HAL_Driver/Inc/stm32f7xx_ll_tim.h ****   * @}
 635:Drivers/STM32F7xx_HAL_Driver/Inc/stm32f7xx_ll_tim.h ****   */
 636:Drivers/STM32F7xx_HAL_Driver/Inc/stm32f7xx_ll_tim.h **** 
 637:Drivers/STM32F7xx_HAL_Driver/Inc/stm32f7xx_ll_tim.h **** /** @defgroup TIM_LL_EC_LOCKLEVEL Lock Level
 638:Drivers/STM32F7xx_HAL_Driver/Inc/stm32f7xx_ll_tim.h ****   * @{
 639:Drivers/STM32F7xx_HAL_Driver/Inc/stm32f7xx_ll_tim.h ****   */
 640:Drivers/STM32F7xx_HAL_Driver/Inc/stm32f7xx_ll_tim.h **** #define LL_TIM_LOCKLEVEL_OFF                   0x00000000U          /*!< LOCK OFF - No bit is write
 641:Drivers/STM32F7xx_HAL_Driver/Inc/stm32f7xx_ll_tim.h **** #define LL_TIM_LOCKLEVEL_1                     TIM_BDTR_LOCK_0      /*!< LOCK Level 1 */
 642:Drivers/STM32F7xx_HAL_Driver/Inc/stm32f7xx_ll_tim.h **** #define LL_TIM_LOCKLEVEL_2                     TIM_BDTR_LOCK_1      /*!< LOCK Level 2 */
 643:Drivers/STM32F7xx_HAL_Driver/Inc/stm32f7xx_ll_tim.h **** #define LL_TIM_LOCKLEVEL_3                     TIM_BDTR_LOCK        /*!< LOCK Level 3 */
 644:Drivers/STM32F7xx_HAL_Driver/Inc/stm32f7xx_ll_tim.h **** /**
 645:Drivers/STM32F7xx_HAL_Driver/Inc/stm32f7xx_ll_tim.h ****   * @}
 646:Drivers/STM32F7xx_HAL_Driver/Inc/stm32f7xx_ll_tim.h ****   */
 647:Drivers/STM32F7xx_HAL_Driver/Inc/stm32f7xx_ll_tim.h **** 
 648:Drivers/STM32F7xx_HAL_Driver/Inc/stm32f7xx_ll_tim.h **** /** @defgroup TIM_LL_EC_CHANNEL Channel
 649:Drivers/STM32F7xx_HAL_Driver/Inc/stm32f7xx_ll_tim.h ****   * @{
 650:Drivers/STM32F7xx_HAL_Driver/Inc/stm32f7xx_ll_tim.h ****   */
 651:Drivers/STM32F7xx_HAL_Driver/Inc/stm32f7xx_ll_tim.h **** #define LL_TIM_CHANNEL_CH1                     TIM_CCER_CC1E     /*!< Timer input/output channel 1 
 652:Drivers/STM32F7xx_HAL_Driver/Inc/stm32f7xx_ll_tim.h **** #define LL_TIM_CHANNEL_CH1N                    TIM_CCER_CC1NE    /*!< Timer complementary output ch
 653:Drivers/STM32F7xx_HAL_Driver/Inc/stm32f7xx_ll_tim.h **** #define LL_TIM_CHANNEL_CH2                     TIM_CCER_CC2E     /*!< Timer input/output channel 2 
 654:Drivers/STM32F7xx_HAL_Driver/Inc/stm32f7xx_ll_tim.h **** #define LL_TIM_CHANNEL_CH2N                    TIM_CCER_CC2NE    /*!< Timer complementary output ch
 655:Drivers/STM32F7xx_HAL_Driver/Inc/stm32f7xx_ll_tim.h **** #define LL_TIM_CHANNEL_CH3                     TIM_CCER_CC3E     /*!< Timer input/output channel 3 
 656:Drivers/STM32F7xx_HAL_Driver/Inc/stm32f7xx_ll_tim.h **** #define LL_TIM_CHANNEL_CH3N                    TIM_CCER_CC3NE    /*!< Timer complementary output ch
 657:Drivers/STM32F7xx_HAL_Driver/Inc/stm32f7xx_ll_tim.h **** #define LL_TIM_CHANNEL_CH4                     TIM_CCER_CC4E     /*!< Timer input/output channel 4 
 658:Drivers/STM32F7xx_HAL_Driver/Inc/stm32f7xx_ll_tim.h **** #define LL_TIM_CHANNEL_CH5                     TIM_CCER_CC5E     /*!< Timer output channel 5 */
 659:Drivers/STM32F7xx_HAL_Driver/Inc/stm32f7xx_ll_tim.h **** #define LL_TIM_CHANNEL_CH6                     TIM_CCER_CC6E     /*!< Timer output channel 6 */
 660:Drivers/STM32F7xx_HAL_Driver/Inc/stm32f7xx_ll_tim.h **** /**
 661:Drivers/STM32F7xx_HAL_Driver/Inc/stm32f7xx_ll_tim.h ****   * @}
 662:Drivers/STM32F7xx_HAL_Driver/Inc/stm32f7xx_ll_tim.h ****   */
 663:Drivers/STM32F7xx_HAL_Driver/Inc/stm32f7xx_ll_tim.h **** 
 664:Drivers/STM32F7xx_HAL_Driver/Inc/stm32f7xx_ll_tim.h **** #if defined(USE_FULL_LL_DRIVER)
 665:Drivers/STM32F7xx_HAL_Driver/Inc/stm32f7xx_ll_tim.h **** /** @defgroup TIM_LL_EC_OCSTATE Output Configuration State
 666:Drivers/STM32F7xx_HAL_Driver/Inc/stm32f7xx_ll_tim.h ****   * @{
 667:Drivers/STM32F7xx_HAL_Driver/Inc/stm32f7xx_ll_tim.h ****   */
 668:Drivers/STM32F7xx_HAL_Driver/Inc/stm32f7xx_ll_tim.h **** #define LL_TIM_OCSTATE_DISABLE                 0x00000000U             /*!< OCx is not active */
 669:Drivers/STM32F7xx_HAL_Driver/Inc/stm32f7xx_ll_tim.h **** #define LL_TIM_OCSTATE_ENABLE                  TIM_CCER_CC1E           /*!< OCx signal is output on
 670:Drivers/STM32F7xx_HAL_Driver/Inc/stm32f7xx_ll_tim.h **** /**
 671:Drivers/STM32F7xx_HAL_Driver/Inc/stm32f7xx_ll_tim.h ****   * @}
 672:Drivers/STM32F7xx_HAL_Driver/Inc/stm32f7xx_ll_tim.h ****   */
 673:Drivers/STM32F7xx_HAL_Driver/Inc/stm32f7xx_ll_tim.h **** #endif /* USE_FULL_LL_DRIVER */
 674:Drivers/STM32F7xx_HAL_Driver/Inc/stm32f7xx_ll_tim.h **** 
 675:Drivers/STM32F7xx_HAL_Driver/Inc/stm32f7xx_ll_tim.h **** /** @defgroup TIM_LL_EC_OCMODE Output Configuration Mode
 676:Drivers/STM32F7xx_HAL_Driver/Inc/stm32f7xx_ll_tim.h ****   * @{
 677:Drivers/STM32F7xx_HAL_Driver/Inc/stm32f7xx_ll_tim.h ****   */
 678:Drivers/STM32F7xx_HAL_Driver/Inc/stm32f7xx_ll_tim.h **** #define LL_TIM_OCMODE_FROZEN                   0x00000000U                                         
 679:Drivers/STM32F7xx_HAL_Driver/Inc/stm32f7xx_ll_tim.h **** #define LL_TIM_OCMODE_ACTIVE                   TIM_CCMR1_OC1M_0                                    
 680:Drivers/STM32F7xx_HAL_Driver/Inc/stm32f7xx_ll_tim.h **** #define LL_TIM_OCMODE_INACTIVE                 TIM_CCMR1_OC1M_1                                    
 681:Drivers/STM32F7xx_HAL_Driver/Inc/stm32f7xx_ll_tim.h **** #define LL_TIM_OCMODE_TOGGLE                   (TIM_CCMR1_OC1M_1 | TIM_CCMR1_OC1M_0)               
 682:Drivers/STM32F7xx_HAL_Driver/Inc/stm32f7xx_ll_tim.h **** #define LL_TIM_OCMODE_FORCED_INACTIVE          TIM_CCMR1_OC1M_2                                    
 683:Drivers/STM32F7xx_HAL_Driver/Inc/stm32f7xx_ll_tim.h **** #define LL_TIM_OCMODE_FORCED_ACTIVE            (TIM_CCMR1_OC1M_2 | TIM_CCMR1_OC1M_0)               
 684:Drivers/STM32F7xx_HAL_Driver/Inc/stm32f7xx_ll_tim.h **** #define LL_TIM_OCMODE_PWM1                     (TIM_CCMR1_OC1M_2 | TIM_CCMR1_OC1M_1)               
 685:Drivers/STM32F7xx_HAL_Driver/Inc/stm32f7xx_ll_tim.h **** #define LL_TIM_OCMODE_PWM2                     (TIM_CCMR1_OC1M_2 | TIM_CCMR1_OC1M_1 | TIM_CCMR1_OC1
 686:Drivers/STM32F7xx_HAL_Driver/Inc/stm32f7xx_ll_tim.h **** #define LL_TIM_OCMODE_RETRIG_OPM1              TIM_CCMR1_OC1M_3                                    
ARM GAS  C:\Users\Giorgio\AppData\Local\Temp\cc3JIPZT.s 			page 18


 687:Drivers/STM32F7xx_HAL_Driver/Inc/stm32f7xx_ll_tim.h **** #define LL_TIM_OCMODE_RETRIG_OPM2              (TIM_CCMR1_OC1M_3 | TIM_CCMR1_OC1M_0)               
 688:Drivers/STM32F7xx_HAL_Driver/Inc/stm32f7xx_ll_tim.h **** #define LL_TIM_OCMODE_COMBINED_PWM1            (TIM_CCMR1_OC1M_3 | TIM_CCMR1_OC1M_2)               
 689:Drivers/STM32F7xx_HAL_Driver/Inc/stm32f7xx_ll_tim.h **** #define LL_TIM_OCMODE_COMBINED_PWM2            (TIM_CCMR1_OC1M_3 | TIM_CCMR1_OC1M_0 | TIM_CCMR1_OC1
 690:Drivers/STM32F7xx_HAL_Driver/Inc/stm32f7xx_ll_tim.h **** #define LL_TIM_OCMODE_ASSYMETRIC_PWM1          (TIM_CCMR1_OC1M_3 | TIM_CCMR1_OC1M_1 | TIM_CCMR1_OC1
 691:Drivers/STM32F7xx_HAL_Driver/Inc/stm32f7xx_ll_tim.h **** #define LL_TIM_OCMODE_ASSYMETRIC_PWM2          (TIM_CCMR1_OC1M_3 | TIM_CCMR1_OC1M)                 
 692:Drivers/STM32F7xx_HAL_Driver/Inc/stm32f7xx_ll_tim.h **** /**
 693:Drivers/STM32F7xx_HAL_Driver/Inc/stm32f7xx_ll_tim.h ****   * @}
 694:Drivers/STM32F7xx_HAL_Driver/Inc/stm32f7xx_ll_tim.h ****   */
 695:Drivers/STM32F7xx_HAL_Driver/Inc/stm32f7xx_ll_tim.h **** 
 696:Drivers/STM32F7xx_HAL_Driver/Inc/stm32f7xx_ll_tim.h **** /** @defgroup TIM_LL_EC_OCPOLARITY Output Configuration Polarity
 697:Drivers/STM32F7xx_HAL_Driver/Inc/stm32f7xx_ll_tim.h ****   * @{
 698:Drivers/STM32F7xx_HAL_Driver/Inc/stm32f7xx_ll_tim.h ****   */
 699:Drivers/STM32F7xx_HAL_Driver/Inc/stm32f7xx_ll_tim.h **** #define LL_TIM_OCPOLARITY_HIGH                 0x00000000U                 /*!< OCxactive high*/
 700:Drivers/STM32F7xx_HAL_Driver/Inc/stm32f7xx_ll_tim.h **** #define LL_TIM_OCPOLARITY_LOW                  TIM_CCER_CC1P               /*!< OCxactive low*/
 701:Drivers/STM32F7xx_HAL_Driver/Inc/stm32f7xx_ll_tim.h **** /**
 702:Drivers/STM32F7xx_HAL_Driver/Inc/stm32f7xx_ll_tim.h ****   * @}
 703:Drivers/STM32F7xx_HAL_Driver/Inc/stm32f7xx_ll_tim.h ****   */
 704:Drivers/STM32F7xx_HAL_Driver/Inc/stm32f7xx_ll_tim.h **** 
 705:Drivers/STM32F7xx_HAL_Driver/Inc/stm32f7xx_ll_tim.h **** /** @defgroup TIM_LL_EC_OCIDLESTATE Output Configuration Idle State
 706:Drivers/STM32F7xx_HAL_Driver/Inc/stm32f7xx_ll_tim.h ****   * @{
 707:Drivers/STM32F7xx_HAL_Driver/Inc/stm32f7xx_ll_tim.h ****   */
 708:Drivers/STM32F7xx_HAL_Driver/Inc/stm32f7xx_ll_tim.h **** #define LL_TIM_OCIDLESTATE_LOW                 0x00000000U             /*!<OCx=0 (after a dead-time
 709:Drivers/STM32F7xx_HAL_Driver/Inc/stm32f7xx_ll_tim.h **** #define LL_TIM_OCIDLESTATE_HIGH                TIM_CR2_OIS1            /*!<OCx=1 (after a dead-time
 710:Drivers/STM32F7xx_HAL_Driver/Inc/stm32f7xx_ll_tim.h **** /**
 711:Drivers/STM32F7xx_HAL_Driver/Inc/stm32f7xx_ll_tim.h ****   * @}
 712:Drivers/STM32F7xx_HAL_Driver/Inc/stm32f7xx_ll_tim.h ****   */
 713:Drivers/STM32F7xx_HAL_Driver/Inc/stm32f7xx_ll_tim.h **** 
 714:Drivers/STM32F7xx_HAL_Driver/Inc/stm32f7xx_ll_tim.h **** /** @defgroup TIM_LL_EC_GROUPCH5 GROUPCH5
 715:Drivers/STM32F7xx_HAL_Driver/Inc/stm32f7xx_ll_tim.h ****   * @{
 716:Drivers/STM32F7xx_HAL_Driver/Inc/stm32f7xx_ll_tim.h ****   */
 717:Drivers/STM32F7xx_HAL_Driver/Inc/stm32f7xx_ll_tim.h **** #define LL_TIM_GROUPCH5_NONE                   0x00000000U           /*!< No effect of OC5REF on OC
 718:Drivers/STM32F7xx_HAL_Driver/Inc/stm32f7xx_ll_tim.h **** #define LL_TIM_GROUPCH5_OC1REFC                TIM_CCR5_GC5C1        /*!< OC1REFC is the logical AN
 719:Drivers/STM32F7xx_HAL_Driver/Inc/stm32f7xx_ll_tim.h **** #define LL_TIM_GROUPCH5_OC2REFC                TIM_CCR5_GC5C2        /*!< OC2REFC is the logical AN
 720:Drivers/STM32F7xx_HAL_Driver/Inc/stm32f7xx_ll_tim.h **** #define LL_TIM_GROUPCH5_OC3REFC                TIM_CCR5_GC5C3        /*!< OC3REFC is the logical AN
 721:Drivers/STM32F7xx_HAL_Driver/Inc/stm32f7xx_ll_tim.h **** /**
 722:Drivers/STM32F7xx_HAL_Driver/Inc/stm32f7xx_ll_tim.h ****   * @}
 723:Drivers/STM32F7xx_HAL_Driver/Inc/stm32f7xx_ll_tim.h ****   */
 724:Drivers/STM32F7xx_HAL_Driver/Inc/stm32f7xx_ll_tim.h **** 
 725:Drivers/STM32F7xx_HAL_Driver/Inc/stm32f7xx_ll_tim.h **** /** @defgroup TIM_LL_EC_ACTIVEINPUT Active Input Selection
 726:Drivers/STM32F7xx_HAL_Driver/Inc/stm32f7xx_ll_tim.h ****   * @{
 727:Drivers/STM32F7xx_HAL_Driver/Inc/stm32f7xx_ll_tim.h ****   */
 728:Drivers/STM32F7xx_HAL_Driver/Inc/stm32f7xx_ll_tim.h **** #define LL_TIM_ACTIVEINPUT_DIRECTTI            (TIM_CCMR1_CC1S_0 << 16U) /*!< ICx is mapped on TIx 
 729:Drivers/STM32F7xx_HAL_Driver/Inc/stm32f7xx_ll_tim.h **** #define LL_TIM_ACTIVEINPUT_INDIRECTTI          (TIM_CCMR1_CC1S_1 << 16U) /*!< ICx is mapped on TIy 
 730:Drivers/STM32F7xx_HAL_Driver/Inc/stm32f7xx_ll_tim.h **** #define LL_TIM_ACTIVEINPUT_TRC                 (TIM_CCMR1_CC1S << 16U)   /*!< ICx is mapped on TRC 
 731:Drivers/STM32F7xx_HAL_Driver/Inc/stm32f7xx_ll_tim.h **** /**
 732:Drivers/STM32F7xx_HAL_Driver/Inc/stm32f7xx_ll_tim.h ****   * @}
 733:Drivers/STM32F7xx_HAL_Driver/Inc/stm32f7xx_ll_tim.h ****   */
 734:Drivers/STM32F7xx_HAL_Driver/Inc/stm32f7xx_ll_tim.h **** 
 735:Drivers/STM32F7xx_HAL_Driver/Inc/stm32f7xx_ll_tim.h **** /** @defgroup TIM_LL_EC_ICPSC Input Configuration Prescaler
 736:Drivers/STM32F7xx_HAL_Driver/Inc/stm32f7xx_ll_tim.h ****   * @{
 737:Drivers/STM32F7xx_HAL_Driver/Inc/stm32f7xx_ll_tim.h ****   */
 738:Drivers/STM32F7xx_HAL_Driver/Inc/stm32f7xx_ll_tim.h **** #define LL_TIM_ICPSC_DIV1                      0x00000000U                    /*!< No prescaler, ca
 739:Drivers/STM32F7xx_HAL_Driver/Inc/stm32f7xx_ll_tim.h **** #define LL_TIM_ICPSC_DIV2                      (TIM_CCMR1_IC1PSC_0 << 16U)    /*!< Capture is done 
 740:Drivers/STM32F7xx_HAL_Driver/Inc/stm32f7xx_ll_tim.h **** #define LL_TIM_ICPSC_DIV4                      (TIM_CCMR1_IC1PSC_1 << 16U)    /*!< Capture is done 
 741:Drivers/STM32F7xx_HAL_Driver/Inc/stm32f7xx_ll_tim.h **** #define LL_TIM_ICPSC_DIV8                      (TIM_CCMR1_IC1PSC << 16U)      /*!< Capture is done 
 742:Drivers/STM32F7xx_HAL_Driver/Inc/stm32f7xx_ll_tim.h **** /**
 743:Drivers/STM32F7xx_HAL_Driver/Inc/stm32f7xx_ll_tim.h ****   * @}
ARM GAS  C:\Users\Giorgio\AppData\Local\Temp\cc3JIPZT.s 			page 19


 744:Drivers/STM32F7xx_HAL_Driver/Inc/stm32f7xx_ll_tim.h ****   */
 745:Drivers/STM32F7xx_HAL_Driver/Inc/stm32f7xx_ll_tim.h **** 
 746:Drivers/STM32F7xx_HAL_Driver/Inc/stm32f7xx_ll_tim.h **** /** @defgroup TIM_LL_EC_IC_FILTER Input Configuration Filter
 747:Drivers/STM32F7xx_HAL_Driver/Inc/stm32f7xx_ll_tim.h ****   * @{
 748:Drivers/STM32F7xx_HAL_Driver/Inc/stm32f7xx_ll_tim.h ****   */
 749:Drivers/STM32F7xx_HAL_Driver/Inc/stm32f7xx_ll_tim.h **** #define LL_TIM_IC_FILTER_FDIV1                 0x00000000U                                         
 750:Drivers/STM32F7xx_HAL_Driver/Inc/stm32f7xx_ll_tim.h **** #define LL_TIM_IC_FILTER_FDIV1_N2              (TIM_CCMR1_IC1F_0 << 16U)                           
 751:Drivers/STM32F7xx_HAL_Driver/Inc/stm32f7xx_ll_tim.h **** #define LL_TIM_IC_FILTER_FDIV1_N4              (TIM_CCMR1_IC1F_1 << 16U)                           
 752:Drivers/STM32F7xx_HAL_Driver/Inc/stm32f7xx_ll_tim.h **** #define LL_TIM_IC_FILTER_FDIV1_N8              ((TIM_CCMR1_IC1F_1 | TIM_CCMR1_IC1F_0) << 16U)      
 753:Drivers/STM32F7xx_HAL_Driver/Inc/stm32f7xx_ll_tim.h **** #define LL_TIM_IC_FILTER_FDIV2_N6              (TIM_CCMR1_IC1F_2 << 16U)                           
 754:Drivers/STM32F7xx_HAL_Driver/Inc/stm32f7xx_ll_tim.h **** #define LL_TIM_IC_FILTER_FDIV2_N8              ((TIM_CCMR1_IC1F_2 | TIM_CCMR1_IC1F_0) << 16U)      
 755:Drivers/STM32F7xx_HAL_Driver/Inc/stm32f7xx_ll_tim.h **** #define LL_TIM_IC_FILTER_FDIV4_N6              ((TIM_CCMR1_IC1F_2 | TIM_CCMR1_IC1F_1) << 16U)      
 756:Drivers/STM32F7xx_HAL_Driver/Inc/stm32f7xx_ll_tim.h **** #define LL_TIM_IC_FILTER_FDIV4_N8              ((TIM_CCMR1_IC1F_2 | TIM_CCMR1_IC1F_1 | TIM_CCMR1_IC
 757:Drivers/STM32F7xx_HAL_Driver/Inc/stm32f7xx_ll_tim.h **** #define LL_TIM_IC_FILTER_FDIV8_N6              (TIM_CCMR1_IC1F_3 << 16U)                           
 758:Drivers/STM32F7xx_HAL_Driver/Inc/stm32f7xx_ll_tim.h **** #define LL_TIM_IC_FILTER_FDIV8_N8              ((TIM_CCMR1_IC1F_3 | TIM_CCMR1_IC1F_0) << 16U)      
 759:Drivers/STM32F7xx_HAL_Driver/Inc/stm32f7xx_ll_tim.h **** #define LL_TIM_IC_FILTER_FDIV16_N5             ((TIM_CCMR1_IC1F_3 | TIM_CCMR1_IC1F_1) << 16U)      
 760:Drivers/STM32F7xx_HAL_Driver/Inc/stm32f7xx_ll_tim.h **** #define LL_TIM_IC_FILTER_FDIV16_N6             ((TIM_CCMR1_IC1F_3 | TIM_CCMR1_IC1F_1 | TIM_CCMR1_IC
 761:Drivers/STM32F7xx_HAL_Driver/Inc/stm32f7xx_ll_tim.h **** #define LL_TIM_IC_FILTER_FDIV16_N8             ((TIM_CCMR1_IC1F_3 | TIM_CCMR1_IC1F_2) << 16U)      
 762:Drivers/STM32F7xx_HAL_Driver/Inc/stm32f7xx_ll_tim.h **** #define LL_TIM_IC_FILTER_FDIV32_N5             ((TIM_CCMR1_IC1F_3 | TIM_CCMR1_IC1F_2 | TIM_CCMR1_IC
 763:Drivers/STM32F7xx_HAL_Driver/Inc/stm32f7xx_ll_tim.h **** #define LL_TIM_IC_FILTER_FDIV32_N6             ((TIM_CCMR1_IC1F_3 | TIM_CCMR1_IC1F_2 | TIM_CCMR1_IC
 764:Drivers/STM32F7xx_HAL_Driver/Inc/stm32f7xx_ll_tim.h **** #define LL_TIM_IC_FILTER_FDIV32_N8             (TIM_CCMR1_IC1F << 16U)                             
 765:Drivers/STM32F7xx_HAL_Driver/Inc/stm32f7xx_ll_tim.h **** /**
 766:Drivers/STM32F7xx_HAL_Driver/Inc/stm32f7xx_ll_tim.h ****   * @}
 767:Drivers/STM32F7xx_HAL_Driver/Inc/stm32f7xx_ll_tim.h ****   */
 768:Drivers/STM32F7xx_HAL_Driver/Inc/stm32f7xx_ll_tim.h **** 
 769:Drivers/STM32F7xx_HAL_Driver/Inc/stm32f7xx_ll_tim.h **** /** @defgroup TIM_LL_EC_IC_POLARITY Input Configuration Polarity
 770:Drivers/STM32F7xx_HAL_Driver/Inc/stm32f7xx_ll_tim.h ****   * @{
 771:Drivers/STM32F7xx_HAL_Driver/Inc/stm32f7xx_ll_tim.h ****   */
 772:Drivers/STM32F7xx_HAL_Driver/Inc/stm32f7xx_ll_tim.h **** #define LL_TIM_IC_POLARITY_RISING              0x00000000U                      /*!< The circuit is
 773:Drivers/STM32F7xx_HAL_Driver/Inc/stm32f7xx_ll_tim.h **** #define LL_TIM_IC_POLARITY_FALLING             TIM_CCER_CC1P                    /*!< The circuit is
 774:Drivers/STM32F7xx_HAL_Driver/Inc/stm32f7xx_ll_tim.h **** #define LL_TIM_IC_POLARITY_BOTHEDGE            (TIM_CCER_CC1P | TIM_CCER_CC1NP) /*!< The circuit is
 775:Drivers/STM32F7xx_HAL_Driver/Inc/stm32f7xx_ll_tim.h **** /**
 776:Drivers/STM32F7xx_HAL_Driver/Inc/stm32f7xx_ll_tim.h ****   * @}
 777:Drivers/STM32F7xx_HAL_Driver/Inc/stm32f7xx_ll_tim.h ****   */
 778:Drivers/STM32F7xx_HAL_Driver/Inc/stm32f7xx_ll_tim.h **** 
 779:Drivers/STM32F7xx_HAL_Driver/Inc/stm32f7xx_ll_tim.h **** /** @defgroup TIM_LL_EC_CLOCKSOURCE Clock Source
 780:Drivers/STM32F7xx_HAL_Driver/Inc/stm32f7xx_ll_tim.h ****   * @{
 781:Drivers/STM32F7xx_HAL_Driver/Inc/stm32f7xx_ll_tim.h ****   */
 782:Drivers/STM32F7xx_HAL_Driver/Inc/stm32f7xx_ll_tim.h **** #define LL_TIM_CLOCKSOURCE_INTERNAL            0x00000000U                                         
 783:Drivers/STM32F7xx_HAL_Driver/Inc/stm32f7xx_ll_tim.h **** #define LL_TIM_CLOCKSOURCE_EXT_MODE1           (TIM_SMCR_SMS_2 | TIM_SMCR_SMS_1 | TIM_SMCR_SMS_0)  
 784:Drivers/STM32F7xx_HAL_Driver/Inc/stm32f7xx_ll_tim.h **** #define LL_TIM_CLOCKSOURCE_EXT_MODE2           TIM_SMCR_ECE                                        
 785:Drivers/STM32F7xx_HAL_Driver/Inc/stm32f7xx_ll_tim.h **** /**
 786:Drivers/STM32F7xx_HAL_Driver/Inc/stm32f7xx_ll_tim.h ****   * @}
 787:Drivers/STM32F7xx_HAL_Driver/Inc/stm32f7xx_ll_tim.h ****   */
 788:Drivers/STM32F7xx_HAL_Driver/Inc/stm32f7xx_ll_tim.h **** 
 789:Drivers/STM32F7xx_HAL_Driver/Inc/stm32f7xx_ll_tim.h **** /** @defgroup TIM_LL_EC_ENCODERMODE Encoder Mode
 790:Drivers/STM32F7xx_HAL_Driver/Inc/stm32f7xx_ll_tim.h ****   * @{
 791:Drivers/STM32F7xx_HAL_Driver/Inc/stm32f7xx_ll_tim.h ****   */
 792:Drivers/STM32F7xx_HAL_Driver/Inc/stm32f7xx_ll_tim.h **** #define LL_TIM_ENCODERMODE_X2_TI1                     TIM_SMCR_SMS_0                               
 793:Drivers/STM32F7xx_HAL_Driver/Inc/stm32f7xx_ll_tim.h **** #define LL_TIM_ENCODERMODE_X2_TI2                     TIM_SMCR_SMS_1                               
 794:Drivers/STM32F7xx_HAL_Driver/Inc/stm32f7xx_ll_tim.h **** #define LL_TIM_ENCODERMODE_X4_TI12                   (TIM_SMCR_SMS_1 | TIM_SMCR_SMS_0)             
 795:Drivers/STM32F7xx_HAL_Driver/Inc/stm32f7xx_ll_tim.h **** /**
 796:Drivers/STM32F7xx_HAL_Driver/Inc/stm32f7xx_ll_tim.h ****   * @}
 797:Drivers/STM32F7xx_HAL_Driver/Inc/stm32f7xx_ll_tim.h ****   */
 798:Drivers/STM32F7xx_HAL_Driver/Inc/stm32f7xx_ll_tim.h **** 
 799:Drivers/STM32F7xx_HAL_Driver/Inc/stm32f7xx_ll_tim.h **** /** @defgroup TIM_LL_EC_TRGO Trigger Output
 800:Drivers/STM32F7xx_HAL_Driver/Inc/stm32f7xx_ll_tim.h ****   * @{
ARM GAS  C:\Users\Giorgio\AppData\Local\Temp\cc3JIPZT.s 			page 20


 801:Drivers/STM32F7xx_HAL_Driver/Inc/stm32f7xx_ll_tim.h ****   */
 802:Drivers/STM32F7xx_HAL_Driver/Inc/stm32f7xx_ll_tim.h **** #define LL_TIM_TRGO_RESET                      0x00000000U                                     /*!<
 803:Drivers/STM32F7xx_HAL_Driver/Inc/stm32f7xx_ll_tim.h **** #define LL_TIM_TRGO_ENABLE                     TIM_CR2_MMS_0                                   /*!<
 804:Drivers/STM32F7xx_HAL_Driver/Inc/stm32f7xx_ll_tim.h **** #define LL_TIM_TRGO_UPDATE                     TIM_CR2_MMS_1                                   /*!<
 805:Drivers/STM32F7xx_HAL_Driver/Inc/stm32f7xx_ll_tim.h **** #define LL_TIM_TRGO_CC1IF                      (TIM_CR2_MMS_1 | TIM_CR2_MMS_0)                 /*!<
 806:Drivers/STM32F7xx_HAL_Driver/Inc/stm32f7xx_ll_tim.h **** #define LL_TIM_TRGO_OC1REF                     TIM_CR2_MMS_2                                   /*!<
 807:Drivers/STM32F7xx_HAL_Driver/Inc/stm32f7xx_ll_tim.h **** #define LL_TIM_TRGO_OC2REF                     (TIM_CR2_MMS_2 | TIM_CR2_MMS_0)                 /*!<
 808:Drivers/STM32F7xx_HAL_Driver/Inc/stm32f7xx_ll_tim.h **** #define LL_TIM_TRGO_OC3REF                     (TIM_CR2_MMS_2 | TIM_CR2_MMS_1)                 /*!<
 809:Drivers/STM32F7xx_HAL_Driver/Inc/stm32f7xx_ll_tim.h **** #define LL_TIM_TRGO_OC4REF                     (TIM_CR2_MMS_2 | TIM_CR2_MMS_1 | TIM_CR2_MMS_0) /*!<
 810:Drivers/STM32F7xx_HAL_Driver/Inc/stm32f7xx_ll_tim.h **** /**
 811:Drivers/STM32F7xx_HAL_Driver/Inc/stm32f7xx_ll_tim.h ****   * @}
 812:Drivers/STM32F7xx_HAL_Driver/Inc/stm32f7xx_ll_tim.h ****   */
 813:Drivers/STM32F7xx_HAL_Driver/Inc/stm32f7xx_ll_tim.h **** 
 814:Drivers/STM32F7xx_HAL_Driver/Inc/stm32f7xx_ll_tim.h **** /** @defgroup TIM_LL_EC_TRGO2 Trigger Output 2
 815:Drivers/STM32F7xx_HAL_Driver/Inc/stm32f7xx_ll_tim.h ****   * @{
 816:Drivers/STM32F7xx_HAL_Driver/Inc/stm32f7xx_ll_tim.h ****   */
 817:Drivers/STM32F7xx_HAL_Driver/Inc/stm32f7xx_ll_tim.h **** #define LL_TIM_TRGO2_RESET                     0x00000000U                                         
 818:Drivers/STM32F7xx_HAL_Driver/Inc/stm32f7xx_ll_tim.h **** #define LL_TIM_TRGO2_ENABLE                    TIM_CR2_MMS2_0                                      
 819:Drivers/STM32F7xx_HAL_Driver/Inc/stm32f7xx_ll_tim.h **** #define LL_TIM_TRGO2_UPDATE                    TIM_CR2_MMS2_1                                      
 820:Drivers/STM32F7xx_HAL_Driver/Inc/stm32f7xx_ll_tim.h **** #define LL_TIM_TRGO2_CC1F                      (TIM_CR2_MMS2_1 | TIM_CR2_MMS2_0)                   
 821:Drivers/STM32F7xx_HAL_Driver/Inc/stm32f7xx_ll_tim.h **** #define LL_TIM_TRGO2_OC1                       TIM_CR2_MMS2_2                                      
 822:Drivers/STM32F7xx_HAL_Driver/Inc/stm32f7xx_ll_tim.h **** #define LL_TIM_TRGO2_OC2                       (TIM_CR2_MMS2_2 | TIM_CR2_MMS2_0)                   
 823:Drivers/STM32F7xx_HAL_Driver/Inc/stm32f7xx_ll_tim.h **** #define LL_TIM_TRGO2_OC3                       (TIM_CR2_MMS2_2 | TIM_CR2_MMS2_1)                   
 824:Drivers/STM32F7xx_HAL_Driver/Inc/stm32f7xx_ll_tim.h **** #define LL_TIM_TRGO2_OC4                       (TIM_CR2_MMS2_2 | TIM_CR2_MMS2_1 | TIM_CR2_MMS2_0)  
 825:Drivers/STM32F7xx_HAL_Driver/Inc/stm32f7xx_ll_tim.h **** #define LL_TIM_TRGO2_OC5                       TIM_CR2_MMS2_3                                      
 826:Drivers/STM32F7xx_HAL_Driver/Inc/stm32f7xx_ll_tim.h **** #define LL_TIM_TRGO2_OC6                       (TIM_CR2_MMS2_3 | TIM_CR2_MMS2_0)                   
 827:Drivers/STM32F7xx_HAL_Driver/Inc/stm32f7xx_ll_tim.h **** #define LL_TIM_TRGO2_OC4_RISINGFALLING         (TIM_CR2_MMS2_3 | TIM_CR2_MMS2_1)                   
 828:Drivers/STM32F7xx_HAL_Driver/Inc/stm32f7xx_ll_tim.h **** #define LL_TIM_TRGO2_OC6_RISINGFALLING         (TIM_CR2_MMS2_3 | TIM_CR2_MMS2_1 | TIM_CR2_MMS2_0)  
 829:Drivers/STM32F7xx_HAL_Driver/Inc/stm32f7xx_ll_tim.h **** #define LL_TIM_TRGO2_OC4_RISING_OC6_RISING     (TIM_CR2_MMS2_3 | TIM_CR2_MMS2_2)                   
 830:Drivers/STM32F7xx_HAL_Driver/Inc/stm32f7xx_ll_tim.h **** #define LL_TIM_TRGO2_OC4_RISING_OC6_FALLING    (TIM_CR2_MMS2_3 | TIM_CR2_MMS2_2 | TIM_CR2_MMS2_0)  
 831:Drivers/STM32F7xx_HAL_Driver/Inc/stm32f7xx_ll_tim.h **** #define LL_TIM_TRGO2_OC5_RISING_OC6_RISING     (TIM_CR2_MMS2_3 | TIM_CR2_MMS2_2 |TIM_CR2_MMS2_1)   
 832:Drivers/STM32F7xx_HAL_Driver/Inc/stm32f7xx_ll_tim.h **** #define LL_TIM_TRGO2_OC5_RISING_OC6_FALLING    (TIM_CR2_MMS2_3 | TIM_CR2_MMS2_2 | TIM_CR2_MMS2_1 | 
 833:Drivers/STM32F7xx_HAL_Driver/Inc/stm32f7xx_ll_tim.h **** /**
 834:Drivers/STM32F7xx_HAL_Driver/Inc/stm32f7xx_ll_tim.h ****   * @}
 835:Drivers/STM32F7xx_HAL_Driver/Inc/stm32f7xx_ll_tim.h ****   */
 836:Drivers/STM32F7xx_HAL_Driver/Inc/stm32f7xx_ll_tim.h **** 
 837:Drivers/STM32F7xx_HAL_Driver/Inc/stm32f7xx_ll_tim.h **** /** @defgroup TIM_LL_EC_SLAVEMODE Slave Mode
 838:Drivers/STM32F7xx_HAL_Driver/Inc/stm32f7xx_ll_tim.h ****   * @{
 839:Drivers/STM32F7xx_HAL_Driver/Inc/stm32f7xx_ll_tim.h ****   */
 840:Drivers/STM32F7xx_HAL_Driver/Inc/stm32f7xx_ll_tim.h **** #define LL_TIM_SLAVEMODE_DISABLED              0x00000000U                         /*!< Slave mode 
 841:Drivers/STM32F7xx_HAL_Driver/Inc/stm32f7xx_ll_tim.h **** #define LL_TIM_SLAVEMODE_RESET                 TIM_SMCR_SMS_2                      /*!< Reset Mode 
 842:Drivers/STM32F7xx_HAL_Driver/Inc/stm32f7xx_ll_tim.h **** #define LL_TIM_SLAVEMODE_GATED                 (TIM_SMCR_SMS_2 | TIM_SMCR_SMS_0)   /*!< Gated Mode 
 843:Drivers/STM32F7xx_HAL_Driver/Inc/stm32f7xx_ll_tim.h **** #define LL_TIM_SLAVEMODE_TRIGGER               (TIM_SMCR_SMS_2 | TIM_SMCR_SMS_1)   /*!< Trigger Mod
 844:Drivers/STM32F7xx_HAL_Driver/Inc/stm32f7xx_ll_tim.h **** #define LL_TIM_SLAVEMODE_COMBINED_RESETTRIGGER TIM_SMCR_SMS_3                      /*!< Combined re
 845:Drivers/STM32F7xx_HAL_Driver/Inc/stm32f7xx_ll_tim.h **** /**
 846:Drivers/STM32F7xx_HAL_Driver/Inc/stm32f7xx_ll_tim.h ****   * @}
 847:Drivers/STM32F7xx_HAL_Driver/Inc/stm32f7xx_ll_tim.h ****   */
 848:Drivers/STM32F7xx_HAL_Driver/Inc/stm32f7xx_ll_tim.h **** 
 849:Drivers/STM32F7xx_HAL_Driver/Inc/stm32f7xx_ll_tim.h **** /** @defgroup TIM_LL_EC_TS Trigger Selection
 850:Drivers/STM32F7xx_HAL_Driver/Inc/stm32f7xx_ll_tim.h ****   * @{
 851:Drivers/STM32F7xx_HAL_Driver/Inc/stm32f7xx_ll_tim.h ****   */
 852:Drivers/STM32F7xx_HAL_Driver/Inc/stm32f7xx_ll_tim.h **** #define LL_TIM_TS_ITR0                         0x00000000U                                         
 853:Drivers/STM32F7xx_HAL_Driver/Inc/stm32f7xx_ll_tim.h **** #define LL_TIM_TS_ITR1                         TIM_SMCR_TS_0                                       
 854:Drivers/STM32F7xx_HAL_Driver/Inc/stm32f7xx_ll_tim.h **** #define LL_TIM_TS_ITR2                         TIM_SMCR_TS_1                                       
 855:Drivers/STM32F7xx_HAL_Driver/Inc/stm32f7xx_ll_tim.h **** #define LL_TIM_TS_ITR3                         (TIM_SMCR_TS_0 | TIM_SMCR_TS_1)                     
 856:Drivers/STM32F7xx_HAL_Driver/Inc/stm32f7xx_ll_tim.h **** #define LL_TIM_TS_TI1F_ED                      TIM_SMCR_TS_2                                       
 857:Drivers/STM32F7xx_HAL_Driver/Inc/stm32f7xx_ll_tim.h **** #define LL_TIM_TS_TI1FP1                       (TIM_SMCR_TS_2 | TIM_SMCR_TS_0)                     
ARM GAS  C:\Users\Giorgio\AppData\Local\Temp\cc3JIPZT.s 			page 21


 858:Drivers/STM32F7xx_HAL_Driver/Inc/stm32f7xx_ll_tim.h **** #define LL_TIM_TS_TI2FP2                       (TIM_SMCR_TS_2 | TIM_SMCR_TS_1)                     
 859:Drivers/STM32F7xx_HAL_Driver/Inc/stm32f7xx_ll_tim.h **** #define LL_TIM_TS_ETRF                         (TIM_SMCR_TS_2 | TIM_SMCR_TS_1 | TIM_SMCR_TS_0)     
 860:Drivers/STM32F7xx_HAL_Driver/Inc/stm32f7xx_ll_tim.h **** /**
 861:Drivers/STM32F7xx_HAL_Driver/Inc/stm32f7xx_ll_tim.h ****   * @}
 862:Drivers/STM32F7xx_HAL_Driver/Inc/stm32f7xx_ll_tim.h ****   */
 863:Drivers/STM32F7xx_HAL_Driver/Inc/stm32f7xx_ll_tim.h **** 
 864:Drivers/STM32F7xx_HAL_Driver/Inc/stm32f7xx_ll_tim.h **** /** @defgroup TIM_LL_EC_ETR_POLARITY External Trigger Polarity
 865:Drivers/STM32F7xx_HAL_Driver/Inc/stm32f7xx_ll_tim.h ****   * @{
 866:Drivers/STM32F7xx_HAL_Driver/Inc/stm32f7xx_ll_tim.h ****   */
 867:Drivers/STM32F7xx_HAL_Driver/Inc/stm32f7xx_ll_tim.h **** #define LL_TIM_ETR_POLARITY_NONINVERTED        0x00000000U             /*!< ETR is non-inverted, ac
 868:Drivers/STM32F7xx_HAL_Driver/Inc/stm32f7xx_ll_tim.h **** #define LL_TIM_ETR_POLARITY_INVERTED           TIM_SMCR_ETP            /*!< ETR is inverted, active
 869:Drivers/STM32F7xx_HAL_Driver/Inc/stm32f7xx_ll_tim.h **** /**
 870:Drivers/STM32F7xx_HAL_Driver/Inc/stm32f7xx_ll_tim.h ****   * @}
 871:Drivers/STM32F7xx_HAL_Driver/Inc/stm32f7xx_ll_tim.h ****   */
 872:Drivers/STM32F7xx_HAL_Driver/Inc/stm32f7xx_ll_tim.h **** 
 873:Drivers/STM32F7xx_HAL_Driver/Inc/stm32f7xx_ll_tim.h **** /** @defgroup TIM_LL_EC_ETR_PRESCALER External Trigger Prescaler
 874:Drivers/STM32F7xx_HAL_Driver/Inc/stm32f7xx_ll_tim.h ****   * @{
 875:Drivers/STM32F7xx_HAL_Driver/Inc/stm32f7xx_ll_tim.h ****   */
 876:Drivers/STM32F7xx_HAL_Driver/Inc/stm32f7xx_ll_tim.h **** #define LL_TIM_ETR_PRESCALER_DIV1              0x00000000U             /*!< ETR prescaler OFF */
 877:Drivers/STM32F7xx_HAL_Driver/Inc/stm32f7xx_ll_tim.h **** #define LL_TIM_ETR_PRESCALER_DIV2              TIM_SMCR_ETPS_0         /*!< ETR frequency is divide
 878:Drivers/STM32F7xx_HAL_Driver/Inc/stm32f7xx_ll_tim.h **** #define LL_TIM_ETR_PRESCALER_DIV4              TIM_SMCR_ETPS_1         /*!< ETR frequency is divide
 879:Drivers/STM32F7xx_HAL_Driver/Inc/stm32f7xx_ll_tim.h **** #define LL_TIM_ETR_PRESCALER_DIV8              TIM_SMCR_ETPS           /*!< ETR frequency is divide
 880:Drivers/STM32F7xx_HAL_Driver/Inc/stm32f7xx_ll_tim.h **** /**
 881:Drivers/STM32F7xx_HAL_Driver/Inc/stm32f7xx_ll_tim.h ****   * @}
 882:Drivers/STM32F7xx_HAL_Driver/Inc/stm32f7xx_ll_tim.h ****   */
 883:Drivers/STM32F7xx_HAL_Driver/Inc/stm32f7xx_ll_tim.h **** 
 884:Drivers/STM32F7xx_HAL_Driver/Inc/stm32f7xx_ll_tim.h **** /** @defgroup TIM_LL_EC_ETR_FILTER External Trigger Filter
 885:Drivers/STM32F7xx_HAL_Driver/Inc/stm32f7xx_ll_tim.h ****   * @{
 886:Drivers/STM32F7xx_HAL_Driver/Inc/stm32f7xx_ll_tim.h ****   */
 887:Drivers/STM32F7xx_HAL_Driver/Inc/stm32f7xx_ll_tim.h **** #define LL_TIM_ETR_FILTER_FDIV1                0x00000000U                                         
 888:Drivers/STM32F7xx_HAL_Driver/Inc/stm32f7xx_ll_tim.h **** #define LL_TIM_ETR_FILTER_FDIV1_N2             TIM_SMCR_ETF_0                                      
 889:Drivers/STM32F7xx_HAL_Driver/Inc/stm32f7xx_ll_tim.h **** #define LL_TIM_ETR_FILTER_FDIV1_N4             TIM_SMCR_ETF_1                                      
 890:Drivers/STM32F7xx_HAL_Driver/Inc/stm32f7xx_ll_tim.h **** #define LL_TIM_ETR_FILTER_FDIV1_N8             (TIM_SMCR_ETF_1 | TIM_SMCR_ETF_0)                   
 891:Drivers/STM32F7xx_HAL_Driver/Inc/stm32f7xx_ll_tim.h **** #define LL_TIM_ETR_FILTER_FDIV2_N6             TIM_SMCR_ETF_2                                      
 892:Drivers/STM32F7xx_HAL_Driver/Inc/stm32f7xx_ll_tim.h **** #define LL_TIM_ETR_FILTER_FDIV2_N8             (TIM_SMCR_ETF_2 | TIM_SMCR_ETF_0)                   
 893:Drivers/STM32F7xx_HAL_Driver/Inc/stm32f7xx_ll_tim.h **** #define LL_TIM_ETR_FILTER_FDIV4_N6             (TIM_SMCR_ETF_2 | TIM_SMCR_ETF_1)                   
 894:Drivers/STM32F7xx_HAL_Driver/Inc/stm32f7xx_ll_tim.h **** #define LL_TIM_ETR_FILTER_FDIV4_N8             (TIM_SMCR_ETF_2 | TIM_SMCR_ETF_1 | TIM_SMCR_ETF_0)  
 895:Drivers/STM32F7xx_HAL_Driver/Inc/stm32f7xx_ll_tim.h **** #define LL_TIM_ETR_FILTER_FDIV8_N6             TIM_SMCR_ETF_3                                      
 896:Drivers/STM32F7xx_HAL_Driver/Inc/stm32f7xx_ll_tim.h **** #define LL_TIM_ETR_FILTER_FDIV8_N8             (TIM_SMCR_ETF_3 | TIM_SMCR_ETF_0)                   
 897:Drivers/STM32F7xx_HAL_Driver/Inc/stm32f7xx_ll_tim.h **** #define LL_TIM_ETR_FILTER_FDIV16_N5            (TIM_SMCR_ETF_3 | TIM_SMCR_ETF_1)                   
 898:Drivers/STM32F7xx_HAL_Driver/Inc/stm32f7xx_ll_tim.h **** #define LL_TIM_ETR_FILTER_FDIV16_N6            (TIM_SMCR_ETF_3 | TIM_SMCR_ETF_1 | TIM_SMCR_ETF_0)  
 899:Drivers/STM32F7xx_HAL_Driver/Inc/stm32f7xx_ll_tim.h **** #define LL_TIM_ETR_FILTER_FDIV16_N8            (TIM_SMCR_ETF_3 | TIM_SMCR_ETF_2)                   
 900:Drivers/STM32F7xx_HAL_Driver/Inc/stm32f7xx_ll_tim.h **** #define LL_TIM_ETR_FILTER_FDIV32_N5            (TIM_SMCR_ETF_3 | TIM_SMCR_ETF_2 | TIM_SMCR_ETF_0)  
 901:Drivers/STM32F7xx_HAL_Driver/Inc/stm32f7xx_ll_tim.h **** #define LL_TIM_ETR_FILTER_FDIV32_N6            (TIM_SMCR_ETF_3 | TIM_SMCR_ETF_2 | TIM_SMCR_ETF_1)  
 902:Drivers/STM32F7xx_HAL_Driver/Inc/stm32f7xx_ll_tim.h **** #define LL_TIM_ETR_FILTER_FDIV32_N8            TIM_SMCR_ETF                                        
 903:Drivers/STM32F7xx_HAL_Driver/Inc/stm32f7xx_ll_tim.h **** /**
 904:Drivers/STM32F7xx_HAL_Driver/Inc/stm32f7xx_ll_tim.h ****   * @}
 905:Drivers/STM32F7xx_HAL_Driver/Inc/stm32f7xx_ll_tim.h ****   */
 906:Drivers/STM32F7xx_HAL_Driver/Inc/stm32f7xx_ll_tim.h **** 
 907:Drivers/STM32F7xx_HAL_Driver/Inc/stm32f7xx_ll_tim.h **** 
 908:Drivers/STM32F7xx_HAL_Driver/Inc/stm32f7xx_ll_tim.h **** /** @defgroup TIM_LL_EC_BREAK_POLARITY break polarity
 909:Drivers/STM32F7xx_HAL_Driver/Inc/stm32f7xx_ll_tim.h ****   * @{
 910:Drivers/STM32F7xx_HAL_Driver/Inc/stm32f7xx_ll_tim.h ****   */
 911:Drivers/STM32F7xx_HAL_Driver/Inc/stm32f7xx_ll_tim.h **** #define LL_TIM_BREAK_POLARITY_LOW              0x00000000U               /*!< Break input BRK is ac
 912:Drivers/STM32F7xx_HAL_Driver/Inc/stm32f7xx_ll_tim.h **** #define LL_TIM_BREAK_POLARITY_HIGH             TIM_BDTR_BKP              /*!< Break input BRK is ac
 913:Drivers/STM32F7xx_HAL_Driver/Inc/stm32f7xx_ll_tim.h **** /**
 914:Drivers/STM32F7xx_HAL_Driver/Inc/stm32f7xx_ll_tim.h ****   * @}
ARM GAS  C:\Users\Giorgio\AppData\Local\Temp\cc3JIPZT.s 			page 22


 915:Drivers/STM32F7xx_HAL_Driver/Inc/stm32f7xx_ll_tim.h ****   */
 916:Drivers/STM32F7xx_HAL_Driver/Inc/stm32f7xx_ll_tim.h **** 
 917:Drivers/STM32F7xx_HAL_Driver/Inc/stm32f7xx_ll_tim.h **** /** @defgroup TIM_LL_EC_BREAK_FILTER break filter
 918:Drivers/STM32F7xx_HAL_Driver/Inc/stm32f7xx_ll_tim.h ****   * @{
 919:Drivers/STM32F7xx_HAL_Driver/Inc/stm32f7xx_ll_tim.h ****   */
 920:Drivers/STM32F7xx_HAL_Driver/Inc/stm32f7xx_ll_tim.h **** #define LL_TIM_BREAK_FILTER_FDIV1              0x00000000U   /*!< No filter, BRK acts asynchronousl
 921:Drivers/STM32F7xx_HAL_Driver/Inc/stm32f7xx_ll_tim.h **** #define LL_TIM_BREAK_FILTER_FDIV1_N2           0x00010000U   /*!< fSAMPLING=fCK_INT, N=2 */
 922:Drivers/STM32F7xx_HAL_Driver/Inc/stm32f7xx_ll_tim.h **** #define LL_TIM_BREAK_FILTER_FDIV1_N4           0x00020000U   /*!< fSAMPLING=fCK_INT, N=4 */
 923:Drivers/STM32F7xx_HAL_Driver/Inc/stm32f7xx_ll_tim.h **** #define LL_TIM_BREAK_FILTER_FDIV1_N8           0x00030000U   /*!< fSAMPLING=fCK_INT, N=8 */
 924:Drivers/STM32F7xx_HAL_Driver/Inc/stm32f7xx_ll_tim.h **** #define LL_TIM_BREAK_FILTER_FDIV2_N6           0x00040000U   /*!< fSAMPLING=fDTS/2, N=6 */
 925:Drivers/STM32F7xx_HAL_Driver/Inc/stm32f7xx_ll_tim.h **** #define LL_TIM_BREAK_FILTER_FDIV2_N8           0x00050000U   /*!< fSAMPLING=fDTS/2, N=8 */
 926:Drivers/STM32F7xx_HAL_Driver/Inc/stm32f7xx_ll_tim.h **** #define LL_TIM_BREAK_FILTER_FDIV4_N6           0x00060000U   /*!< fSAMPLING=fDTS/4, N=6 */
 927:Drivers/STM32F7xx_HAL_Driver/Inc/stm32f7xx_ll_tim.h **** #define LL_TIM_BREAK_FILTER_FDIV4_N8           0x00070000U   /*!< fSAMPLING=fDTS/4, N=8 */
 928:Drivers/STM32F7xx_HAL_Driver/Inc/stm32f7xx_ll_tim.h **** #define LL_TIM_BREAK_FILTER_FDIV8_N6           0x00080000U   /*!< fSAMPLING=fDTS/8, N=6 */
 929:Drivers/STM32F7xx_HAL_Driver/Inc/stm32f7xx_ll_tim.h **** #define LL_TIM_BREAK_FILTER_FDIV8_N8           0x00090000U   /*!< fSAMPLING=fDTS/8, N=8 */
 930:Drivers/STM32F7xx_HAL_Driver/Inc/stm32f7xx_ll_tim.h **** #define LL_TIM_BREAK_FILTER_FDIV16_N5          0x000A0000U   /*!< fSAMPLING=fDTS/16, N=5 */
 931:Drivers/STM32F7xx_HAL_Driver/Inc/stm32f7xx_ll_tim.h **** #define LL_TIM_BREAK_FILTER_FDIV16_N6          0x000B0000U   /*!< fSAMPLING=fDTS/16, N=6 */
 932:Drivers/STM32F7xx_HAL_Driver/Inc/stm32f7xx_ll_tim.h **** #define LL_TIM_BREAK_FILTER_FDIV16_N8          0x000C0000U   /*!< fSAMPLING=fDTS/16, N=8 */
 933:Drivers/STM32F7xx_HAL_Driver/Inc/stm32f7xx_ll_tim.h **** #define LL_TIM_BREAK_FILTER_FDIV32_N5          0x000D0000U   /*!< fSAMPLING=fDTS/32, N=5 */
 934:Drivers/STM32F7xx_HAL_Driver/Inc/stm32f7xx_ll_tim.h **** #define LL_TIM_BREAK_FILTER_FDIV32_N6          0x000E0000U   /*!< fSAMPLING=fDTS/32, N=6 */
 935:Drivers/STM32F7xx_HAL_Driver/Inc/stm32f7xx_ll_tim.h **** #define LL_TIM_BREAK_FILTER_FDIV32_N8          0x000F0000U   /*!< fSAMPLING=fDTS/32, N=8 */
 936:Drivers/STM32F7xx_HAL_Driver/Inc/stm32f7xx_ll_tim.h **** /**
 937:Drivers/STM32F7xx_HAL_Driver/Inc/stm32f7xx_ll_tim.h ****   * @}
 938:Drivers/STM32F7xx_HAL_Driver/Inc/stm32f7xx_ll_tim.h ****   */
 939:Drivers/STM32F7xx_HAL_Driver/Inc/stm32f7xx_ll_tim.h **** 
 940:Drivers/STM32F7xx_HAL_Driver/Inc/stm32f7xx_ll_tim.h **** /** @defgroup TIM_LL_EC_BREAK2_POLARITY BREAK2 POLARITY
 941:Drivers/STM32F7xx_HAL_Driver/Inc/stm32f7xx_ll_tim.h ****   * @{
 942:Drivers/STM32F7xx_HAL_Driver/Inc/stm32f7xx_ll_tim.h ****   */
 943:Drivers/STM32F7xx_HAL_Driver/Inc/stm32f7xx_ll_tim.h **** #define LL_TIM_BREAK2_POLARITY_LOW             0x00000000U             /*!< Break input BRK2 is act
 944:Drivers/STM32F7xx_HAL_Driver/Inc/stm32f7xx_ll_tim.h **** #define LL_TIM_BREAK2_POLARITY_HIGH            TIM_BDTR_BK2P           /*!< Break input BRK2 is act
 945:Drivers/STM32F7xx_HAL_Driver/Inc/stm32f7xx_ll_tim.h **** /**
 946:Drivers/STM32F7xx_HAL_Driver/Inc/stm32f7xx_ll_tim.h ****   * @}
 947:Drivers/STM32F7xx_HAL_Driver/Inc/stm32f7xx_ll_tim.h ****   */
 948:Drivers/STM32F7xx_HAL_Driver/Inc/stm32f7xx_ll_tim.h **** 
 949:Drivers/STM32F7xx_HAL_Driver/Inc/stm32f7xx_ll_tim.h **** /** @defgroup TIM_LL_EC_BREAK2_FILTER BREAK2 FILTER
 950:Drivers/STM32F7xx_HAL_Driver/Inc/stm32f7xx_ll_tim.h ****   * @{
 951:Drivers/STM32F7xx_HAL_Driver/Inc/stm32f7xx_ll_tim.h ****   */
 952:Drivers/STM32F7xx_HAL_Driver/Inc/stm32f7xx_ll_tim.h **** #define LL_TIM_BREAK2_FILTER_FDIV1             0x00000000U   /*!< No filter, BRK acts asynchronousl
 953:Drivers/STM32F7xx_HAL_Driver/Inc/stm32f7xx_ll_tim.h **** #define LL_TIM_BREAK2_FILTER_FDIV1_N2          0x00100000U   /*!< fSAMPLING=fCK_INT, N=2 */
 954:Drivers/STM32F7xx_HAL_Driver/Inc/stm32f7xx_ll_tim.h **** #define LL_TIM_BREAK2_FILTER_FDIV1_N4          0x00200000U   /*!< fSAMPLING=fCK_INT, N=4 */
 955:Drivers/STM32F7xx_HAL_Driver/Inc/stm32f7xx_ll_tim.h **** #define LL_TIM_BREAK2_FILTER_FDIV1_N8          0x00300000U   /*!< fSAMPLING=fCK_INT, N=8 */
 956:Drivers/STM32F7xx_HAL_Driver/Inc/stm32f7xx_ll_tim.h **** #define LL_TIM_BREAK2_FILTER_FDIV2_N6          0x00400000U   /*!< fSAMPLING=fDTS/2, N=6 */
 957:Drivers/STM32F7xx_HAL_Driver/Inc/stm32f7xx_ll_tim.h **** #define LL_TIM_BREAK2_FILTER_FDIV2_N8          0x00500000U   /*!< fSAMPLING=fDTS/2, N=8 */
 958:Drivers/STM32F7xx_HAL_Driver/Inc/stm32f7xx_ll_tim.h **** #define LL_TIM_BREAK2_FILTER_FDIV4_N6          0x00600000U   /*!< fSAMPLING=fDTS/4, N=6 */
 959:Drivers/STM32F7xx_HAL_Driver/Inc/stm32f7xx_ll_tim.h **** #define LL_TIM_BREAK2_FILTER_FDIV4_N8          0x00700000U   /*!< fSAMPLING=fDTS/4, N=8 */
 960:Drivers/STM32F7xx_HAL_Driver/Inc/stm32f7xx_ll_tim.h **** #define LL_TIM_BREAK2_FILTER_FDIV8_N6          0x00800000U   /*!< fSAMPLING=fDTS/8, N=6 */
 961:Drivers/STM32F7xx_HAL_Driver/Inc/stm32f7xx_ll_tim.h **** #define LL_TIM_BREAK2_FILTER_FDIV8_N8          0x00900000U   /*!< fSAMPLING=fDTS/8, N=8 */
 962:Drivers/STM32F7xx_HAL_Driver/Inc/stm32f7xx_ll_tim.h **** #define LL_TIM_BREAK2_FILTER_FDIV16_N5         0x00A00000U   /*!< fSAMPLING=fDTS/16, N=5 */
 963:Drivers/STM32F7xx_HAL_Driver/Inc/stm32f7xx_ll_tim.h **** #define LL_TIM_BREAK2_FILTER_FDIV16_N6         0x00B00000U   /*!< fSAMPLING=fDTS/16, N=6 */
 964:Drivers/STM32F7xx_HAL_Driver/Inc/stm32f7xx_ll_tim.h **** #define LL_TIM_BREAK2_FILTER_FDIV16_N8         0x00C00000U   /*!< fSAMPLING=fDTS/16, N=8 */
 965:Drivers/STM32F7xx_HAL_Driver/Inc/stm32f7xx_ll_tim.h **** #define LL_TIM_BREAK2_FILTER_FDIV32_N5         0x00D00000U   /*!< fSAMPLING=fDTS/32, N=5 */
 966:Drivers/STM32F7xx_HAL_Driver/Inc/stm32f7xx_ll_tim.h **** #define LL_TIM_BREAK2_FILTER_FDIV32_N6         0x00E00000U   /*!< fSAMPLING=fDTS/32, N=6 */
 967:Drivers/STM32F7xx_HAL_Driver/Inc/stm32f7xx_ll_tim.h **** #define LL_TIM_BREAK2_FILTER_FDIV32_N8         0x00F00000U   /*!< fSAMPLING=fDTS/32, N=8 */
 968:Drivers/STM32F7xx_HAL_Driver/Inc/stm32f7xx_ll_tim.h **** /**
 969:Drivers/STM32F7xx_HAL_Driver/Inc/stm32f7xx_ll_tim.h ****   * @}
 970:Drivers/STM32F7xx_HAL_Driver/Inc/stm32f7xx_ll_tim.h ****   */
 971:Drivers/STM32F7xx_HAL_Driver/Inc/stm32f7xx_ll_tim.h **** 
ARM GAS  C:\Users\Giorgio\AppData\Local\Temp\cc3JIPZT.s 			page 23


 972:Drivers/STM32F7xx_HAL_Driver/Inc/stm32f7xx_ll_tim.h **** /** @defgroup TIM_LL_EC_OSSI OSSI
 973:Drivers/STM32F7xx_HAL_Driver/Inc/stm32f7xx_ll_tim.h ****   * @{
 974:Drivers/STM32F7xx_HAL_Driver/Inc/stm32f7xx_ll_tim.h ****   */
 975:Drivers/STM32F7xx_HAL_Driver/Inc/stm32f7xx_ll_tim.h **** #define LL_TIM_OSSI_DISABLE                    0x00000000U             /*!< When inactive, OCx/OCxN
 976:Drivers/STM32F7xx_HAL_Driver/Inc/stm32f7xx_ll_tim.h **** #define LL_TIM_OSSI_ENABLE                     TIM_BDTR_OSSI           /*!< When inactive, OxC/OCxN
 977:Drivers/STM32F7xx_HAL_Driver/Inc/stm32f7xx_ll_tim.h **** /**
 978:Drivers/STM32F7xx_HAL_Driver/Inc/stm32f7xx_ll_tim.h ****   * @}
 979:Drivers/STM32F7xx_HAL_Driver/Inc/stm32f7xx_ll_tim.h ****   */
 980:Drivers/STM32F7xx_HAL_Driver/Inc/stm32f7xx_ll_tim.h **** 
 981:Drivers/STM32F7xx_HAL_Driver/Inc/stm32f7xx_ll_tim.h **** /** @defgroup TIM_LL_EC_OSSR OSSR
 982:Drivers/STM32F7xx_HAL_Driver/Inc/stm32f7xx_ll_tim.h ****   * @{
 983:Drivers/STM32F7xx_HAL_Driver/Inc/stm32f7xx_ll_tim.h ****   */
 984:Drivers/STM32F7xx_HAL_Driver/Inc/stm32f7xx_ll_tim.h **** #define LL_TIM_OSSR_DISABLE                    0x00000000U             /*!< When inactive, OCx/OCxN
 985:Drivers/STM32F7xx_HAL_Driver/Inc/stm32f7xx_ll_tim.h **** #define LL_TIM_OSSR_ENABLE                     TIM_BDTR_OSSR           /*!< When inactive, OC/OCN o
 986:Drivers/STM32F7xx_HAL_Driver/Inc/stm32f7xx_ll_tim.h **** /**
 987:Drivers/STM32F7xx_HAL_Driver/Inc/stm32f7xx_ll_tim.h ****   * @}
 988:Drivers/STM32F7xx_HAL_Driver/Inc/stm32f7xx_ll_tim.h ****   */
 989:Drivers/STM32F7xx_HAL_Driver/Inc/stm32f7xx_ll_tim.h **** 
 990:Drivers/STM32F7xx_HAL_Driver/Inc/stm32f7xx_ll_tim.h **** #if   defined(TIM_BREAK_INPUT_SUPPORT)
 991:Drivers/STM32F7xx_HAL_Driver/Inc/stm32f7xx_ll_tim.h **** /** @defgroup TIM_LL_EC_BREAK_INPUT BREAK INPUT
 992:Drivers/STM32F7xx_HAL_Driver/Inc/stm32f7xx_ll_tim.h ****   * @{
 993:Drivers/STM32F7xx_HAL_Driver/Inc/stm32f7xx_ll_tim.h ****   */
 994:Drivers/STM32F7xx_HAL_Driver/Inc/stm32f7xx_ll_tim.h **** #define LL_TIM_BREAK_INPUT_BKIN                0x00000000U  /*!< TIMx_BKIN input */
 995:Drivers/STM32F7xx_HAL_Driver/Inc/stm32f7xx_ll_tim.h **** #define LL_TIM_BREAK_INPUT_BKIN2               0x00000004U  /*!< TIMx_BKIN2 input */
 996:Drivers/STM32F7xx_HAL_Driver/Inc/stm32f7xx_ll_tim.h **** /**
 997:Drivers/STM32F7xx_HAL_Driver/Inc/stm32f7xx_ll_tim.h ****   * @}
 998:Drivers/STM32F7xx_HAL_Driver/Inc/stm32f7xx_ll_tim.h ****   */
 999:Drivers/STM32F7xx_HAL_Driver/Inc/stm32f7xx_ll_tim.h **** 
1000:Drivers/STM32F7xx_HAL_Driver/Inc/stm32f7xx_ll_tim.h **** /** @defgroup TIM_LL_EC_BKIN_SOURCE BKIN SOURCE
1001:Drivers/STM32F7xx_HAL_Driver/Inc/stm32f7xx_ll_tim.h ****   * @{
1002:Drivers/STM32F7xx_HAL_Driver/Inc/stm32f7xx_ll_tim.h ****   */
1003:Drivers/STM32F7xx_HAL_Driver/Inc/stm32f7xx_ll_tim.h **** #define LL_TIM_BKIN_SOURCE_BKIN                TIM1_AF1_BKINE      /*!< BKIN input from AF controll
1004:Drivers/STM32F7xx_HAL_Driver/Inc/stm32f7xx_ll_tim.h **** #define LL_TIM_BKIN_SOURCE_DF1BK               TIM1_AF1_BKDF1BKE   /*!< internal signal: DFSDM1 bre
1005:Drivers/STM32F7xx_HAL_Driver/Inc/stm32f7xx_ll_tim.h **** /**
1006:Drivers/STM32F7xx_HAL_Driver/Inc/stm32f7xx_ll_tim.h ****   * @}
1007:Drivers/STM32F7xx_HAL_Driver/Inc/stm32f7xx_ll_tim.h ****   */
1008:Drivers/STM32F7xx_HAL_Driver/Inc/stm32f7xx_ll_tim.h **** 
1009:Drivers/STM32F7xx_HAL_Driver/Inc/stm32f7xx_ll_tim.h **** /** @defgroup TIM_LL_EC_BKIN_POLARITY BKIN POLARITY
1010:Drivers/STM32F7xx_HAL_Driver/Inc/stm32f7xx_ll_tim.h ****   * @{
1011:Drivers/STM32F7xx_HAL_Driver/Inc/stm32f7xx_ll_tim.h ****   */
1012:Drivers/STM32F7xx_HAL_Driver/Inc/stm32f7xx_ll_tim.h **** #define LL_TIM_BKIN_POLARITY_LOW               TIM1_AF1_BKINP           /*!< BRK BKIN input is acti
1013:Drivers/STM32F7xx_HAL_Driver/Inc/stm32f7xx_ll_tim.h **** #define LL_TIM_BKIN_POLARITY_HIGH              0x00000000U              /*!< BRK BKIN input is acti
1014:Drivers/STM32F7xx_HAL_Driver/Inc/stm32f7xx_ll_tim.h **** /**
1015:Drivers/STM32F7xx_HAL_Driver/Inc/stm32f7xx_ll_tim.h ****   * @}
1016:Drivers/STM32F7xx_HAL_Driver/Inc/stm32f7xx_ll_tim.h ****   */
1017:Drivers/STM32F7xx_HAL_Driver/Inc/stm32f7xx_ll_tim.h **** #endif /* TIM_BREAK_INPUT_SUPPORT */
1018:Drivers/STM32F7xx_HAL_Driver/Inc/stm32f7xx_ll_tim.h **** 
1019:Drivers/STM32F7xx_HAL_Driver/Inc/stm32f7xx_ll_tim.h **** /** @defgroup TIM_LL_EC_DMABURST_BASEADDR DMA Burst Base Address
1020:Drivers/STM32F7xx_HAL_Driver/Inc/stm32f7xx_ll_tim.h ****   * @{
1021:Drivers/STM32F7xx_HAL_Driver/Inc/stm32f7xx_ll_tim.h ****   */
1022:Drivers/STM32F7xx_HAL_Driver/Inc/stm32f7xx_ll_tim.h **** #define LL_TIM_DMABURST_BASEADDR_CR1           0x00000000U                                         
1023:Drivers/STM32F7xx_HAL_Driver/Inc/stm32f7xx_ll_tim.h **** #define LL_TIM_DMABURST_BASEADDR_CR2           TIM_DCR_DBA_0                                       
1024:Drivers/STM32F7xx_HAL_Driver/Inc/stm32f7xx_ll_tim.h **** #define LL_TIM_DMABURST_BASEADDR_SMCR          TIM_DCR_DBA_1                                       
1025:Drivers/STM32F7xx_HAL_Driver/Inc/stm32f7xx_ll_tim.h **** #define LL_TIM_DMABURST_BASEADDR_DIER          (TIM_DCR_DBA_1 |  TIM_DCR_DBA_0)                    
1026:Drivers/STM32F7xx_HAL_Driver/Inc/stm32f7xx_ll_tim.h **** #define LL_TIM_DMABURST_BASEADDR_SR            TIM_DCR_DBA_2                                       
1027:Drivers/STM32F7xx_HAL_Driver/Inc/stm32f7xx_ll_tim.h **** #define LL_TIM_DMABURST_BASEADDR_EGR           (TIM_DCR_DBA_2 | TIM_DCR_DBA_0)                     
1028:Drivers/STM32F7xx_HAL_Driver/Inc/stm32f7xx_ll_tim.h **** #define LL_TIM_DMABURST_BASEADDR_CCMR1         (TIM_DCR_DBA_2 | TIM_DCR_DBA_1)                     
ARM GAS  C:\Users\Giorgio\AppData\Local\Temp\cc3JIPZT.s 			page 24


1029:Drivers/STM32F7xx_HAL_Driver/Inc/stm32f7xx_ll_tim.h **** #define LL_TIM_DMABURST_BASEADDR_CCMR2         (TIM_DCR_DBA_2 | TIM_DCR_DBA_1 | TIM_DCR_DBA_0)     
1030:Drivers/STM32F7xx_HAL_Driver/Inc/stm32f7xx_ll_tim.h **** #define LL_TIM_DMABURST_BASEADDR_CCER          TIM_DCR_DBA_3                                       
1031:Drivers/STM32F7xx_HAL_Driver/Inc/stm32f7xx_ll_tim.h **** #define LL_TIM_DMABURST_BASEADDR_CNT           (TIM_DCR_DBA_3 | TIM_DCR_DBA_0)                     
1032:Drivers/STM32F7xx_HAL_Driver/Inc/stm32f7xx_ll_tim.h **** #define LL_TIM_DMABURST_BASEADDR_PSC           (TIM_DCR_DBA_3 | TIM_DCR_DBA_1)                     
1033:Drivers/STM32F7xx_HAL_Driver/Inc/stm32f7xx_ll_tim.h **** #define LL_TIM_DMABURST_BASEADDR_ARR           (TIM_DCR_DBA_3 | TIM_DCR_DBA_1 | TIM_DCR_DBA_0)     
1034:Drivers/STM32F7xx_HAL_Driver/Inc/stm32f7xx_ll_tim.h **** #define LL_TIM_DMABURST_BASEADDR_RCR           (TIM_DCR_DBA_3 | TIM_DCR_DBA_2)                     
1035:Drivers/STM32F7xx_HAL_Driver/Inc/stm32f7xx_ll_tim.h **** #define LL_TIM_DMABURST_BASEADDR_CCR1          (TIM_DCR_DBA_3 | TIM_DCR_DBA_2 | TIM_DCR_DBA_0)     
1036:Drivers/STM32F7xx_HAL_Driver/Inc/stm32f7xx_ll_tim.h **** #define LL_TIM_DMABURST_BASEADDR_CCR2          (TIM_DCR_DBA_3 | TIM_DCR_DBA_2 | TIM_DCR_DBA_1)     
1037:Drivers/STM32F7xx_HAL_Driver/Inc/stm32f7xx_ll_tim.h **** #define LL_TIM_DMABURST_BASEADDR_CCR3          (TIM_DCR_DBA_3 | TIM_DCR_DBA_2 | TIM_DCR_DBA_1 | TIM
1038:Drivers/STM32F7xx_HAL_Driver/Inc/stm32f7xx_ll_tim.h **** #define LL_TIM_DMABURST_BASEADDR_CCR4          TIM_DCR_DBA_4                                       
1039:Drivers/STM32F7xx_HAL_Driver/Inc/stm32f7xx_ll_tim.h **** #define LL_TIM_DMABURST_BASEADDR_BDTR          (TIM_DCR_DBA_4 | TIM_DCR_DBA_0)                     
1040:Drivers/STM32F7xx_HAL_Driver/Inc/stm32f7xx_ll_tim.h **** #define LL_TIM_DMABURST_BASEADDR_OR            (TIM_DCR_DBA_4 | TIM_DCR_DBA_2)                     
1041:Drivers/STM32F7xx_HAL_Driver/Inc/stm32f7xx_ll_tim.h **** #define LL_TIM_DMABURST_BASEADDR_CCMR3         (TIM_DCR_DBA_4 | TIM_DCR_DBA_2 | TIM_DCR_DBA_0)     
1042:Drivers/STM32F7xx_HAL_Driver/Inc/stm32f7xx_ll_tim.h **** #define LL_TIM_DMABURST_BASEADDR_CCR5          (TIM_DCR_DBA_4 | TIM_DCR_DBA_2 | TIM_DCR_DBA_1)     
1043:Drivers/STM32F7xx_HAL_Driver/Inc/stm32f7xx_ll_tim.h **** #define LL_TIM_DMABURST_BASEADDR_CCR6          (TIM_DCR_DBA_4 | TIM_DCR_DBA_2 | TIM_DCR_DBA_1 | TIM
1044:Drivers/STM32F7xx_HAL_Driver/Inc/stm32f7xx_ll_tim.h **** #if defined(TIM_AF1_BKINE)&&defined(TIM_AF2_BKINE)
1045:Drivers/STM32F7xx_HAL_Driver/Inc/stm32f7xx_ll_tim.h **** #define LL_TIM_DMABURST_BASEADDR_AF1           (TIM_DCR_DBA_4 | TIM_DCR_DBA_3)                     
1046:Drivers/STM32F7xx_HAL_Driver/Inc/stm32f7xx_ll_tim.h **** #define LL_TIM_DMABURST_BASEADDR_AF2           (TIM_DCR_DBA_4 | TIM_DCR_DBA_3 | TIM_DCR_DBA_0)     
1047:Drivers/STM32F7xx_HAL_Driver/Inc/stm32f7xx_ll_tim.h **** #endif /* TIM_AF1_BKINE && TIM_AF2_BKINE */
1048:Drivers/STM32F7xx_HAL_Driver/Inc/stm32f7xx_ll_tim.h **** /**
1049:Drivers/STM32F7xx_HAL_Driver/Inc/stm32f7xx_ll_tim.h ****   * @}
1050:Drivers/STM32F7xx_HAL_Driver/Inc/stm32f7xx_ll_tim.h ****   */
1051:Drivers/STM32F7xx_HAL_Driver/Inc/stm32f7xx_ll_tim.h **** 
1052:Drivers/STM32F7xx_HAL_Driver/Inc/stm32f7xx_ll_tim.h **** /** @defgroup TIM_LL_EC_DMABURST_LENGTH DMA Burst Length
1053:Drivers/STM32F7xx_HAL_Driver/Inc/stm32f7xx_ll_tim.h ****   * @{
1054:Drivers/STM32F7xx_HAL_Driver/Inc/stm32f7xx_ll_tim.h ****   */
1055:Drivers/STM32F7xx_HAL_Driver/Inc/stm32f7xx_ll_tim.h **** #define LL_TIM_DMABURST_LENGTH_1TRANSFER       0x00000000U                                         
1056:Drivers/STM32F7xx_HAL_Driver/Inc/stm32f7xx_ll_tim.h **** #define LL_TIM_DMABURST_LENGTH_2TRANSFERS      TIM_DCR_DBL_0                                       
1057:Drivers/STM32F7xx_HAL_Driver/Inc/stm32f7xx_ll_tim.h **** #define LL_TIM_DMABURST_LENGTH_3TRANSFERS      TIM_DCR_DBL_1                                       
1058:Drivers/STM32F7xx_HAL_Driver/Inc/stm32f7xx_ll_tim.h **** #define LL_TIM_DMABURST_LENGTH_4TRANSFERS      (TIM_DCR_DBL_1 |  TIM_DCR_DBL_0)                    
1059:Drivers/STM32F7xx_HAL_Driver/Inc/stm32f7xx_ll_tim.h **** #define LL_TIM_DMABURST_LENGTH_5TRANSFERS      TIM_DCR_DBL_2                                       
1060:Drivers/STM32F7xx_HAL_Driver/Inc/stm32f7xx_ll_tim.h **** #define LL_TIM_DMABURST_LENGTH_6TRANSFERS      (TIM_DCR_DBL_2 | TIM_DCR_DBL_0)                     
1061:Drivers/STM32F7xx_HAL_Driver/Inc/stm32f7xx_ll_tim.h **** #define LL_TIM_DMABURST_LENGTH_7TRANSFERS      (TIM_DCR_DBL_2 | TIM_DCR_DBL_1)                     
1062:Drivers/STM32F7xx_HAL_Driver/Inc/stm32f7xx_ll_tim.h **** #define LL_TIM_DMABURST_LENGTH_8TRANSFERS      (TIM_DCR_DBL_2 | TIM_DCR_DBL_1 | TIM_DCR_DBL_0)     
1063:Drivers/STM32F7xx_HAL_Driver/Inc/stm32f7xx_ll_tim.h **** #define LL_TIM_DMABURST_LENGTH_9TRANSFERS      TIM_DCR_DBL_3                                       
1064:Drivers/STM32F7xx_HAL_Driver/Inc/stm32f7xx_ll_tim.h **** #define LL_TIM_DMABURST_LENGTH_10TRANSFERS     (TIM_DCR_DBL_3 | TIM_DCR_DBL_0)                     
1065:Drivers/STM32F7xx_HAL_Driver/Inc/stm32f7xx_ll_tim.h **** #define LL_TIM_DMABURST_LENGTH_11TRANSFERS     (TIM_DCR_DBL_3 | TIM_DCR_DBL_1)                     
1066:Drivers/STM32F7xx_HAL_Driver/Inc/stm32f7xx_ll_tim.h **** #define LL_TIM_DMABURST_LENGTH_12TRANSFERS     (TIM_DCR_DBL_3 | TIM_DCR_DBL_1 | TIM_DCR_DBL_0)     
1067:Drivers/STM32F7xx_HAL_Driver/Inc/stm32f7xx_ll_tim.h **** #define LL_TIM_DMABURST_LENGTH_13TRANSFERS     (TIM_DCR_DBL_3 | TIM_DCR_DBL_2)                     
1068:Drivers/STM32F7xx_HAL_Driver/Inc/stm32f7xx_ll_tim.h **** #define LL_TIM_DMABURST_LENGTH_14TRANSFERS     (TIM_DCR_DBL_3 | TIM_DCR_DBL_2 | TIM_DCR_DBL_0)     
1069:Drivers/STM32F7xx_HAL_Driver/Inc/stm32f7xx_ll_tim.h **** #define LL_TIM_DMABURST_LENGTH_15TRANSFERS     (TIM_DCR_DBL_3 | TIM_DCR_DBL_2 | TIM_DCR_DBL_1)     
1070:Drivers/STM32F7xx_HAL_Driver/Inc/stm32f7xx_ll_tim.h **** #define LL_TIM_DMABURST_LENGTH_16TRANSFERS     (TIM_DCR_DBL_3 | TIM_DCR_DBL_2 | TIM_DCR_DBL_1 | TIM
1071:Drivers/STM32F7xx_HAL_Driver/Inc/stm32f7xx_ll_tim.h **** #define LL_TIM_DMABURST_LENGTH_17TRANSFERS     TIM_DCR_DBL_4                                       
1072:Drivers/STM32F7xx_HAL_Driver/Inc/stm32f7xx_ll_tim.h **** #define LL_TIM_DMABURST_LENGTH_18TRANSFERS     (TIM_DCR_DBL_4 |  TIM_DCR_DBL_0)                    
1073:Drivers/STM32F7xx_HAL_Driver/Inc/stm32f7xx_ll_tim.h **** /**
1074:Drivers/STM32F7xx_HAL_Driver/Inc/stm32f7xx_ll_tim.h ****   * @}
1075:Drivers/STM32F7xx_HAL_Driver/Inc/stm32f7xx_ll_tim.h ****   */
1076:Drivers/STM32F7xx_HAL_Driver/Inc/stm32f7xx_ll_tim.h **** 
1077:Drivers/STM32F7xx_HAL_Driver/Inc/stm32f7xx_ll_tim.h **** 
1078:Drivers/STM32F7xx_HAL_Driver/Inc/stm32f7xx_ll_tim.h **** /** @defgroup TIM_LL_EC_TIM2_ITR1_RMP_TIM8  TIM2 Internal Trigger1 Remap TIM8
1079:Drivers/STM32F7xx_HAL_Driver/Inc/stm32f7xx_ll_tim.h ****   * @{
1080:Drivers/STM32F7xx_HAL_Driver/Inc/stm32f7xx_ll_tim.h ****   */
1081:Drivers/STM32F7xx_HAL_Driver/Inc/stm32f7xx_ll_tim.h **** #define LL_TIM_TIM2_ITR1_RMP_TIM8_TRGO    TIM2_OR_RMP_MASK                           /*!< TIM2_ITR1
1082:Drivers/STM32F7xx_HAL_Driver/Inc/stm32f7xx_ll_tim.h **** #define LL_TIM_TIM2_ITR1_RMP_ETH_PTP      (TIM2_OR_ITR1_RMP_0 | TIM2_OR_RMP_MASK)    /*!< TIM2_ITR1
1083:Drivers/STM32F7xx_HAL_Driver/Inc/stm32f7xx_ll_tim.h **** #define LL_TIM_TIM2_ITR1_RMP_OTG_FS_SOF   (TIM2_OR_ITR1_RMP_1 | TIM2_OR_RMP_MASK)    /*!< TIM2_ITR1
1084:Drivers/STM32F7xx_HAL_Driver/Inc/stm32f7xx_ll_tim.h **** #define LL_TIM_TIM2_ITR1_RMP_OTG_HS_SOF   (TIM2_OR_ITR1_RMP | TIM2_OR_RMP_MASK)      /*!< TIM2_ITR1
1085:Drivers/STM32F7xx_HAL_Driver/Inc/stm32f7xx_ll_tim.h **** /**
ARM GAS  C:\Users\Giorgio\AppData\Local\Temp\cc3JIPZT.s 			page 25


1086:Drivers/STM32F7xx_HAL_Driver/Inc/stm32f7xx_ll_tim.h ****   * @}
1087:Drivers/STM32F7xx_HAL_Driver/Inc/stm32f7xx_ll_tim.h ****   */
1088:Drivers/STM32F7xx_HAL_Driver/Inc/stm32f7xx_ll_tim.h **** 
1089:Drivers/STM32F7xx_HAL_Driver/Inc/stm32f7xx_ll_tim.h **** /** @defgroup TIM_LL_EC_TIM5_TI4_RMP  TIM5 External Input Ch4 Remap
1090:Drivers/STM32F7xx_HAL_Driver/Inc/stm32f7xx_ll_tim.h ****   * @{
1091:Drivers/STM32F7xx_HAL_Driver/Inc/stm32f7xx_ll_tim.h ****   */
1092:Drivers/STM32F7xx_HAL_Driver/Inc/stm32f7xx_ll_tim.h **** #define LL_TIM_TIM5_TI4_RMP_GPIO        TIM5_OR_RMP_MASK                             /*!< TIM5 chan
1093:Drivers/STM32F7xx_HAL_Driver/Inc/stm32f7xx_ll_tim.h **** #define LL_TIM_TIM5_TI4_RMP_LSI         (TIM5_OR_TI4_RMP_0 | TIM5_OR_RMP_MASK)       /*!< TIM5 chan
1094:Drivers/STM32F7xx_HAL_Driver/Inc/stm32f7xx_ll_tim.h **** #define LL_TIM_TIM5_TI4_RMP_LSE         (TIM5_OR_TI4_RMP_1 | TIM5_OR_RMP_MASK)       /*!< TIM5 chan
1095:Drivers/STM32F7xx_HAL_Driver/Inc/stm32f7xx_ll_tim.h **** #define LL_TIM_TIM5_TI4_RMP_RTC         (TIM5_OR_TI4_RMP | TIM5_OR_RMP_MASK)         /*!< TIM5 chan
1096:Drivers/STM32F7xx_HAL_Driver/Inc/stm32f7xx_ll_tim.h **** /**
1097:Drivers/STM32F7xx_HAL_Driver/Inc/stm32f7xx_ll_tim.h ****   * @}
1098:Drivers/STM32F7xx_HAL_Driver/Inc/stm32f7xx_ll_tim.h ****   */
1099:Drivers/STM32F7xx_HAL_Driver/Inc/stm32f7xx_ll_tim.h **** 
1100:Drivers/STM32F7xx_HAL_Driver/Inc/stm32f7xx_ll_tim.h **** /** @defgroup TIM_LL_EC_TIM11_TI1_RMP  TIM11 External Input Capture 1 Remap
1101:Drivers/STM32F7xx_HAL_Driver/Inc/stm32f7xx_ll_tim.h ****   * @{
1102:Drivers/STM32F7xx_HAL_Driver/Inc/stm32f7xx_ll_tim.h ****   */
1103:Drivers/STM32F7xx_HAL_Driver/Inc/stm32f7xx_ll_tim.h **** #define LL_TIM_TIM11_TI1_RMP_GPIO        TIM11_OR_RMP_MASK                           /*!< TIM11 cha
1104:Drivers/STM32F7xx_HAL_Driver/Inc/stm32f7xx_ll_tim.h **** #define LL_TIM_TIM11_TI1_RMP_SPDIFRX     (TIM11_OR_TI1_RMP_0 | TIM11_OR_RMP_MASK)    /*!< TIM11 cha
1105:Drivers/STM32F7xx_HAL_Driver/Inc/stm32f7xx_ll_tim.h **** #define LL_TIM_TIM11_TI1_RMP_HSE         (TIM11_OR_TI1_RMP_1 | TIM11_OR_RMP_MASK)    /*!< TIM11 cha
1106:Drivers/STM32F7xx_HAL_Driver/Inc/stm32f7xx_ll_tim.h **** #define LL_TIM_TIM11_TI1_RMP_MCO1        (TIM11_OR_TI1_RMP | TIM11_OR_RMP_MASK)      /*!< TIM11 cha
1107:Drivers/STM32F7xx_HAL_Driver/Inc/stm32f7xx_ll_tim.h **** /**
1108:Drivers/STM32F7xx_HAL_Driver/Inc/stm32f7xx_ll_tim.h ****   * @}
1109:Drivers/STM32F7xx_HAL_Driver/Inc/stm32f7xx_ll_tim.h ****   */
1110:Drivers/STM32F7xx_HAL_Driver/Inc/stm32f7xx_ll_tim.h **** 
1111:Drivers/STM32F7xx_HAL_Driver/Inc/stm32f7xx_ll_tim.h **** /**
1112:Drivers/STM32F7xx_HAL_Driver/Inc/stm32f7xx_ll_tim.h ****   * @}
1113:Drivers/STM32F7xx_HAL_Driver/Inc/stm32f7xx_ll_tim.h ****   */
1114:Drivers/STM32F7xx_HAL_Driver/Inc/stm32f7xx_ll_tim.h **** 
1115:Drivers/STM32F7xx_HAL_Driver/Inc/stm32f7xx_ll_tim.h **** /**
1116:Drivers/STM32F7xx_HAL_Driver/Inc/stm32f7xx_ll_tim.h ****   * @}
1117:Drivers/STM32F7xx_HAL_Driver/Inc/stm32f7xx_ll_tim.h ****   */
1118:Drivers/STM32F7xx_HAL_Driver/Inc/stm32f7xx_ll_tim.h **** 
1119:Drivers/STM32F7xx_HAL_Driver/Inc/stm32f7xx_ll_tim.h **** /* Exported macro ------------------------------------------------------------*/
1120:Drivers/STM32F7xx_HAL_Driver/Inc/stm32f7xx_ll_tim.h **** /** @defgroup TIM_LL_Exported_Macros TIM Exported Macros
1121:Drivers/STM32F7xx_HAL_Driver/Inc/stm32f7xx_ll_tim.h ****   * @{
1122:Drivers/STM32F7xx_HAL_Driver/Inc/stm32f7xx_ll_tim.h ****   */
1123:Drivers/STM32F7xx_HAL_Driver/Inc/stm32f7xx_ll_tim.h **** 
1124:Drivers/STM32F7xx_HAL_Driver/Inc/stm32f7xx_ll_tim.h **** /** @defgroup TIM_LL_EM_WRITE_READ Common Write and read registers Macros
1125:Drivers/STM32F7xx_HAL_Driver/Inc/stm32f7xx_ll_tim.h ****   * @{
1126:Drivers/STM32F7xx_HAL_Driver/Inc/stm32f7xx_ll_tim.h ****   */
1127:Drivers/STM32F7xx_HAL_Driver/Inc/stm32f7xx_ll_tim.h **** /**
1128:Drivers/STM32F7xx_HAL_Driver/Inc/stm32f7xx_ll_tim.h ****   * @brief  Write a value in TIM register.
1129:Drivers/STM32F7xx_HAL_Driver/Inc/stm32f7xx_ll_tim.h ****   * @param  __INSTANCE__ TIM Instance
1130:Drivers/STM32F7xx_HAL_Driver/Inc/stm32f7xx_ll_tim.h ****   * @param  __REG__ Register to be written
1131:Drivers/STM32F7xx_HAL_Driver/Inc/stm32f7xx_ll_tim.h ****   * @param  __VALUE__ Value to be written in the register
1132:Drivers/STM32F7xx_HAL_Driver/Inc/stm32f7xx_ll_tim.h ****   * @retval None
1133:Drivers/STM32F7xx_HAL_Driver/Inc/stm32f7xx_ll_tim.h ****   */
1134:Drivers/STM32F7xx_HAL_Driver/Inc/stm32f7xx_ll_tim.h **** #define LL_TIM_WriteReg(__INSTANCE__, __REG__, __VALUE__) WRITE_REG((__INSTANCE__)->__REG__, (__VAL
1135:Drivers/STM32F7xx_HAL_Driver/Inc/stm32f7xx_ll_tim.h **** 
1136:Drivers/STM32F7xx_HAL_Driver/Inc/stm32f7xx_ll_tim.h **** /**
1137:Drivers/STM32F7xx_HAL_Driver/Inc/stm32f7xx_ll_tim.h ****   * @brief  Read a value in TIM register.
1138:Drivers/STM32F7xx_HAL_Driver/Inc/stm32f7xx_ll_tim.h ****   * @param  __INSTANCE__ TIM Instance
1139:Drivers/STM32F7xx_HAL_Driver/Inc/stm32f7xx_ll_tim.h ****   * @param  __REG__ Register to be read
1140:Drivers/STM32F7xx_HAL_Driver/Inc/stm32f7xx_ll_tim.h ****   * @retval Register value
1141:Drivers/STM32F7xx_HAL_Driver/Inc/stm32f7xx_ll_tim.h ****   */
1142:Drivers/STM32F7xx_HAL_Driver/Inc/stm32f7xx_ll_tim.h **** #define LL_TIM_ReadReg(__INSTANCE__, __REG__) READ_REG((__INSTANCE__)->__REG__)
ARM GAS  C:\Users\Giorgio\AppData\Local\Temp\cc3JIPZT.s 			page 26


1143:Drivers/STM32F7xx_HAL_Driver/Inc/stm32f7xx_ll_tim.h **** /**
1144:Drivers/STM32F7xx_HAL_Driver/Inc/stm32f7xx_ll_tim.h ****   * @}
1145:Drivers/STM32F7xx_HAL_Driver/Inc/stm32f7xx_ll_tim.h ****   */
1146:Drivers/STM32F7xx_HAL_Driver/Inc/stm32f7xx_ll_tim.h **** 
1147:Drivers/STM32F7xx_HAL_Driver/Inc/stm32f7xx_ll_tim.h **** /** @defgroup TIM_LL_EM_Exported_Macros Exported_Macros
1148:Drivers/STM32F7xx_HAL_Driver/Inc/stm32f7xx_ll_tim.h ****   * @{
1149:Drivers/STM32F7xx_HAL_Driver/Inc/stm32f7xx_ll_tim.h ****   */
1150:Drivers/STM32F7xx_HAL_Driver/Inc/stm32f7xx_ll_tim.h **** 
1151:Drivers/STM32F7xx_HAL_Driver/Inc/stm32f7xx_ll_tim.h **** /**
1152:Drivers/STM32F7xx_HAL_Driver/Inc/stm32f7xx_ll_tim.h ****   * @brief  HELPER macro retrieving the UIFCPY flag from the counter value.
1153:Drivers/STM32F7xx_HAL_Driver/Inc/stm32f7xx_ll_tim.h ****   * @note ex: @ref __LL_TIM_GETFLAG_UIFCPY (@ref LL_TIM_GetCounter ());
1154:Drivers/STM32F7xx_HAL_Driver/Inc/stm32f7xx_ll_tim.h ****   * @note  Relevant only if UIF flag remapping has been enabled  (UIF status bit is copied
1155:Drivers/STM32F7xx_HAL_Driver/Inc/stm32f7xx_ll_tim.h ****   *        to TIMx_CNT register bit 31)
1156:Drivers/STM32F7xx_HAL_Driver/Inc/stm32f7xx_ll_tim.h ****   * @param  __CNT__ Counter value
1157:Drivers/STM32F7xx_HAL_Driver/Inc/stm32f7xx_ll_tim.h ****   * @retval UIF status bit
1158:Drivers/STM32F7xx_HAL_Driver/Inc/stm32f7xx_ll_tim.h ****   */
1159:Drivers/STM32F7xx_HAL_Driver/Inc/stm32f7xx_ll_tim.h **** #define __LL_TIM_GETFLAG_UIFCPY(__CNT__)  \
1160:Drivers/STM32F7xx_HAL_Driver/Inc/stm32f7xx_ll_tim.h ****    (READ_BIT((__CNT__), TIM_CNT_UIFCPY) >> TIM_CNT_UIFCPY_Pos)
1161:Drivers/STM32F7xx_HAL_Driver/Inc/stm32f7xx_ll_tim.h **** 
1162:Drivers/STM32F7xx_HAL_Driver/Inc/stm32f7xx_ll_tim.h **** /**
1163:Drivers/STM32F7xx_HAL_Driver/Inc/stm32f7xx_ll_tim.h ****   * @brief  HELPER macro calculating DTG[0:7] in the TIMx_BDTR register to achieve the requested de
1164:Drivers/STM32F7xx_HAL_Driver/Inc/stm32f7xx_ll_tim.h ****   * @note ex: @ref __LL_TIM_CALC_DEADTIME (80000000, @ref LL_TIM_GetClockDivision (), 120);
1165:Drivers/STM32F7xx_HAL_Driver/Inc/stm32f7xx_ll_tim.h ****   * @param  __TIMCLK__ timer input clock frequency (in Hz)
1166:Drivers/STM32F7xx_HAL_Driver/Inc/stm32f7xx_ll_tim.h ****   * @param  __CKD__ This parameter can be one of the following values:
1167:Drivers/STM32F7xx_HAL_Driver/Inc/stm32f7xx_ll_tim.h ****   *         @arg @ref LL_TIM_CLOCKDIVISION_DIV1
1168:Drivers/STM32F7xx_HAL_Driver/Inc/stm32f7xx_ll_tim.h ****   *         @arg @ref LL_TIM_CLOCKDIVISION_DIV2
1169:Drivers/STM32F7xx_HAL_Driver/Inc/stm32f7xx_ll_tim.h ****   *         @arg @ref LL_TIM_CLOCKDIVISION_DIV4
1170:Drivers/STM32F7xx_HAL_Driver/Inc/stm32f7xx_ll_tim.h ****   * @param  __DT__ deadtime duration (in ns)
1171:Drivers/STM32F7xx_HAL_Driver/Inc/stm32f7xx_ll_tim.h ****   * @retval DTG[0:7]
1172:Drivers/STM32F7xx_HAL_Driver/Inc/stm32f7xx_ll_tim.h ****   */
1173:Drivers/STM32F7xx_HAL_Driver/Inc/stm32f7xx_ll_tim.h **** #define __LL_TIM_CALC_DEADTIME(__TIMCLK__, __CKD__, __DT__)  \
1174:Drivers/STM32F7xx_HAL_Driver/Inc/stm32f7xx_ll_tim.h ****     ( (((uint64_t)((__DT__)*1000U)) < ((DT_DELAY_1+1U) * TIM_CALC_DTS((__TIMCLK__), (__CKD__))))   
1175:Drivers/STM32F7xx_HAL_Driver/Inc/stm32f7xx_ll_tim.h ****       (((uint64_t)((__DT__)*1000U)) < ((64U + (DT_DELAY_2+1U)) * 2U * TIM_CALC_DTS((__TIMCLK__), (_
1176:Drivers/STM32F7xx_HAL_Driver/Inc/stm32f7xx_ll_tim.h ****       (((uint64_t)((__DT__)*1000U)) < ((32U + (DT_DELAY_3+1U)) * 8U * TIM_CALC_DTS((__TIMCLK__), (_
1177:Drivers/STM32F7xx_HAL_Driver/Inc/stm32f7xx_ll_tim.h ****       (((uint64_t)((__DT__)*1000U)) < ((32U + (DT_DELAY_4+1U)) * 16U * TIM_CALC_DTS((__TIMCLK__), (
1178:Drivers/STM32F7xx_HAL_Driver/Inc/stm32f7xx_ll_tim.h ****        0U)
1179:Drivers/STM32F7xx_HAL_Driver/Inc/stm32f7xx_ll_tim.h **** 
1180:Drivers/STM32F7xx_HAL_Driver/Inc/stm32f7xx_ll_tim.h **** /**
1181:Drivers/STM32F7xx_HAL_Driver/Inc/stm32f7xx_ll_tim.h ****   * @brief  HELPER macro calculating the prescaler value to achieve the required counter clock freq
1182:Drivers/STM32F7xx_HAL_Driver/Inc/stm32f7xx_ll_tim.h ****   * @note ex: @ref __LL_TIM_CALC_PSC (80000000, 1000000);
1183:Drivers/STM32F7xx_HAL_Driver/Inc/stm32f7xx_ll_tim.h ****   * @param  __TIMCLK__ timer input clock frequency (in Hz)
1184:Drivers/STM32F7xx_HAL_Driver/Inc/stm32f7xx_ll_tim.h ****   * @param  __CNTCLK__ counter clock frequency (in Hz)
1185:Drivers/STM32F7xx_HAL_Driver/Inc/stm32f7xx_ll_tim.h ****   * @retval Prescaler value  (between Min_Data=0 and Max_Data=65535)
1186:Drivers/STM32F7xx_HAL_Driver/Inc/stm32f7xx_ll_tim.h ****   */
1187:Drivers/STM32F7xx_HAL_Driver/Inc/stm32f7xx_ll_tim.h **** #define __LL_TIM_CALC_PSC(__TIMCLK__, __CNTCLK__)   \
1188:Drivers/STM32F7xx_HAL_Driver/Inc/stm32f7xx_ll_tim.h ****    (((__TIMCLK__) >= (__CNTCLK__)) ? (uint32_t)(((__TIMCLK__)/(__CNTCLK__)) - 1U) : 0U)
1189:Drivers/STM32F7xx_HAL_Driver/Inc/stm32f7xx_ll_tim.h **** 
1190:Drivers/STM32F7xx_HAL_Driver/Inc/stm32f7xx_ll_tim.h **** /**
1191:Drivers/STM32F7xx_HAL_Driver/Inc/stm32f7xx_ll_tim.h ****   * @brief  HELPER macro calculating the auto-reload value to achieve the required output signal fr
1192:Drivers/STM32F7xx_HAL_Driver/Inc/stm32f7xx_ll_tim.h ****   * @note ex: @ref __LL_TIM_CALC_ARR (1000000, @ref LL_TIM_GetPrescaler (), 10000);
1193:Drivers/STM32F7xx_HAL_Driver/Inc/stm32f7xx_ll_tim.h ****   * @param  __TIMCLK__ timer input clock frequency (in Hz)
1194:Drivers/STM32F7xx_HAL_Driver/Inc/stm32f7xx_ll_tim.h ****   * @param  __PSC__ prescaler
1195:Drivers/STM32F7xx_HAL_Driver/Inc/stm32f7xx_ll_tim.h ****   * @param  __FREQ__ output signal frequency (in Hz)
1196:Drivers/STM32F7xx_HAL_Driver/Inc/stm32f7xx_ll_tim.h ****   * @retval  Auto-reload value  (between Min_Data=0 and Max_Data=65535)
1197:Drivers/STM32F7xx_HAL_Driver/Inc/stm32f7xx_ll_tim.h ****   */
1198:Drivers/STM32F7xx_HAL_Driver/Inc/stm32f7xx_ll_tim.h **** #define __LL_TIM_CALC_ARR(__TIMCLK__, __PSC__, __FREQ__) \
1199:Drivers/STM32F7xx_HAL_Driver/Inc/stm32f7xx_ll_tim.h ****      ((((__TIMCLK__)/((__PSC__) + 1U)) >= (__FREQ__)) ? (((__TIMCLK__)/((__FREQ__) * ((__PSC__) + 1
ARM GAS  C:\Users\Giorgio\AppData\Local\Temp\cc3JIPZT.s 			page 27


1200:Drivers/STM32F7xx_HAL_Driver/Inc/stm32f7xx_ll_tim.h **** 
1201:Drivers/STM32F7xx_HAL_Driver/Inc/stm32f7xx_ll_tim.h **** /**
1202:Drivers/STM32F7xx_HAL_Driver/Inc/stm32f7xx_ll_tim.h ****   * @brief  HELPER macro calculating the compare value required to achieve the required timer outpu
1203:Drivers/STM32F7xx_HAL_Driver/Inc/stm32f7xx_ll_tim.h ****   * @note ex: @ref __LL_TIM_CALC_DELAY (1000000, @ref LL_TIM_GetPrescaler (), 10);
1204:Drivers/STM32F7xx_HAL_Driver/Inc/stm32f7xx_ll_tim.h ****   * @param  __TIMCLK__ timer input clock frequency (in Hz)
1205:Drivers/STM32F7xx_HAL_Driver/Inc/stm32f7xx_ll_tim.h ****   * @param  __PSC__ prescaler
1206:Drivers/STM32F7xx_HAL_Driver/Inc/stm32f7xx_ll_tim.h ****   * @param  __DELAY__ timer output compare active/inactive delay (in us)
1207:Drivers/STM32F7xx_HAL_Driver/Inc/stm32f7xx_ll_tim.h ****   * @retval Compare value  (between Min_Data=0 and Max_Data=65535)
1208:Drivers/STM32F7xx_HAL_Driver/Inc/stm32f7xx_ll_tim.h ****   */
1209:Drivers/STM32F7xx_HAL_Driver/Inc/stm32f7xx_ll_tim.h **** #define __LL_TIM_CALC_DELAY(__TIMCLK__, __PSC__, __DELAY__)  \
1210:Drivers/STM32F7xx_HAL_Driver/Inc/stm32f7xx_ll_tim.h **** ((uint32_t)(((uint64_t)(__TIMCLK__) * (uint64_t)(__DELAY__)) \
1211:Drivers/STM32F7xx_HAL_Driver/Inc/stm32f7xx_ll_tim.h ****           / ((uint64_t)1000000U * (uint64_t)((__PSC__) + 1U))))
1212:Drivers/STM32F7xx_HAL_Driver/Inc/stm32f7xx_ll_tim.h **** 
1213:Drivers/STM32F7xx_HAL_Driver/Inc/stm32f7xx_ll_tim.h **** /**
1214:Drivers/STM32F7xx_HAL_Driver/Inc/stm32f7xx_ll_tim.h ****   * @brief  HELPER macro calculating the auto-reload value to achieve the required pulse duration (
1215:Drivers/STM32F7xx_HAL_Driver/Inc/stm32f7xx_ll_tim.h ****   * @note ex: @ref __LL_TIM_CALC_PULSE (1000000, @ref LL_TIM_GetPrescaler (), 10, 20);
1216:Drivers/STM32F7xx_HAL_Driver/Inc/stm32f7xx_ll_tim.h ****   * @param  __TIMCLK__ timer input clock frequency (in Hz)
1217:Drivers/STM32F7xx_HAL_Driver/Inc/stm32f7xx_ll_tim.h ****   * @param  __PSC__ prescaler
1218:Drivers/STM32F7xx_HAL_Driver/Inc/stm32f7xx_ll_tim.h ****   * @param  __DELAY__ timer output compare active/inactive delay (in us)
1219:Drivers/STM32F7xx_HAL_Driver/Inc/stm32f7xx_ll_tim.h ****   * @param  __PULSE__ pulse duration (in us)
1220:Drivers/STM32F7xx_HAL_Driver/Inc/stm32f7xx_ll_tim.h ****   * @retval Auto-reload value  (between Min_Data=0 and Max_Data=65535)
1221:Drivers/STM32F7xx_HAL_Driver/Inc/stm32f7xx_ll_tim.h ****   */
1222:Drivers/STM32F7xx_HAL_Driver/Inc/stm32f7xx_ll_tim.h **** #define __LL_TIM_CALC_PULSE(__TIMCLK__, __PSC__, __DELAY__, __PULSE__)  \
1223:Drivers/STM32F7xx_HAL_Driver/Inc/stm32f7xx_ll_tim.h ****  ((uint32_t)(__LL_TIM_CALC_DELAY((__TIMCLK__), (__PSC__), (__PULSE__)) \
1224:Drivers/STM32F7xx_HAL_Driver/Inc/stm32f7xx_ll_tim.h ****            + __LL_TIM_CALC_DELAY((__TIMCLK__), (__PSC__), (__DELAY__))))
1225:Drivers/STM32F7xx_HAL_Driver/Inc/stm32f7xx_ll_tim.h **** 
1226:Drivers/STM32F7xx_HAL_Driver/Inc/stm32f7xx_ll_tim.h **** /**
1227:Drivers/STM32F7xx_HAL_Driver/Inc/stm32f7xx_ll_tim.h ****   * @brief  HELPER macro retrieving the ratio of the input capture prescaler
1228:Drivers/STM32F7xx_HAL_Driver/Inc/stm32f7xx_ll_tim.h ****   * @note ex: @ref __LL_TIM_GET_ICPSC_RATIO (@ref LL_TIM_IC_GetPrescaler ());
1229:Drivers/STM32F7xx_HAL_Driver/Inc/stm32f7xx_ll_tim.h ****   * @param  __ICPSC__ This parameter can be one of the following values:
1230:Drivers/STM32F7xx_HAL_Driver/Inc/stm32f7xx_ll_tim.h ****   *         @arg @ref LL_TIM_ICPSC_DIV1
1231:Drivers/STM32F7xx_HAL_Driver/Inc/stm32f7xx_ll_tim.h ****   *         @arg @ref LL_TIM_ICPSC_DIV2
1232:Drivers/STM32F7xx_HAL_Driver/Inc/stm32f7xx_ll_tim.h ****   *         @arg @ref LL_TIM_ICPSC_DIV4
1233:Drivers/STM32F7xx_HAL_Driver/Inc/stm32f7xx_ll_tim.h ****   *         @arg @ref LL_TIM_ICPSC_DIV8
1234:Drivers/STM32F7xx_HAL_Driver/Inc/stm32f7xx_ll_tim.h ****   * @retval Input capture prescaler ratio (1, 2, 4 or 8)
1235:Drivers/STM32F7xx_HAL_Driver/Inc/stm32f7xx_ll_tim.h ****   */
1236:Drivers/STM32F7xx_HAL_Driver/Inc/stm32f7xx_ll_tim.h **** #define __LL_TIM_GET_ICPSC_RATIO(__ICPSC__)  \
1237:Drivers/STM32F7xx_HAL_Driver/Inc/stm32f7xx_ll_tim.h ****    ((uint32_t)(0x01U << (((__ICPSC__) >> 16U) >> TIM_CCMR1_IC1PSC_Pos)))
1238:Drivers/STM32F7xx_HAL_Driver/Inc/stm32f7xx_ll_tim.h **** 
1239:Drivers/STM32F7xx_HAL_Driver/Inc/stm32f7xx_ll_tim.h **** 
1240:Drivers/STM32F7xx_HAL_Driver/Inc/stm32f7xx_ll_tim.h **** /**
1241:Drivers/STM32F7xx_HAL_Driver/Inc/stm32f7xx_ll_tim.h ****   * @}
1242:Drivers/STM32F7xx_HAL_Driver/Inc/stm32f7xx_ll_tim.h ****   */
1243:Drivers/STM32F7xx_HAL_Driver/Inc/stm32f7xx_ll_tim.h **** 
1244:Drivers/STM32F7xx_HAL_Driver/Inc/stm32f7xx_ll_tim.h **** 
1245:Drivers/STM32F7xx_HAL_Driver/Inc/stm32f7xx_ll_tim.h **** /**
1246:Drivers/STM32F7xx_HAL_Driver/Inc/stm32f7xx_ll_tim.h ****   * @}
1247:Drivers/STM32F7xx_HAL_Driver/Inc/stm32f7xx_ll_tim.h ****   */
1248:Drivers/STM32F7xx_HAL_Driver/Inc/stm32f7xx_ll_tim.h **** 
1249:Drivers/STM32F7xx_HAL_Driver/Inc/stm32f7xx_ll_tim.h **** /* Exported functions --------------------------------------------------------*/
1250:Drivers/STM32F7xx_HAL_Driver/Inc/stm32f7xx_ll_tim.h **** /** @defgroup TIM_LL_Exported_Functions TIM Exported Functions
1251:Drivers/STM32F7xx_HAL_Driver/Inc/stm32f7xx_ll_tim.h ****   * @{
1252:Drivers/STM32F7xx_HAL_Driver/Inc/stm32f7xx_ll_tim.h ****   */
1253:Drivers/STM32F7xx_HAL_Driver/Inc/stm32f7xx_ll_tim.h **** 
1254:Drivers/STM32F7xx_HAL_Driver/Inc/stm32f7xx_ll_tim.h **** /** @defgroup TIM_LL_EF_Time_Base Time Base configuration
1255:Drivers/STM32F7xx_HAL_Driver/Inc/stm32f7xx_ll_tim.h ****   * @{
1256:Drivers/STM32F7xx_HAL_Driver/Inc/stm32f7xx_ll_tim.h ****   */
ARM GAS  C:\Users\Giorgio\AppData\Local\Temp\cc3JIPZT.s 			page 28


1257:Drivers/STM32F7xx_HAL_Driver/Inc/stm32f7xx_ll_tim.h **** /**
1258:Drivers/STM32F7xx_HAL_Driver/Inc/stm32f7xx_ll_tim.h ****   * @brief  Enable timer counter.
1259:Drivers/STM32F7xx_HAL_Driver/Inc/stm32f7xx_ll_tim.h ****   * @rmtoll CR1          CEN           LL_TIM_EnableCounter
1260:Drivers/STM32F7xx_HAL_Driver/Inc/stm32f7xx_ll_tim.h ****   * @param  TIMx Timer instance
1261:Drivers/STM32F7xx_HAL_Driver/Inc/stm32f7xx_ll_tim.h ****   * @retval None
1262:Drivers/STM32F7xx_HAL_Driver/Inc/stm32f7xx_ll_tim.h ****   */
1263:Drivers/STM32F7xx_HAL_Driver/Inc/stm32f7xx_ll_tim.h **** __STATIC_INLINE void LL_TIM_EnableCounter(TIM_TypeDef *TIMx)
1264:Drivers/STM32F7xx_HAL_Driver/Inc/stm32f7xx_ll_tim.h **** {
1265:Drivers/STM32F7xx_HAL_Driver/Inc/stm32f7xx_ll_tim.h ****   SET_BIT(TIMx->CR1, TIM_CR1_CEN);
1266:Drivers/STM32F7xx_HAL_Driver/Inc/stm32f7xx_ll_tim.h **** }
1267:Drivers/STM32F7xx_HAL_Driver/Inc/stm32f7xx_ll_tim.h **** 
1268:Drivers/STM32F7xx_HAL_Driver/Inc/stm32f7xx_ll_tim.h **** /**
1269:Drivers/STM32F7xx_HAL_Driver/Inc/stm32f7xx_ll_tim.h ****   * @brief  Disable timer counter.
1270:Drivers/STM32F7xx_HAL_Driver/Inc/stm32f7xx_ll_tim.h ****   * @rmtoll CR1          CEN           LL_TIM_DisableCounter
1271:Drivers/STM32F7xx_HAL_Driver/Inc/stm32f7xx_ll_tim.h ****   * @param  TIMx Timer instance
1272:Drivers/STM32F7xx_HAL_Driver/Inc/stm32f7xx_ll_tim.h ****   * @retval None
1273:Drivers/STM32F7xx_HAL_Driver/Inc/stm32f7xx_ll_tim.h ****   */
1274:Drivers/STM32F7xx_HAL_Driver/Inc/stm32f7xx_ll_tim.h **** __STATIC_INLINE void LL_TIM_DisableCounter(TIM_TypeDef *TIMx)
1275:Drivers/STM32F7xx_HAL_Driver/Inc/stm32f7xx_ll_tim.h **** {
1276:Drivers/STM32F7xx_HAL_Driver/Inc/stm32f7xx_ll_tim.h ****   CLEAR_BIT(TIMx->CR1, TIM_CR1_CEN);
1277:Drivers/STM32F7xx_HAL_Driver/Inc/stm32f7xx_ll_tim.h **** }
1278:Drivers/STM32F7xx_HAL_Driver/Inc/stm32f7xx_ll_tim.h **** 
1279:Drivers/STM32F7xx_HAL_Driver/Inc/stm32f7xx_ll_tim.h **** /**
1280:Drivers/STM32F7xx_HAL_Driver/Inc/stm32f7xx_ll_tim.h ****   * @brief  Indicates whether the timer counter is enabled.
1281:Drivers/STM32F7xx_HAL_Driver/Inc/stm32f7xx_ll_tim.h ****   * @rmtoll CR1          CEN           LL_TIM_IsEnabledCounter
1282:Drivers/STM32F7xx_HAL_Driver/Inc/stm32f7xx_ll_tim.h ****   * @param  TIMx Timer instance
1283:Drivers/STM32F7xx_HAL_Driver/Inc/stm32f7xx_ll_tim.h ****   * @retval State of bit (1 or 0).
1284:Drivers/STM32F7xx_HAL_Driver/Inc/stm32f7xx_ll_tim.h ****   */
1285:Drivers/STM32F7xx_HAL_Driver/Inc/stm32f7xx_ll_tim.h **** __STATIC_INLINE uint32_t LL_TIM_IsEnabledCounter(TIM_TypeDef *TIMx)
1286:Drivers/STM32F7xx_HAL_Driver/Inc/stm32f7xx_ll_tim.h **** {
1287:Drivers/STM32F7xx_HAL_Driver/Inc/stm32f7xx_ll_tim.h ****   return ((READ_BIT(TIMx->CR1, TIM_CR1_CEN) == (TIM_CR1_CEN)) ? 1UL : 0UL);
1288:Drivers/STM32F7xx_HAL_Driver/Inc/stm32f7xx_ll_tim.h **** }
1289:Drivers/STM32F7xx_HAL_Driver/Inc/stm32f7xx_ll_tim.h **** 
1290:Drivers/STM32F7xx_HAL_Driver/Inc/stm32f7xx_ll_tim.h **** /**
1291:Drivers/STM32F7xx_HAL_Driver/Inc/stm32f7xx_ll_tim.h ****   * @brief  Enable update event generation.
1292:Drivers/STM32F7xx_HAL_Driver/Inc/stm32f7xx_ll_tim.h ****   * @rmtoll CR1          UDIS          LL_TIM_EnableUpdateEvent
1293:Drivers/STM32F7xx_HAL_Driver/Inc/stm32f7xx_ll_tim.h ****   * @param  TIMx Timer instance
1294:Drivers/STM32F7xx_HAL_Driver/Inc/stm32f7xx_ll_tim.h ****   * @retval None
1295:Drivers/STM32F7xx_HAL_Driver/Inc/stm32f7xx_ll_tim.h ****   */
1296:Drivers/STM32F7xx_HAL_Driver/Inc/stm32f7xx_ll_tim.h **** __STATIC_INLINE void LL_TIM_EnableUpdateEvent(TIM_TypeDef *TIMx)
1297:Drivers/STM32F7xx_HAL_Driver/Inc/stm32f7xx_ll_tim.h **** {
1298:Drivers/STM32F7xx_HAL_Driver/Inc/stm32f7xx_ll_tim.h ****   CLEAR_BIT(TIMx->CR1, TIM_CR1_UDIS);
1299:Drivers/STM32F7xx_HAL_Driver/Inc/stm32f7xx_ll_tim.h **** }
1300:Drivers/STM32F7xx_HAL_Driver/Inc/stm32f7xx_ll_tim.h **** 
1301:Drivers/STM32F7xx_HAL_Driver/Inc/stm32f7xx_ll_tim.h **** /**
1302:Drivers/STM32F7xx_HAL_Driver/Inc/stm32f7xx_ll_tim.h ****   * @brief  Disable update event generation.
1303:Drivers/STM32F7xx_HAL_Driver/Inc/stm32f7xx_ll_tim.h ****   * @rmtoll CR1          UDIS          LL_TIM_DisableUpdateEvent
1304:Drivers/STM32F7xx_HAL_Driver/Inc/stm32f7xx_ll_tim.h ****   * @param  TIMx Timer instance
1305:Drivers/STM32F7xx_HAL_Driver/Inc/stm32f7xx_ll_tim.h ****   * @retval None
1306:Drivers/STM32F7xx_HAL_Driver/Inc/stm32f7xx_ll_tim.h ****   */
1307:Drivers/STM32F7xx_HAL_Driver/Inc/stm32f7xx_ll_tim.h **** __STATIC_INLINE void LL_TIM_DisableUpdateEvent(TIM_TypeDef *TIMx)
1308:Drivers/STM32F7xx_HAL_Driver/Inc/stm32f7xx_ll_tim.h **** {
1309:Drivers/STM32F7xx_HAL_Driver/Inc/stm32f7xx_ll_tim.h ****   SET_BIT(TIMx->CR1, TIM_CR1_UDIS);
1310:Drivers/STM32F7xx_HAL_Driver/Inc/stm32f7xx_ll_tim.h **** }
1311:Drivers/STM32F7xx_HAL_Driver/Inc/stm32f7xx_ll_tim.h **** 
1312:Drivers/STM32F7xx_HAL_Driver/Inc/stm32f7xx_ll_tim.h **** /**
1313:Drivers/STM32F7xx_HAL_Driver/Inc/stm32f7xx_ll_tim.h ****   * @brief  Indicates whether update event generation is enabled.
ARM GAS  C:\Users\Giorgio\AppData\Local\Temp\cc3JIPZT.s 			page 29


1314:Drivers/STM32F7xx_HAL_Driver/Inc/stm32f7xx_ll_tim.h ****   * @rmtoll CR1          UDIS          LL_TIM_IsEnabledUpdateEvent
1315:Drivers/STM32F7xx_HAL_Driver/Inc/stm32f7xx_ll_tim.h ****   * @param  TIMx Timer instance
1316:Drivers/STM32F7xx_HAL_Driver/Inc/stm32f7xx_ll_tim.h ****   * @retval Inverted state of bit (0 or 1).
1317:Drivers/STM32F7xx_HAL_Driver/Inc/stm32f7xx_ll_tim.h ****   */
1318:Drivers/STM32F7xx_HAL_Driver/Inc/stm32f7xx_ll_tim.h **** __STATIC_INLINE uint32_t LL_TIM_IsEnabledUpdateEvent(TIM_TypeDef *TIMx)
1319:Drivers/STM32F7xx_HAL_Driver/Inc/stm32f7xx_ll_tim.h **** {
1320:Drivers/STM32F7xx_HAL_Driver/Inc/stm32f7xx_ll_tim.h ****   return ((READ_BIT(TIMx->CR1, TIM_CR1_UDIS) == (uint32_t)RESET) ? 1UL : 0UL);
1321:Drivers/STM32F7xx_HAL_Driver/Inc/stm32f7xx_ll_tim.h **** }
1322:Drivers/STM32F7xx_HAL_Driver/Inc/stm32f7xx_ll_tim.h **** 
1323:Drivers/STM32F7xx_HAL_Driver/Inc/stm32f7xx_ll_tim.h **** /**
1324:Drivers/STM32F7xx_HAL_Driver/Inc/stm32f7xx_ll_tim.h ****   * @brief  Set update event source
1325:Drivers/STM32F7xx_HAL_Driver/Inc/stm32f7xx_ll_tim.h ****   * @note Update event source set to LL_TIM_UPDATESOURCE_REGULAR: any of the following events
1326:Drivers/STM32F7xx_HAL_Driver/Inc/stm32f7xx_ll_tim.h ****   *       generate an update interrupt or DMA request if enabled:
1327:Drivers/STM32F7xx_HAL_Driver/Inc/stm32f7xx_ll_tim.h ****   *        - Counter overflow/underflow
1328:Drivers/STM32F7xx_HAL_Driver/Inc/stm32f7xx_ll_tim.h ****   *        - Setting the UG bit
1329:Drivers/STM32F7xx_HAL_Driver/Inc/stm32f7xx_ll_tim.h ****   *        - Update generation through the slave mode controller
1330:Drivers/STM32F7xx_HAL_Driver/Inc/stm32f7xx_ll_tim.h ****   * @note Update event source set to LL_TIM_UPDATESOURCE_COUNTER: only counter
1331:Drivers/STM32F7xx_HAL_Driver/Inc/stm32f7xx_ll_tim.h ****   *       overflow/underflow generates an update interrupt or DMA request if enabled.
1332:Drivers/STM32F7xx_HAL_Driver/Inc/stm32f7xx_ll_tim.h ****   * @rmtoll CR1          URS           LL_TIM_SetUpdateSource
1333:Drivers/STM32F7xx_HAL_Driver/Inc/stm32f7xx_ll_tim.h ****   * @param  TIMx Timer instance
1334:Drivers/STM32F7xx_HAL_Driver/Inc/stm32f7xx_ll_tim.h ****   * @param  UpdateSource This parameter can be one of the following values:
1335:Drivers/STM32F7xx_HAL_Driver/Inc/stm32f7xx_ll_tim.h ****   *         @arg @ref LL_TIM_UPDATESOURCE_REGULAR
1336:Drivers/STM32F7xx_HAL_Driver/Inc/stm32f7xx_ll_tim.h ****   *         @arg @ref LL_TIM_UPDATESOURCE_COUNTER
1337:Drivers/STM32F7xx_HAL_Driver/Inc/stm32f7xx_ll_tim.h ****   * @retval None
1338:Drivers/STM32F7xx_HAL_Driver/Inc/stm32f7xx_ll_tim.h ****   */
1339:Drivers/STM32F7xx_HAL_Driver/Inc/stm32f7xx_ll_tim.h **** __STATIC_INLINE void LL_TIM_SetUpdateSource(TIM_TypeDef *TIMx, uint32_t UpdateSource)
1340:Drivers/STM32F7xx_HAL_Driver/Inc/stm32f7xx_ll_tim.h **** {
1341:Drivers/STM32F7xx_HAL_Driver/Inc/stm32f7xx_ll_tim.h ****   MODIFY_REG(TIMx->CR1, TIM_CR1_URS, UpdateSource);
1342:Drivers/STM32F7xx_HAL_Driver/Inc/stm32f7xx_ll_tim.h **** }
1343:Drivers/STM32F7xx_HAL_Driver/Inc/stm32f7xx_ll_tim.h **** 
1344:Drivers/STM32F7xx_HAL_Driver/Inc/stm32f7xx_ll_tim.h **** /**
1345:Drivers/STM32F7xx_HAL_Driver/Inc/stm32f7xx_ll_tim.h ****   * @brief  Get actual event update source
1346:Drivers/STM32F7xx_HAL_Driver/Inc/stm32f7xx_ll_tim.h ****   * @rmtoll CR1          URS           LL_TIM_GetUpdateSource
1347:Drivers/STM32F7xx_HAL_Driver/Inc/stm32f7xx_ll_tim.h ****   * @param  TIMx Timer instance
1348:Drivers/STM32F7xx_HAL_Driver/Inc/stm32f7xx_ll_tim.h ****   * @retval Returned value can be one of the following values:
1349:Drivers/STM32F7xx_HAL_Driver/Inc/stm32f7xx_ll_tim.h ****   *         @arg @ref LL_TIM_UPDATESOURCE_REGULAR
1350:Drivers/STM32F7xx_HAL_Driver/Inc/stm32f7xx_ll_tim.h ****   *         @arg @ref LL_TIM_UPDATESOURCE_COUNTER
1351:Drivers/STM32F7xx_HAL_Driver/Inc/stm32f7xx_ll_tim.h ****   */
1352:Drivers/STM32F7xx_HAL_Driver/Inc/stm32f7xx_ll_tim.h **** __STATIC_INLINE uint32_t LL_TIM_GetUpdateSource(TIM_TypeDef *TIMx)
1353:Drivers/STM32F7xx_HAL_Driver/Inc/stm32f7xx_ll_tim.h **** {
1354:Drivers/STM32F7xx_HAL_Driver/Inc/stm32f7xx_ll_tim.h ****   return (uint32_t)(READ_BIT(TIMx->CR1, TIM_CR1_URS));
1355:Drivers/STM32F7xx_HAL_Driver/Inc/stm32f7xx_ll_tim.h **** }
1356:Drivers/STM32F7xx_HAL_Driver/Inc/stm32f7xx_ll_tim.h **** 
1357:Drivers/STM32F7xx_HAL_Driver/Inc/stm32f7xx_ll_tim.h **** /**
1358:Drivers/STM32F7xx_HAL_Driver/Inc/stm32f7xx_ll_tim.h ****   * @brief  Set one pulse mode (one shot v.s. repetitive).
1359:Drivers/STM32F7xx_HAL_Driver/Inc/stm32f7xx_ll_tim.h ****   * @rmtoll CR1          OPM           LL_TIM_SetOnePulseMode
1360:Drivers/STM32F7xx_HAL_Driver/Inc/stm32f7xx_ll_tim.h ****   * @param  TIMx Timer instance
1361:Drivers/STM32F7xx_HAL_Driver/Inc/stm32f7xx_ll_tim.h ****   * @param  OnePulseMode This parameter can be one of the following values:
1362:Drivers/STM32F7xx_HAL_Driver/Inc/stm32f7xx_ll_tim.h ****   *         @arg @ref LL_TIM_ONEPULSEMODE_SINGLE
1363:Drivers/STM32F7xx_HAL_Driver/Inc/stm32f7xx_ll_tim.h ****   *         @arg @ref LL_TIM_ONEPULSEMODE_REPETITIVE
1364:Drivers/STM32F7xx_HAL_Driver/Inc/stm32f7xx_ll_tim.h ****   * @retval None
1365:Drivers/STM32F7xx_HAL_Driver/Inc/stm32f7xx_ll_tim.h ****   */
1366:Drivers/STM32F7xx_HAL_Driver/Inc/stm32f7xx_ll_tim.h **** __STATIC_INLINE void LL_TIM_SetOnePulseMode(TIM_TypeDef *TIMx, uint32_t OnePulseMode)
1367:Drivers/STM32F7xx_HAL_Driver/Inc/stm32f7xx_ll_tim.h **** {
1368:Drivers/STM32F7xx_HAL_Driver/Inc/stm32f7xx_ll_tim.h ****   MODIFY_REG(TIMx->CR1, TIM_CR1_OPM, OnePulseMode);
1369:Drivers/STM32F7xx_HAL_Driver/Inc/stm32f7xx_ll_tim.h **** }
1370:Drivers/STM32F7xx_HAL_Driver/Inc/stm32f7xx_ll_tim.h **** 
ARM GAS  C:\Users\Giorgio\AppData\Local\Temp\cc3JIPZT.s 			page 30


1371:Drivers/STM32F7xx_HAL_Driver/Inc/stm32f7xx_ll_tim.h **** /**
1372:Drivers/STM32F7xx_HAL_Driver/Inc/stm32f7xx_ll_tim.h ****   * @brief  Get actual one pulse mode.
1373:Drivers/STM32F7xx_HAL_Driver/Inc/stm32f7xx_ll_tim.h ****   * @rmtoll CR1          OPM           LL_TIM_GetOnePulseMode
1374:Drivers/STM32F7xx_HAL_Driver/Inc/stm32f7xx_ll_tim.h ****   * @param  TIMx Timer instance
1375:Drivers/STM32F7xx_HAL_Driver/Inc/stm32f7xx_ll_tim.h ****   * @retval Returned value can be one of the following values:
1376:Drivers/STM32F7xx_HAL_Driver/Inc/stm32f7xx_ll_tim.h ****   *         @arg @ref LL_TIM_ONEPULSEMODE_SINGLE
1377:Drivers/STM32F7xx_HAL_Driver/Inc/stm32f7xx_ll_tim.h ****   *         @arg @ref LL_TIM_ONEPULSEMODE_REPETITIVE
1378:Drivers/STM32F7xx_HAL_Driver/Inc/stm32f7xx_ll_tim.h ****   */
1379:Drivers/STM32F7xx_HAL_Driver/Inc/stm32f7xx_ll_tim.h **** __STATIC_INLINE uint32_t LL_TIM_GetOnePulseMode(TIM_TypeDef *TIMx)
1380:Drivers/STM32F7xx_HAL_Driver/Inc/stm32f7xx_ll_tim.h **** {
1381:Drivers/STM32F7xx_HAL_Driver/Inc/stm32f7xx_ll_tim.h ****   return (uint32_t)(READ_BIT(TIMx->CR1, TIM_CR1_OPM));
1382:Drivers/STM32F7xx_HAL_Driver/Inc/stm32f7xx_ll_tim.h **** }
1383:Drivers/STM32F7xx_HAL_Driver/Inc/stm32f7xx_ll_tim.h **** 
1384:Drivers/STM32F7xx_HAL_Driver/Inc/stm32f7xx_ll_tim.h **** /**
1385:Drivers/STM32F7xx_HAL_Driver/Inc/stm32f7xx_ll_tim.h ****   * @brief  Set the timer counter counting mode.
1386:Drivers/STM32F7xx_HAL_Driver/Inc/stm32f7xx_ll_tim.h ****   * @note Macro @ref IS_TIM_COUNTER_MODE_SELECT_INSTANCE(TIMx) can be used to
1387:Drivers/STM32F7xx_HAL_Driver/Inc/stm32f7xx_ll_tim.h ****   *       check whether or not the counter mode selection feature is supported
1388:Drivers/STM32F7xx_HAL_Driver/Inc/stm32f7xx_ll_tim.h ****   *       by a timer instance.
1389:Drivers/STM32F7xx_HAL_Driver/Inc/stm32f7xx_ll_tim.h ****   * @note Switching from Center Aligned counter mode to Edge counter mode (or reverse)
1390:Drivers/STM32F7xx_HAL_Driver/Inc/stm32f7xx_ll_tim.h ****   *       requires a timer reset to avoid unexpected direction
1391:Drivers/STM32F7xx_HAL_Driver/Inc/stm32f7xx_ll_tim.h ****   *       due to DIR bit readonly in center aligned mode.
1392:Drivers/STM32F7xx_HAL_Driver/Inc/stm32f7xx_ll_tim.h ****   * @rmtoll CR1          DIR           LL_TIM_SetCounterMode\n
1393:Drivers/STM32F7xx_HAL_Driver/Inc/stm32f7xx_ll_tim.h ****   *         CR1          CMS           LL_TIM_SetCounterMode
1394:Drivers/STM32F7xx_HAL_Driver/Inc/stm32f7xx_ll_tim.h ****   * @param  TIMx Timer instance
1395:Drivers/STM32F7xx_HAL_Driver/Inc/stm32f7xx_ll_tim.h ****   * @param  CounterMode This parameter can be one of the following values:
1396:Drivers/STM32F7xx_HAL_Driver/Inc/stm32f7xx_ll_tim.h ****   *         @arg @ref LL_TIM_COUNTERMODE_UP
1397:Drivers/STM32F7xx_HAL_Driver/Inc/stm32f7xx_ll_tim.h ****   *         @arg @ref LL_TIM_COUNTERMODE_DOWN
1398:Drivers/STM32F7xx_HAL_Driver/Inc/stm32f7xx_ll_tim.h ****   *         @arg @ref LL_TIM_COUNTERMODE_CENTER_UP
1399:Drivers/STM32F7xx_HAL_Driver/Inc/stm32f7xx_ll_tim.h ****   *         @arg @ref LL_TIM_COUNTERMODE_CENTER_DOWN
1400:Drivers/STM32F7xx_HAL_Driver/Inc/stm32f7xx_ll_tim.h ****   *         @arg @ref LL_TIM_COUNTERMODE_CENTER_UP_DOWN
1401:Drivers/STM32F7xx_HAL_Driver/Inc/stm32f7xx_ll_tim.h ****   * @retval None
1402:Drivers/STM32F7xx_HAL_Driver/Inc/stm32f7xx_ll_tim.h ****   */
1403:Drivers/STM32F7xx_HAL_Driver/Inc/stm32f7xx_ll_tim.h **** __STATIC_INLINE void LL_TIM_SetCounterMode(TIM_TypeDef *TIMx, uint32_t CounterMode)
1404:Drivers/STM32F7xx_HAL_Driver/Inc/stm32f7xx_ll_tim.h **** {
1405:Drivers/STM32F7xx_HAL_Driver/Inc/stm32f7xx_ll_tim.h ****   MODIFY_REG(TIMx->CR1, (TIM_CR1_DIR | TIM_CR1_CMS), CounterMode);
1406:Drivers/STM32F7xx_HAL_Driver/Inc/stm32f7xx_ll_tim.h **** }
1407:Drivers/STM32F7xx_HAL_Driver/Inc/stm32f7xx_ll_tim.h **** 
1408:Drivers/STM32F7xx_HAL_Driver/Inc/stm32f7xx_ll_tim.h **** /**
1409:Drivers/STM32F7xx_HAL_Driver/Inc/stm32f7xx_ll_tim.h ****   * @brief  Get actual counter mode.
1410:Drivers/STM32F7xx_HAL_Driver/Inc/stm32f7xx_ll_tim.h ****   * @note Macro @ref IS_TIM_COUNTER_MODE_SELECT_INSTANCE(TIMx) can be used to
1411:Drivers/STM32F7xx_HAL_Driver/Inc/stm32f7xx_ll_tim.h ****   *       check whether or not the counter mode selection feature is supported
1412:Drivers/STM32F7xx_HAL_Driver/Inc/stm32f7xx_ll_tim.h ****   *       by a timer instance.
1413:Drivers/STM32F7xx_HAL_Driver/Inc/stm32f7xx_ll_tim.h ****   * @rmtoll CR1          DIR           LL_TIM_GetCounterMode\n
1414:Drivers/STM32F7xx_HAL_Driver/Inc/stm32f7xx_ll_tim.h ****   *         CR1          CMS           LL_TIM_GetCounterMode
1415:Drivers/STM32F7xx_HAL_Driver/Inc/stm32f7xx_ll_tim.h ****   * @param  TIMx Timer instance
1416:Drivers/STM32F7xx_HAL_Driver/Inc/stm32f7xx_ll_tim.h ****   * @retval Returned value can be one of the following values:
1417:Drivers/STM32F7xx_HAL_Driver/Inc/stm32f7xx_ll_tim.h ****   *         @arg @ref LL_TIM_COUNTERMODE_UP
1418:Drivers/STM32F7xx_HAL_Driver/Inc/stm32f7xx_ll_tim.h ****   *         @arg @ref LL_TIM_COUNTERMODE_DOWN
1419:Drivers/STM32F7xx_HAL_Driver/Inc/stm32f7xx_ll_tim.h ****   *         @arg @ref LL_TIM_COUNTERMODE_CENTER_UP
1420:Drivers/STM32F7xx_HAL_Driver/Inc/stm32f7xx_ll_tim.h ****   *         @arg @ref LL_TIM_COUNTERMODE_CENTER_DOWN
1421:Drivers/STM32F7xx_HAL_Driver/Inc/stm32f7xx_ll_tim.h ****   *         @arg @ref LL_TIM_COUNTERMODE_CENTER_UP_DOWN
1422:Drivers/STM32F7xx_HAL_Driver/Inc/stm32f7xx_ll_tim.h ****   */
1423:Drivers/STM32F7xx_HAL_Driver/Inc/stm32f7xx_ll_tim.h **** __STATIC_INLINE uint32_t LL_TIM_GetCounterMode(TIM_TypeDef *TIMx)
1424:Drivers/STM32F7xx_HAL_Driver/Inc/stm32f7xx_ll_tim.h **** {
1425:Drivers/STM32F7xx_HAL_Driver/Inc/stm32f7xx_ll_tim.h ****   return (uint32_t)(READ_BIT(TIMx->CR1, TIM_CR1_DIR | TIM_CR1_CMS));
1426:Drivers/STM32F7xx_HAL_Driver/Inc/stm32f7xx_ll_tim.h **** }
1427:Drivers/STM32F7xx_HAL_Driver/Inc/stm32f7xx_ll_tim.h **** 
ARM GAS  C:\Users\Giorgio\AppData\Local\Temp\cc3JIPZT.s 			page 31


1428:Drivers/STM32F7xx_HAL_Driver/Inc/stm32f7xx_ll_tim.h **** /**
1429:Drivers/STM32F7xx_HAL_Driver/Inc/stm32f7xx_ll_tim.h ****   * @brief  Enable auto-reload (ARR) preload.
1430:Drivers/STM32F7xx_HAL_Driver/Inc/stm32f7xx_ll_tim.h ****   * @rmtoll CR1          ARPE          LL_TIM_EnableARRPreload
1431:Drivers/STM32F7xx_HAL_Driver/Inc/stm32f7xx_ll_tim.h ****   * @param  TIMx Timer instance
1432:Drivers/STM32F7xx_HAL_Driver/Inc/stm32f7xx_ll_tim.h ****   * @retval None
1433:Drivers/STM32F7xx_HAL_Driver/Inc/stm32f7xx_ll_tim.h ****   */
1434:Drivers/STM32F7xx_HAL_Driver/Inc/stm32f7xx_ll_tim.h **** __STATIC_INLINE void LL_TIM_EnableARRPreload(TIM_TypeDef *TIMx)
1435:Drivers/STM32F7xx_HAL_Driver/Inc/stm32f7xx_ll_tim.h **** {
1436:Drivers/STM32F7xx_HAL_Driver/Inc/stm32f7xx_ll_tim.h ****   SET_BIT(TIMx->CR1, TIM_CR1_ARPE);
1437:Drivers/STM32F7xx_HAL_Driver/Inc/stm32f7xx_ll_tim.h **** }
1438:Drivers/STM32F7xx_HAL_Driver/Inc/stm32f7xx_ll_tim.h **** 
1439:Drivers/STM32F7xx_HAL_Driver/Inc/stm32f7xx_ll_tim.h **** /**
1440:Drivers/STM32F7xx_HAL_Driver/Inc/stm32f7xx_ll_tim.h ****   * @brief  Disable auto-reload (ARR) preload.
1441:Drivers/STM32F7xx_HAL_Driver/Inc/stm32f7xx_ll_tim.h ****   * @rmtoll CR1          ARPE          LL_TIM_DisableARRPreload
1442:Drivers/STM32F7xx_HAL_Driver/Inc/stm32f7xx_ll_tim.h ****   * @param  TIMx Timer instance
1443:Drivers/STM32F7xx_HAL_Driver/Inc/stm32f7xx_ll_tim.h ****   * @retval None
1444:Drivers/STM32F7xx_HAL_Driver/Inc/stm32f7xx_ll_tim.h ****   */
1445:Drivers/STM32F7xx_HAL_Driver/Inc/stm32f7xx_ll_tim.h **** __STATIC_INLINE void LL_TIM_DisableARRPreload(TIM_TypeDef *TIMx)
1446:Drivers/STM32F7xx_HAL_Driver/Inc/stm32f7xx_ll_tim.h **** {
1447:Drivers/STM32F7xx_HAL_Driver/Inc/stm32f7xx_ll_tim.h ****   CLEAR_BIT(TIMx->CR1,TIM_CR1_ARPE);
1448:Drivers/STM32F7xx_HAL_Driver/Inc/stm32f7xx_ll_tim.h **** }
1449:Drivers/STM32F7xx_HAL_Driver/Inc/stm32f7xx_ll_tim.h **** 
1450:Drivers/STM32F7xx_HAL_Driver/Inc/stm32f7xx_ll_tim.h **** /**
1451:Drivers/STM32F7xx_HAL_Driver/Inc/stm32f7xx_ll_tim.h ****   * @brief  Indicates whether auto-reload (ARR) preload is enabled.
1452:Drivers/STM32F7xx_HAL_Driver/Inc/stm32f7xx_ll_tim.h ****   * @rmtoll CR1          ARPE          LL_TIM_IsEnabledARRPreload
1453:Drivers/STM32F7xx_HAL_Driver/Inc/stm32f7xx_ll_tim.h ****   * @param  TIMx Timer instance
1454:Drivers/STM32F7xx_HAL_Driver/Inc/stm32f7xx_ll_tim.h ****   * @retval State of bit (1 or 0).
1455:Drivers/STM32F7xx_HAL_Driver/Inc/stm32f7xx_ll_tim.h ****   */
1456:Drivers/STM32F7xx_HAL_Driver/Inc/stm32f7xx_ll_tim.h **** __STATIC_INLINE uint32_t LL_TIM_IsEnabledARRPreload(TIM_TypeDef *TIMx)
1457:Drivers/STM32F7xx_HAL_Driver/Inc/stm32f7xx_ll_tim.h **** {
1458:Drivers/STM32F7xx_HAL_Driver/Inc/stm32f7xx_ll_tim.h ****   return ((READ_BIT(TIMx->CR1, TIM_CR1_ARPE) == (TIM_CR1_ARPE)) ? 1UL : 0UL);
1459:Drivers/STM32F7xx_HAL_Driver/Inc/stm32f7xx_ll_tim.h **** }
1460:Drivers/STM32F7xx_HAL_Driver/Inc/stm32f7xx_ll_tim.h **** 
1461:Drivers/STM32F7xx_HAL_Driver/Inc/stm32f7xx_ll_tim.h **** /**
1462:Drivers/STM32F7xx_HAL_Driver/Inc/stm32f7xx_ll_tim.h ****   * @brief  Set the division ratio between the timer clock  and the sampling clock used by the dead
1463:Drivers/STM32F7xx_HAL_Driver/Inc/stm32f7xx_ll_tim.h ****   * @note Macro @ref IS_TIM_CLOCK_DIVISION_INSTANCE(TIMx) can be used to check
1464:Drivers/STM32F7xx_HAL_Driver/Inc/stm32f7xx_ll_tim.h ****   *       whether or not the clock division feature is supported by the timer
1465:Drivers/STM32F7xx_HAL_Driver/Inc/stm32f7xx_ll_tim.h ****   *       instance.
1466:Drivers/STM32F7xx_HAL_Driver/Inc/stm32f7xx_ll_tim.h ****   * @rmtoll CR1          CKD           LL_TIM_SetClockDivision
1467:Drivers/STM32F7xx_HAL_Driver/Inc/stm32f7xx_ll_tim.h ****   * @param  TIMx Timer instance
1468:Drivers/STM32F7xx_HAL_Driver/Inc/stm32f7xx_ll_tim.h ****   * @param  ClockDivision This parameter can be one of the following values:
1469:Drivers/STM32F7xx_HAL_Driver/Inc/stm32f7xx_ll_tim.h ****   *         @arg @ref LL_TIM_CLOCKDIVISION_DIV1
1470:Drivers/STM32F7xx_HAL_Driver/Inc/stm32f7xx_ll_tim.h ****   *         @arg @ref LL_TIM_CLOCKDIVISION_DIV2
1471:Drivers/STM32F7xx_HAL_Driver/Inc/stm32f7xx_ll_tim.h ****   *         @arg @ref LL_TIM_CLOCKDIVISION_DIV4
1472:Drivers/STM32F7xx_HAL_Driver/Inc/stm32f7xx_ll_tim.h ****   * @retval None
1473:Drivers/STM32F7xx_HAL_Driver/Inc/stm32f7xx_ll_tim.h ****   */
1474:Drivers/STM32F7xx_HAL_Driver/Inc/stm32f7xx_ll_tim.h **** __STATIC_INLINE void LL_TIM_SetClockDivision(TIM_TypeDef *TIMx, uint32_t ClockDivision)
1475:Drivers/STM32F7xx_HAL_Driver/Inc/stm32f7xx_ll_tim.h **** {
1476:Drivers/STM32F7xx_HAL_Driver/Inc/stm32f7xx_ll_tim.h ****   MODIFY_REG(TIMx->CR1, TIM_CR1_CKD, ClockDivision);
1477:Drivers/STM32F7xx_HAL_Driver/Inc/stm32f7xx_ll_tim.h **** }
1478:Drivers/STM32F7xx_HAL_Driver/Inc/stm32f7xx_ll_tim.h **** 
1479:Drivers/STM32F7xx_HAL_Driver/Inc/stm32f7xx_ll_tim.h **** /**
1480:Drivers/STM32F7xx_HAL_Driver/Inc/stm32f7xx_ll_tim.h ****   * @brief  Get the actual division ratio between the timer clock  and the sampling clock used by t
1481:Drivers/STM32F7xx_HAL_Driver/Inc/stm32f7xx_ll_tim.h ****   * @note Macro @ref IS_TIM_CLOCK_DIVISION_INSTANCE(TIMx) can be used to check
1482:Drivers/STM32F7xx_HAL_Driver/Inc/stm32f7xx_ll_tim.h ****   *       whether or not the clock division feature is supported by the timer
1483:Drivers/STM32F7xx_HAL_Driver/Inc/stm32f7xx_ll_tim.h ****   *       instance.
1484:Drivers/STM32F7xx_HAL_Driver/Inc/stm32f7xx_ll_tim.h ****   * @rmtoll CR1          CKD           LL_TIM_GetClockDivision
ARM GAS  C:\Users\Giorgio\AppData\Local\Temp\cc3JIPZT.s 			page 32


1485:Drivers/STM32F7xx_HAL_Driver/Inc/stm32f7xx_ll_tim.h ****   * @param  TIMx Timer instance
1486:Drivers/STM32F7xx_HAL_Driver/Inc/stm32f7xx_ll_tim.h ****   * @retval Returned value can be one of the following values:
1487:Drivers/STM32F7xx_HAL_Driver/Inc/stm32f7xx_ll_tim.h ****   *         @arg @ref LL_TIM_CLOCKDIVISION_DIV1
1488:Drivers/STM32F7xx_HAL_Driver/Inc/stm32f7xx_ll_tim.h ****   *         @arg @ref LL_TIM_CLOCKDIVISION_DIV2
1489:Drivers/STM32F7xx_HAL_Driver/Inc/stm32f7xx_ll_tim.h ****   *         @arg @ref LL_TIM_CLOCKDIVISION_DIV4
1490:Drivers/STM32F7xx_HAL_Driver/Inc/stm32f7xx_ll_tim.h ****   */
1491:Drivers/STM32F7xx_HAL_Driver/Inc/stm32f7xx_ll_tim.h **** __STATIC_INLINE uint32_t LL_TIM_GetClockDivision(TIM_TypeDef *TIMx)
1492:Drivers/STM32F7xx_HAL_Driver/Inc/stm32f7xx_ll_tim.h **** {
1493:Drivers/STM32F7xx_HAL_Driver/Inc/stm32f7xx_ll_tim.h ****   return (uint32_t)(READ_BIT(TIMx->CR1, TIM_CR1_CKD));
1494:Drivers/STM32F7xx_HAL_Driver/Inc/stm32f7xx_ll_tim.h **** }
1495:Drivers/STM32F7xx_HAL_Driver/Inc/stm32f7xx_ll_tim.h **** 
1496:Drivers/STM32F7xx_HAL_Driver/Inc/stm32f7xx_ll_tim.h **** /**
1497:Drivers/STM32F7xx_HAL_Driver/Inc/stm32f7xx_ll_tim.h ****   * @brief  Set the counter value.
1498:Drivers/STM32F7xx_HAL_Driver/Inc/stm32f7xx_ll_tim.h ****   * @note Macro @ref IS_TIM_32B_COUNTER_INSTANCE(TIMx) can be used to check
1499:Drivers/STM32F7xx_HAL_Driver/Inc/stm32f7xx_ll_tim.h ****   *       whether or not a timer instance supports a 32 bits counter.
1500:Drivers/STM32F7xx_HAL_Driver/Inc/stm32f7xx_ll_tim.h ****   * @rmtoll CNT          CNT           LL_TIM_SetCounter
1501:Drivers/STM32F7xx_HAL_Driver/Inc/stm32f7xx_ll_tim.h ****   * @param  TIMx Timer instance
1502:Drivers/STM32F7xx_HAL_Driver/Inc/stm32f7xx_ll_tim.h ****   * @param  Counter Counter value (between Min_Data=0 and Max_Data=0xFFFF or 0xFFFFFFFF)
1503:Drivers/STM32F7xx_HAL_Driver/Inc/stm32f7xx_ll_tim.h ****   * @retval None
1504:Drivers/STM32F7xx_HAL_Driver/Inc/stm32f7xx_ll_tim.h ****   */
1505:Drivers/STM32F7xx_HAL_Driver/Inc/stm32f7xx_ll_tim.h **** __STATIC_INLINE void LL_TIM_SetCounter(TIM_TypeDef *TIMx, uint32_t Counter)
1506:Drivers/STM32F7xx_HAL_Driver/Inc/stm32f7xx_ll_tim.h **** {
1507:Drivers/STM32F7xx_HAL_Driver/Inc/stm32f7xx_ll_tim.h ****   WRITE_REG(TIMx->CNT, Counter);
1508:Drivers/STM32F7xx_HAL_Driver/Inc/stm32f7xx_ll_tim.h **** }
1509:Drivers/STM32F7xx_HAL_Driver/Inc/stm32f7xx_ll_tim.h **** 
1510:Drivers/STM32F7xx_HAL_Driver/Inc/stm32f7xx_ll_tim.h **** /**
1511:Drivers/STM32F7xx_HAL_Driver/Inc/stm32f7xx_ll_tim.h ****   * @brief  Get the counter value.
1512:Drivers/STM32F7xx_HAL_Driver/Inc/stm32f7xx_ll_tim.h ****   * @note Macro @ref IS_TIM_32B_COUNTER_INSTANCE(TIMx) can be used to check
1513:Drivers/STM32F7xx_HAL_Driver/Inc/stm32f7xx_ll_tim.h ****   *       whether or not a timer instance supports a 32 bits counter.
1514:Drivers/STM32F7xx_HAL_Driver/Inc/stm32f7xx_ll_tim.h ****   * @rmtoll CNT          CNT           LL_TIM_GetCounter
1515:Drivers/STM32F7xx_HAL_Driver/Inc/stm32f7xx_ll_tim.h ****   * @param  TIMx Timer instance
1516:Drivers/STM32F7xx_HAL_Driver/Inc/stm32f7xx_ll_tim.h ****   * @retval Counter value (between Min_Data=0 and Max_Data=0xFFFF or 0xFFFFFFFF)
1517:Drivers/STM32F7xx_HAL_Driver/Inc/stm32f7xx_ll_tim.h ****   */
1518:Drivers/STM32F7xx_HAL_Driver/Inc/stm32f7xx_ll_tim.h **** __STATIC_INLINE uint32_t LL_TIM_GetCounter(TIM_TypeDef *TIMx)
 209              		.loc 2 1518 26 discriminator 1 view .LVU68
 210              	.LBB15:
1519:Drivers/STM32F7xx_HAL_Driver/Inc/stm32f7xx_ll_tim.h **** {
1520:Drivers/STM32F7xx_HAL_Driver/Inc/stm32f7xx_ll_tim.h ****   return (uint32_t)(READ_REG(TIMx->CNT));
 211              		.loc 2 1520 3 discriminator 1 view .LVU69
 212              		.loc 2 1520 10 is_stmt 0 discriminator 1 view .LVU70
 213 00d0 244B     		ldr	r3, .L20
 214 00d2 5A6A     		ldr	r2, [r3, #36]
 215              	.LVL17:
 216              		.loc 2 1520 10 discriminator 1 view .LVU71
 217              	.LBE15:
 218              	.LBE14:
 219              		.loc 1 56 14 discriminator 1 view .LVU72
 220 00d4 42F20F73 		movw	r3, #9999
 221 00d8 9A42     		cmp	r2, r3
 222 00da F9D9     		bls	.L14
  18:Src/BMX160.c  **** 
 223              		.loc 1 18 44 is_stmt 1 discriminator 2 view .LVU73
  18:Src/BMX160.c  **** 
 224              		.loc 1 18 54 is_stmt 0 discriminator 2 view .LVU74
 225 00dc 0135     		adds	r5, r5, #1
 226              	.LVL18:
 227              	.L2:
ARM GAS  C:\Users\Giorgio\AppData\Local\Temp\cc3JIPZT.s 			page 33


  18:Src/BMX160.c  **** 
 228              		.loc 1 18 27 is_stmt 1 discriminator 1 view .LVU75
  18:Src/BMX160.c  **** 
 229              		.loc 1 18 5 is_stmt 0 discriminator 1 view .LVU76
 230 00de B5F5FA6F 		cmp	r5, #2000
 231 00e2 1ADA     		bge	.L19
  21:Src/BMX160.c  **** 
 232              		.loc 1 21 9 is_stmt 1 view .LVU77
 233              	.LVL19:
 234              	.LBB16:
 235              	.LBI16:
1505:Drivers/STM32F7xx_HAL_Driver/Inc/stm32f7xx_ll_tim.h **** {
 236              		.loc 2 1505 22 view .LVU78
 237              	.LBB17:
1507:Drivers/STM32F7xx_HAL_Driver/Inc/stm32f7xx_ll_tim.h **** }
 238              		.loc 2 1507 3 view .LVU79
 239 00e4 1F4B     		ldr	r3, .L20
 240 00e6 0022     		movs	r2, #0
 241 00e8 5A62     		str	r2, [r3, #36]
 242              	.LVL20:
1507:Drivers/STM32F7xx_HAL_Driver/Inc/stm32f7xx_ll_tim.h **** }
 243              		.loc 2 1507 3 is_stmt 0 view .LVU80
 244              	.LBE17:
 245              	.LBE16:
  24:Src/BMX160.c  ****         //wait 5 us
 246              		.loc 1 24 9 is_stmt 1 view .LVU81
 247 00ea 4FF0FF33 		mov	r3, #-1
 248 00ee 0093     		str	r3, [sp]
 249 00f0 0123     		movs	r3, #1
 250 00f2 11AA     		add	r2, sp, #68
 251 00f4 D021     		movs	r1, #208
 252 00f6 2068     		ldr	r0, [r4]
 253 00f8 FFF7FEFF 		bl	HAL_I2C_Master_Transmit
 254              	.LVL21:
  26:Src/BMX160.c  ****         HAL_I2C_Master_Receive(BMX_str->i2c_handler_ptr, BMX160Address, data_buffer, 12, HAL_MAX_DE
 255              		.loc 1 26 9 view .LVU82
 256              	.L3:
  26:Src/BMX160.c  ****         HAL_I2C_Master_Receive(BMX_str->i2c_handler_ptr, BMX160Address, data_buffer, 12, HAL_MAX_DE
 257              		.loc 1 26 43 discriminator 1 view .LVU83
  26:Src/BMX160.c  ****         HAL_I2C_Master_Receive(BMX_str->i2c_handler_ptr, BMX160Address, data_buffer, 12, HAL_MAX_DE
 258              		.loc 1 26 14 discriminator 1 view .LVU84
 259              	.LBB18:
 260              	.LBI18:
1518:Drivers/STM32F7xx_HAL_Driver/Inc/stm32f7xx_ll_tim.h **** {
 261              		.loc 2 1518 26 discriminator 1 view .LVU85
 262              	.LBB19:
 263              		.loc 2 1520 3 discriminator 1 view .LVU86
 264              		.loc 2 1520 10 is_stmt 0 discriminator 1 view .LVU87
 265 00fc 194B     		ldr	r3, .L20
 266 00fe 5B6A     		ldr	r3, [r3, #36]
 267              	.LVL22:
 268              		.loc 2 1520 10 discriminator 1 view .LVU88
 269              	.LBE19:
 270              	.LBE18:
  26:Src/BMX160.c  ****         HAL_I2C_Master_Receive(BMX_str->i2c_handler_ptr, BMX160Address, data_buffer, 12, HAL_MAX_DE
 271              		.loc 1 26 14 discriminator 1 view .LVU89
 272 0100 182B     		cmp	r3, #24
ARM GAS  C:\Users\Giorgio\AppData\Local\Temp\cc3JIPZT.s 			page 34


 273 0102 FBD9     		bls	.L3
  27:Src/BMX160.c  **** 
 274              		.loc 1 27 9 is_stmt 1 view .LVU90
 275 0104 4FF0FF33 		mov	r3, #-1
 276 0108 0093     		str	r3, [sp]
 277 010a 0C23     		movs	r3, #12
 278 010c 05AA     		add	r2, sp, #20
 279 010e D021     		movs	r1, #208
 280 0110 2068     		ldr	r0, [r4]
 281 0112 FFF7FEFF 		bl	HAL_I2C_Master_Receive
 282              	.LVL23:
  30:Src/BMX160.c  ****             *((uint8_t*)raw_data+i_count) = *(data_buffer+i_count);
 283              		.loc 1 30 9 view .LVU91
  30:Src/BMX160.c  ****             *((uint8_t*)raw_data+i_count) = *(data_buffer+i_count);
 284              		.loc 1 30 20 is_stmt 0 view .LVU92
 285 0116 0023     		movs	r3, #0
  30:Src/BMX160.c  ****             *((uint8_t*)raw_data+i_count) = *(data_buffer+i_count);
 286              		.loc 1 30 9 view .LVU93
 287 0118 7FE7     		b	.L4
 288              	.LVL24:
 289              	.L19:
  30:Src/BMX160.c  ****             *((uint8_t*)raw_data+i_count) = *(data_buffer+i_count);
 290              		.loc 1 30 9 view .LVU94
 291              	.LBE13:
  57:Src/BMX160.c  ****     }
  58:Src/BMX160.c  **** 
  59:Src/BMX160.c  ****     //average the bias value evaluated
  60:Src/BMX160.c  ****     for(i_count=0; i_count<3; i_count++){
 292              		.loc 1 60 16 view .LVU95
 293 011a 0023     		movs	r3, #0
 294 011c 16E0     		b	.L16
 295              	.LVL25:
 296              	.L17:
  61:Src/BMX160.c  ****         BMX_str->gyro_st_bias[i_count] = BMX_str->gyro_st_bias[i_count]/2000.0f;
 297              		.loc 1 61 9 is_stmt 1 discriminator 3 view .LVU96
 298              		.loc 1 61 63 is_stmt 0 discriminator 3 view .LVU97
 299 011e 03F11002 		add	r2, r3, #16
 300 0122 04EB8202 		add	r2, r4, r2, lsl #2
 301 0126 D2ED006A 		vldr.32	s13, [r2]
 302              		.loc 1 61 72 discriminator 3 view .LVU98
 303 012a DFED0F7A 		vldr.32	s15, .L20+4
 304 012e 86EEA77A 		vdiv.f32	s14, s13, s15
 305              		.loc 1 61 40 discriminator 3 view .LVU99
 306 0132 82ED007A 		vstr.32	s14, [r2]
  62:Src/BMX160.c  ****         BMX_str->acc_st_bias[i_count] = BMX_str->acc_st_bias[i_count]/2000.0f;
 307              		.loc 1 62 9 is_stmt 1 discriminator 3 view .LVU100
 308              		.loc 1 62 61 is_stmt 0 discriminator 3 view .LVU101
 309 0136 03F11202 		add	r2, r3, #18
 310 013a 04EB8202 		add	r2, r4, r2, lsl #2
 311 013e D2ED016A 		vldr.32	s13, [r2, #4]
 312              		.loc 1 62 70 discriminator 3 view .LVU102
 313 0142 86EEA77A 		vdiv.f32	s14, s13, s15
 314              		.loc 1 62 39 discriminator 3 view .LVU103
 315 0146 82ED017A 		vstr.32	s14, [r2, #4]
  60:Src/BMX160.c  ****         BMX_str->gyro_st_bias[i_count] = BMX_str->gyro_st_bias[i_count]/2000.0f;
 316              		.loc 1 60 31 is_stmt 1 discriminator 3 view .LVU104
  60:Src/BMX160.c  ****         BMX_str->gyro_st_bias[i_count] = BMX_str->gyro_st_bias[i_count]/2000.0f;
ARM GAS  C:\Users\Giorgio\AppData\Local\Temp\cc3JIPZT.s 			page 35


 317              		.loc 1 60 38 is_stmt 0 discriminator 3 view .LVU105
 318 014a 0133     		adds	r3, r3, #1
 319              	.LVL26:
 320              	.L16:
  60:Src/BMX160.c  ****         BMX_str->gyro_st_bias[i_count] = BMX_str->gyro_st_bias[i_count]/2000.0f;
 321              		.loc 1 60 20 is_stmt 1 discriminator 1 view .LVU106
  60:Src/BMX160.c  ****         BMX_str->gyro_st_bias[i_count] = BMX_str->gyro_st_bias[i_count]/2000.0f;
 322              		.loc 1 60 5 is_stmt 0 discriminator 1 view .LVU107
 323 014c 022B     		cmp	r3, #2
 324 014e E6DD     		ble	.L17
  63:Src/BMX160.c  ****     }
  64:Src/BMX160.c  ****     /*sprintf((char*)buff, "cal. cplt.\n\r");
  65:Src/BMX160.c  ****     HAL_UART_Transmit(&huart4, buff, strlen((char*)buff), HAL_MAX_DELAY);
  66:Src/BMX160.c  **** 
  67:Src/BMX160.c  ****     sprintf((char*)buff, "gyrX= %f\n\r", BMX_str->gyro_st_bias[0]);
  68:Src/BMX160.c  ****     HAL_UART_Transmit(&huart4, buff, strlen((char*)buff), HAL_MAX_DELAY);
  69:Src/BMX160.c  **** 
  70:Src/BMX160.c  ****     sprintf((char*)buff, "gyrY= %f\n\r", BMX_str->gyro_st_bias[1]);
  71:Src/BMX160.c  ****     HAL_UART_Transmit(&huart4, buff, strlen((char*)buff), HAL_MAX_DELAY);
  72:Src/BMX160.c  **** 
  73:Src/BMX160.c  ****     sprintf((char*)buff, "gyrZ= %f\n\r", BMX_str->gyro_st_bias[2]);
  74:Src/BMX160.c  ****     HAL_UART_Transmit(&huart4, buff, strlen((char*)buff), HAL_MAX_DELAY);
  75:Src/BMX160.c  **** 
  76:Src/BMX160.c  ****     sprintf((char*)buff, "accX= %f\n\r", BMX_str->acc_st_bias[0]);
  77:Src/BMX160.c  ****     HAL_UART_Transmit(&huart4, buff, strlen((char*)buff), HAL_MAX_DELAY);
  78:Src/BMX160.c  **** 
  79:Src/BMX160.c  ****     sprintf((char*)buff, "accY= %f\n\r", BMX_str->acc_st_bias[1]);
  80:Src/BMX160.c  ****     HAL_UART_Transmit(&huart4, buff, strlen((char*)buff), HAL_MAX_DELAY);
  81:Src/BMX160.c  **** 
  82:Src/BMX160.c  ****     sprintf((char*)buff, "accZ= %f\n\r", BMX_str->acc_st_bias[2]);
  83:Src/BMX160.c  ****     HAL_UART_Transmit(&huart4, buff, strlen((char*)buff), HAL_MAX_DELAY);
  84:Src/BMX160.c  ****     */
  85:Src/BMX160.c  ****      
  86:Src/BMX160.c  ****     BMX_str->acc_st_bias[2] += 1.0f; //subtracting 1 g to the average of Z acc reading
 325              		.loc 1 86 5 is_stmt 1 view .LVU108
 326              		.loc 1 86 29 is_stmt 0 view .LVU109
 327 0150 D4ED157A 		vldr.32	s15, [r4, #84]
 328 0154 B7EE007A 		vmov.f32	s14, #1.0e+0
 329 0158 77EE877A 		vadd.f32	s15, s15, s14
 330 015c C4ED157A 		vstr.32	s15, [r4, #84]
  87:Src/BMX160.c  **** 
  88:Src/BMX160.c  **** }
 331              		.loc 1 88 1 view .LVU110
 332 0160 13B0     		add	sp, sp, #76
 333              	.LCFI2:
 334              		.cfi_def_cfa_offset 12
 335              		@ sp needed
 336 0162 30BD     		pop	{r4, r5, pc}
 337              	.LVL27:
 338              	.L21:
 339              		.loc 1 88 1 view .LVU111
 340              		.align	2
 341              	.L20:
 342 0164 00000140 		.word	1073807360
 343 0168 0000FA44 		.word	1157234688
 344              		.cfi_endproc
 345              	.LFE851:
ARM GAS  C:\Users\Giorgio\AppData\Local\Temp\cc3JIPZT.s 			page 36


 347              		.section	.text.BMX_read,"ax",%progbits
 348              		.align	1
 349              		.global	BMX_read
 350              		.syntax unified
 351              		.thumb
 352              		.thumb_func
 353              		.fpu fpv5-d16
 355              	BMX_read:
 356              	.LVL28:
 357              	.LFB852:
  89:Src/BMX160.c  ****  
  90:Src/BMX160.c  **** void BMX_read(BMX_IMU_typedef *BMX_str){
 358              		.loc 1 90 40 is_stmt 1 view -0
 359              		.cfi_startproc
 360              		@ args = 0, pretend = 0, frame = 64
 361              		@ frame_needed = 0, uses_anonymous_args = 0
 362              		.loc 1 90 40 is_stmt 0 view .LVU113
 363 0000 10B5     		push	{r4, lr}
 364              	.LCFI3:
 365              		.cfi_def_cfa_offset 8
 366              		.cfi_offset 4, -8
 367              		.cfi_offset 14, -4
 368 0002 92B0     		sub	sp, sp, #72
 369              	.LCFI4:
 370              		.cfi_def_cfa_offset 80
 371 0004 0446     		mov	r4, r0
  91:Src/BMX160.c  **** 
  92:Src/BMX160.c  ****     uint8_t tx_buff[4]; //buffer for transmit bytes
 372              		.loc 1 92 5 is_stmt 1 view .LVU114
  93:Src/BMX160.c  ****     uint8_t data_buffer[48]; //buffer for received data
 373              		.loc 1 93 5 view .LVU115
  94:Src/BMX160.c  ****     int16_t raw_data[6]; 
 374              		.loc 1 94 5 view .LVU116
  95:Src/BMX160.c  ****     int i_count;
 375              		.loc 1 95 5 view .LVU117
  96:Src/BMX160.c  ****     
  97:Src/BMX160.c  ****     //polling for data giving the first reg and ack for receiving that and the following 11 reg
  98:Src/BMX160.c  ****     tx_buff[0] = GYRO_XLSB_REG;
 376              		.loc 1 98 5 view .LVU118
 377              		.loc 1 98 16 is_stmt 0 view .LVU119
 378 0006 0C23     		movs	r3, #12
 379 0008 8DF84430 		strb	r3, [sp, #68]
  99:Src/BMX160.c  ****     HAL_I2C_Master_Transmit(BMX_str->i2c_handler_ptr, BMX160Address, tx_buff, 1, HAL_MAX_DELAY); //
 380              		.loc 1 99 5 is_stmt 1 view .LVU120
 381 000c 4FF0FF33 		mov	r3, #-1
 382 0010 0093     		str	r3, [sp]
 383 0012 0123     		movs	r3, #1
 384 0014 11AA     		add	r2, sp, #68
 385 0016 D021     		movs	r1, #208
 386 0018 0068     		ldr	r0, [r0]
 387              	.LVL29:
 388              		.loc 1 99 5 is_stmt 0 view .LVU121
 389 001a FFF7FEFF 		bl	HAL_I2C_Master_Transmit
 390              	.LVL30:
 100:Src/BMX160.c  ****     //wait 5 us
 101:Src/BMX160.c  ****     LL_TIM_SetCounter(TIM1, 0);
 391              		.loc 1 101 5 is_stmt 1 view .LVU122
ARM GAS  C:\Users\Giorgio\AppData\Local\Temp\cc3JIPZT.s 			page 37


 392              	.LBB20:
 393              	.LBI20:
1505:Drivers/STM32F7xx_HAL_Driver/Inc/stm32f7xx_ll_tim.h **** {
 394              		.loc 2 1505 22 view .LVU123
 395              	.LBB21:
1507:Drivers/STM32F7xx_HAL_Driver/Inc/stm32f7xx_ll_tim.h **** }
 396              		.loc 2 1507 3 view .LVU124
 397 001e 264B     		ldr	r3, .L31
 398 0020 0022     		movs	r2, #0
 399 0022 5A62     		str	r2, [r3, #36]
 400              	.LVL31:
 401              	.L23:
1507:Drivers/STM32F7xx_HAL_Driver/Inc/stm32f7xx_ll_tim.h **** }
 402              		.loc 2 1507 3 is_stmt 0 view .LVU125
 403              	.LBE21:
 404              	.LBE20:
 102:Src/BMX160.c  ****     while(LL_TIM_GetCounter(TIM1)<5){}
 405              		.loc 1 102 38 is_stmt 1 discriminator 1 view .LVU126
 406              		.loc 1 102 10 discriminator 1 view .LVU127
 407              	.LBB22:
 408              	.LBI22:
1518:Drivers/STM32F7xx_HAL_Driver/Inc/stm32f7xx_ll_tim.h **** {
 409              		.loc 2 1518 26 discriminator 1 view .LVU128
 410              	.LBB23:
 411              		.loc 2 1520 3 discriminator 1 view .LVU129
 412              		.loc 2 1520 10 is_stmt 0 discriminator 1 view .LVU130
 413 0024 244B     		ldr	r3, .L31
 414 0026 5B6A     		ldr	r3, [r3, #36]
 415              	.LVL32:
 416              		.loc 2 1520 10 discriminator 1 view .LVU131
 417              	.LBE23:
 418              	.LBE22:
 419              		.loc 1 102 10 discriminator 1 view .LVU132
 420 0028 042B     		cmp	r3, #4
 421 002a FBD9     		bls	.L23
 103:Src/BMX160.c  ****     HAL_I2C_Master_Receive(BMX_str->i2c_handler_ptr, BMX160Address, data_buffer, 12, HAL_MAX_DELAY)
 422              		.loc 1 103 5 is_stmt 1 view .LVU133
 423 002c 4FF0FF33 		mov	r3, #-1
 424 0030 0093     		str	r3, [sp]
 425 0032 0C23     		movs	r3, #12
 426 0034 05AA     		add	r2, sp, #20
 427 0036 D021     		movs	r1, #208
 428 0038 2068     		ldr	r0, [r4]
 429 003a FFF7FEFF 		bl	HAL_I2C_Master_Receive
 430              	.LVL33:
 104:Src/BMX160.c  **** 
 105:Src/BMX160.c  ****     //data unpack
 106:Src/BMX160.c  ****     for(i_count=0; i_count<12; i_count++){
 431              		.loc 1 106 5 view .LVU134
 432              		.loc 1 106 16 is_stmt 0 view .LVU135
 433 003e 0023     		movs	r3, #0
 434              		.loc 1 106 5 view .LVU136
 435 0040 04E0     		b	.L24
 436              	.LVL34:
 437              	.L25:
 107:Src/BMX160.c  ****         *((uint8_t*)raw_data+i_count) = *(data_buffer+i_count);
 438              		.loc 1 107 9 is_stmt 1 discriminator 3 view .LVU137
ARM GAS  C:\Users\Giorgio\AppData\Local\Temp\cc3JIPZT.s 			page 38


 439              		.loc 1 107 41 is_stmt 0 discriminator 3 view .LVU138
 440 0042 05AA     		add	r2, sp, #20
 441 0044 D15C     		ldrb	r1, [r2, r3]	@ zero_extendqisi2
 442              		.loc 1 107 39 discriminator 3 view .LVU139
 443 0046 02AA     		add	r2, sp, #8
 444 0048 D154     		strb	r1, [r2, r3]
 106:Src/BMX160.c  ****         *((uint8_t*)raw_data+i_count) = *(data_buffer+i_count);
 445              		.loc 1 106 32 is_stmt 1 discriminator 3 view .LVU140
 106:Src/BMX160.c  ****         *((uint8_t*)raw_data+i_count) = *(data_buffer+i_count);
 446              		.loc 1 106 39 is_stmt 0 discriminator 3 view .LVU141
 447 004a 0133     		adds	r3, r3, #1
 448              	.LVL35:
 449              	.L24:
 106:Src/BMX160.c  ****         *((uint8_t*)raw_data+i_count) = *(data_buffer+i_count);
 450              		.loc 1 106 20 is_stmt 1 discriminator 1 view .LVU142
 106:Src/BMX160.c  ****         *((uint8_t*)raw_data+i_count) = *(data_buffer+i_count);
 451              		.loc 1 106 5 is_stmt 0 discriminator 1 view .LVU143
 452 004c 0B2B     		cmp	r3, #11
 453 004e F8DD     		ble	.L25
 108:Src/BMX160.c  ****     }
 109:Src/BMX160.c  **** 
 110:Src/BMX160.c  ****     //gyro data definition
 111:Src/BMX160.c  ****     for(i_count=0; i_count<3; i_count++){
 454              		.loc 1 111 16 view .LVU144
 455 0050 0023     		movs	r3, #0
 456              	.LVL36:
 457              		.loc 1 111 16 view .LVU145
 458 0052 13E0     		b	.L26
 459              	.LVL37:
 460              	.L27:
 112:Src/BMX160.c  ****         *(BMX_str->Omega+i_count) = (((float)raw_data[i_count]) * BMX_str->gyro_FS_conv); // - BMX_
 461              		.loc 1 112 9 is_stmt 1 discriminator 3 view .LVU146
 462              		.loc 1 112 54 is_stmt 0 discriminator 3 view .LVU147
 463 0054 12AA     		add	r2, sp, #72
 464 0056 02EB4302 		add	r2, r2, r3, lsl #1
 465 005a 32F9402C 		ldrsh	r2, [r2, #-64]
 466 005e 07EE902A 		vmov	s15, r2	@ int
 467              		.loc 1 112 39 discriminator 3 view .LVU148
 468 0062 F8EEE77A 		vcvt.f32.s32	s15, s15
 469              		.loc 1 112 74 discriminator 3 view .LVU149
 470 0066 94ED0E7A 		vldr.32	s14, [r4, #56]
 471              		.loc 1 112 11 discriminator 3 view .LVU150
 472 006a 04F10802 		add	r2, r4, #8
 473              		.loc 1 112 25 discriminator 3 view .LVU151
 474 006e 02EB8302 		add	r2, r2, r3, lsl #2
 475              		.loc 1 112 65 discriminator 3 view .LVU152
 476 0072 67EE877A 		vmul.f32	s15, s15, s14
 477              		.loc 1 112 35 discriminator 3 view .LVU153
 478 0076 C2ED007A 		vstr.32	s15, [r2]
 111:Src/BMX160.c  ****         *(BMX_str->Omega+i_count) = (((float)raw_data[i_count]) * BMX_str->gyro_FS_conv); // - BMX_
 479              		.loc 1 111 31 is_stmt 1 discriminator 3 view .LVU154
 111:Src/BMX160.c  ****         *(BMX_str->Omega+i_count) = (((float)raw_data[i_count]) * BMX_str->gyro_FS_conv); // - BMX_
 480              		.loc 1 111 38 is_stmt 0 discriminator 3 view .LVU155
 481 007a 0133     		adds	r3, r3, #1
 482              	.LVL38:
 483              	.L26:
 111:Src/BMX160.c  ****         *(BMX_str->Omega+i_count) = (((float)raw_data[i_count]) * BMX_str->gyro_FS_conv); // - BMX_
ARM GAS  C:\Users\Giorgio\AppData\Local\Temp\cc3JIPZT.s 			page 39


 484              		.loc 1 111 20 is_stmt 1 discriminator 1 view .LVU156
 111:Src/BMX160.c  ****         *(BMX_str->Omega+i_count) = (((float)raw_data[i_count]) * BMX_str->gyro_FS_conv); // - BMX_
 485              		.loc 1 111 5 is_stmt 0 discriminator 1 view .LVU157
 486 007c 022B     		cmp	r3, #2
 487 007e E9DD     		ble	.L27
 113:Src/BMX160.c  ****     }
 114:Src/BMX160.c  **** 
 115:Src/BMX160.c  ****     //acc data definition
 116:Src/BMX160.c  ****     for(i_count=0; i_count<3; i_count++){
 488              		.loc 1 116 16 view .LVU158
 489 0080 0023     		movs	r3, #0
 490              	.LVL39:
 491              		.loc 1 116 16 view .LVU159
 492 0082 14E0     		b	.L28
 493              	.LVL40:
 494              	.L29:
 117:Src/BMX160.c  ****         *(BMX_str->Acceleration+i_count) = (((float)raw_data[i_count+3]) * BMX_str->acc_FS_conv); /
 495              		.loc 1 117 9 is_stmt 1 discriminator 3 view .LVU160
 496              		.loc 1 117 69 is_stmt 0 discriminator 3 view .LVU161
 497 0084 DA1C     		adds	r2, r3, #3
 498              		.loc 1 117 61 discriminator 3 view .LVU162
 499 0086 12A9     		add	r1, sp, #72
 500 0088 01EB4202 		add	r2, r1, r2, lsl #1
 501 008c 32F9402C 		ldrsh	r2, [r2, #-64]
 502 0090 07EE902A 		vmov	s15, r2	@ int
 503              		.loc 1 117 46 discriminator 3 view .LVU163
 504 0094 F8EEE77A 		vcvt.f32.s32	s15, s15
 505              		.loc 1 117 83 discriminator 3 view .LVU164
 506 0098 94ED0F7A 		vldr.32	s14, [r4, #60]
 507              		.loc 1 117 11 discriminator 3 view .LVU165
 508 009c 04F11402 		add	r2, r4, #20
 509              		.loc 1 117 32 discriminator 3 view .LVU166
 510 00a0 02EB8302 		add	r2, r2, r3, lsl #2
 511              		.loc 1 117 74 discriminator 3 view .LVU167
 512 00a4 67EE877A 		vmul.f32	s15, s15, s14
 513              		.loc 1 117 42 discriminator 3 view .LVU168
 514 00a8 C2ED007A 		vstr.32	s15, [r2]
 116:Src/BMX160.c  ****         *(BMX_str->Acceleration+i_count) = (((float)raw_data[i_count+3]) * BMX_str->acc_FS_conv); /
 515              		.loc 1 116 31 is_stmt 1 discriminator 3 view .LVU169
 116:Src/BMX160.c  ****         *(BMX_str->Acceleration+i_count) = (((float)raw_data[i_count+3]) * BMX_str->acc_FS_conv); /
 516              		.loc 1 116 38 is_stmt 0 discriminator 3 view .LVU170
 517 00ac 0133     		adds	r3, r3, #1
 518              	.LVL41:
 519              	.L28:
 116:Src/BMX160.c  ****         *(BMX_str->Acceleration+i_count) = (((float)raw_data[i_count+3]) * BMX_str->acc_FS_conv); /
 520              		.loc 1 116 20 is_stmt 1 discriminator 1 view .LVU171
 116:Src/BMX160.c  ****         *(BMX_str->Acceleration+i_count) = (((float)raw_data[i_count+3]) * BMX_str->acc_FS_conv); /
 521              		.loc 1 116 5 is_stmt 0 discriminator 1 view .LVU172
 522 00ae 022B     		cmp	r3, #2
 523 00b0 E8DD     		ble	.L29
 118:Src/BMX160.c  ****     }
 119:Src/BMX160.c  **** }...
 524              		.loc 1 119 1 view .LVU173
 525 00b2 12B0     		add	sp, sp, #72
 526              	.LCFI5:
 527              		.cfi_def_cfa_offset 8
 528              		@ sp needed
ARM GAS  C:\Users\Giorgio\AppData\Local\Temp\cc3JIPZT.s 			page 40


 529 00b4 10BD     		pop	{r4, pc}
 530              	.LVL42:
 531              	.L32:
 532              		.loc 1 119 1 view .LVU174
 533 00b6 00BF     		.align	2
 534              	.L31:
 535 00b8 00000140 		.word	1073807360
 536              		.cfi_endproc
 537              	.LFE852:
 539              		.text
 540              	.Letext0:
 541              		.file 3 "c:\\program files (x86)\\gnu arm embedded toolchain\\10 2020-q4-major\\arm-none-eabi\\inc
 542              		.file 4 "c:\\program files (x86)\\gnu arm embedded toolchain\\10 2020-q4-major\\arm-none-eabi\\inc
 543              		.file 5 "Drivers/CMSIS/Device/ST/STM32F7xx/Include/stm32f767xx.h"
 544              		.file 6 "Drivers/STM32F7xx_HAL_Driver/Inc/stm32f7xx_hal_def.h"
 545              		.file 7 "Drivers/STM32F7xx_HAL_Driver/Inc/stm32f7xx_hal_dma.h"
 546              		.file 8 "Drivers/STM32F7xx_HAL_Driver/Inc/stm32f7xx_hal_i2c.h"
 547              		.file 9 "Drivers/STM32F7xx_HAL_Driver/Inc/stm32f7xx_hal_uart.h"
 548              		.file 10 "Drivers/STM32F7xx_HAL_Driver/Inc/stm32f7xx_ll_rcc.h"
 549              		.file 11 "Drivers/STM32F7xx_HAL_Driver/Inc/stm32f7xx_ll_dma.h"
 550              		.file 12 "Inc/BMX160.h"
ARM GAS  C:\Users\Giorgio\AppData\Local\Temp\cc3JIPZT.s 			page 41

