ARM GAS  C:\Users\Giorgio\AppData\Local\Temp\ccpuEN3p.s 			page 1


   1              		.cpu cortex-m7
   2              		.eabi_attribute 28, 1
   3              		.eabi_attribute 20, 1
   4              		.eabi_attribute 21, 1
   5              		.eabi_attribute 23, 3
   6              		.eabi_attribute 24, 1
   7              		.eabi_attribute 25, 1
   8              		.eabi_attribute 26, 1
   9              		.eabi_attribute 30, 1
  10              		.eabi_attribute 34, 1
  11              		.eabi_attribute 18, 4
  12              		.file	"main.c"
  13              		.text
  14              	.Ltext0:
  15              		.cfi_sections	.debug_frame
  16              		.section	.text.MX_GPIO_Init,"ax",%progbits
  17              		.align	1
  18              		.arch armv7e-m
  19              		.syntax unified
  20              		.thumb
  21              		.thumb_func
  22              		.fpu fpv5-d16
  24              	MX_GPIO_Init:
  25              	.LFB859:
  26              		.file 1 "Src/main.c"
   1:Src/main.c    **** /* USER CODE BEGIN Header */
   2:Src/main.c    **** /**
   3:Src/main.c    ****   ******************************************************************************
   4:Src/main.c    ****   * @file           : main.c
   5:Src/main.c    ****   * @brief          : Main program body
   6:Src/main.c    ****   ******************************************************************************
   7:Src/main.c    ****   * @attention
   8:Src/main.c    ****   *
   9:Src/main.c    ****   * <h2><center>&copy; Copyright (c) 2021 STMicroelectronics.
  10:Src/main.c    ****   * All rights reserved.</center></h2>
  11:Src/main.c    ****   *
  12:Src/main.c    ****   * This software component is licensed by ST under BSD 3-Clause license,
  13:Src/main.c    ****   * the "License"; You may not use this file except in compliance with the
  14:Src/main.c    ****   * License. You may obtain a copy of the License at:
  15:Src/main.c    ****   *                        opensource.org/licenses/BSD-3-Clause
  16:Src/main.c    ****   *
  17:Src/main.c    ****   ******************************************************************************
  18:Src/main.c    ****   */
  19:Src/main.c    **** /* USER CODE END Header */
  20:Src/main.c    **** 
  21:Src/main.c    **** /* Includes ------------------------------------------------------------------*/
  22:Src/main.c    **** #include "main.h"
  23:Src/main.c    **** 
  24:Src/main.c    **** /* Private includes ----------------------------------------------------------*/
  25:Src/main.c    **** /* USER CODE BEGIN Includes */
  26:Src/main.c    **** 
  27:Src/main.c    **** #include <stdio.h>
  28:Src/main.c    **** #include "BMX160.h"
  29:Src/main.c    **** #include <string.h>
  30:Src/main.c    **** 
  31:Src/main.c    **** /* USER CODE END Includes */
  32:Src/main.c    **** 
ARM GAS  C:\Users\Giorgio\AppData\Local\Temp\ccpuEN3p.s 			page 2


  33:Src/main.c    **** /* Private typedef -----------------------------------------------------------*/
  34:Src/main.c    **** /* USER CODE BEGIN PTD */
  35:Src/main.c    **** 
  36:Src/main.c    **** /* USER CODE END PTD */
  37:Src/main.c    **** 
  38:Src/main.c    **** /* Private define ------------------------------------------------------------*/
  39:Src/main.c    **** /* USER CODE BEGIN PD */
  40:Src/main.c    **** /* USER CODE END PD */
  41:Src/main.c    **** 
  42:Src/main.c    **** /* Private macro -------------------------------------------------------------*/
  43:Src/main.c    **** /* USER CODE BEGIN PM */
  44:Src/main.c    **** 
  45:Src/main.c    **** /* USER CODE END PM */
  46:Src/main.c    **** 
  47:Src/main.c    **** /* Private variables ---------------------------------------------------------*/
  48:Src/main.c    **** 
  49:Src/main.c    **** I2C_HandleTypeDef hi2c4;
  50:Src/main.c    **** 
  51:Src/main.c    **** TIM_HandleTypeDef htim2;
  52:Src/main.c    **** 
  53:Src/main.c    **** UART_HandleTypeDef huart4;
  54:Src/main.c    **** UART_HandleTypeDef huart7;
  55:Src/main.c    **** DMA_HandleTypeDef hdma_uart7_rx;
  56:Src/main.c    **** 
  57:Src/main.c    **** /* USER CODE BEGIN PV */
  58:Src/main.c    **** 
  59:Src/main.c    **** BMX_IMU_typedef BMX; //BMX strut creation
  60:Src/main.c    **** 
  61:Src/main.c    **** uint8_t buff[32]; //buffer for data transmission
  62:Src/main.c    **** char string[] = "Hello World!\r\n";
  63:Src/main.c    **** uint8_t main_counter = 0; //counter to trigger events only after some main cycles
  64:Src/main.c    **** uint8_t tlm_counter = 0; //counter to send telemetry
  65:Src/main.c    **** HAL_StatusTypeDef ret;
  66:Src/main.c    **** 
  67:Src/main.c    **** float Tlm_Tx_buff[6]; //buffer to store the floating point values to send via telemetry
  68:Src/main.c    **** 
  69:Src/main.c    **** float sample_time = 0.01; //[s] sample time
  70:Src/main.c    **** 
  71:Src/main.c    **** /* USER CODE END PV */
  72:Src/main.c    **** 
  73:Src/main.c    **** /* Private function prototypes -----------------------------------------------*/
  74:Src/main.c    **** void SystemClock_Config(void);
  75:Src/main.c    **** static void MX_GPIO_Init(void);
  76:Src/main.c    **** static void MX_DMA_Init(void);
  77:Src/main.c    **** static void MX_I2C4_Init(void);
  78:Src/main.c    **** static void MX_TIM2_Init(void);
  79:Src/main.c    **** static void MX_UART4_Init(void);
  80:Src/main.c    **** static void MX_UART7_Init(void);
  81:Src/main.c    **** static void MX_TIM1_Init(void);
  82:Src/main.c    **** /* USER CODE BEGIN PFP */
  83:Src/main.c    **** 
  84:Src/main.c    **** void BMX_Init(BMX_IMU_typedef *BMX_str);//init for BMX
  85:Src/main.c    **** 
  86:Src/main.c    **** /* USER CODE END PFP */
  87:Src/main.c    **** 
  88:Src/main.c    **** /* Private user code ---------------------------------------------------------*/
  89:Src/main.c    **** /* USER CODE BEGIN 0 */
ARM GAS  C:\Users\Giorgio\AppData\Local\Temp\ccpuEN3p.s 			page 3


  90:Src/main.c    **** 
  91:Src/main.c    **** /* USER CODE END 0 */
  92:Src/main.c    **** 
  93:Src/main.c    **** /**
  94:Src/main.c    ****   * @brief  The application entry point.
  95:Src/main.c    ****   * @retval int
  96:Src/main.c    ****   */
  97:Src/main.c    **** int main(void)
  98:Src/main.c    **** {
  99:Src/main.c    ****   /* USER CODE BEGIN 1 */
 100:Src/main.c    **** 
 101:Src/main.c    ****   /* USER CODE END 1 */
 102:Src/main.c    ****   
 103:Src/main.c    **** 
 104:Src/main.c    ****   /* MCU Configuration--------------------------------------------------------*/
 105:Src/main.c    **** 
 106:Src/main.c    ****   /* Reset of all peripherals, Initializes the Flash interface and the Systick. */
 107:Src/main.c    ****   HAL_Init();
 108:Src/main.c    **** 
 109:Src/main.c    ****   /* USER CODE BEGIN Init */
 110:Src/main.c    **** 
 111:Src/main.c    ****   /* USER CODE END Init */
 112:Src/main.c    **** 
 113:Src/main.c    ****   /* Configure the system clock */
 114:Src/main.c    ****   SystemClock_Config();
 115:Src/main.c    **** 
 116:Src/main.c    ****   /* USER CODE BEGIN SysInit */
 117:Src/main.c    **** 
 118:Src/main.c    ****   /* USER CODE END SysInit */
 119:Src/main.c    **** 
 120:Src/main.c    ****   /* Initialize all configured peripherals */
 121:Src/main.c    ****   MX_GPIO_Init();
 122:Src/main.c    ****   MX_DMA_Init();
 123:Src/main.c    ****   MX_I2C4_Init();
 124:Src/main.c    ****   MX_TIM2_Init();
 125:Src/main.c    ****   MX_UART4_Init();
 126:Src/main.c    ****   MX_UART7_Init();
 127:Src/main.c    ****   MX_TIM1_Init();
 128:Src/main.c    ****   /* USER CODE BEGIN 2 */
 129:Src/main.c    **** 
 130:Src/main.c    ****   //BMX initialization
 131:Src/main.c    **** 
 132:Src/main.c    ****   HAL_Delay(1000);
 133:Src/main.c    **** 
 134:Src/main.c    ****   LL_TIM_EnableCounter(TIM1);
 135:Src/main.c    **** 
 136:Src/main.c    ****   BMX_Init(&BMX);
 137:Src/main.c    **** 
 138:Src/main.c    ****   //writing hello world on xbee
 139:Src/main.c    ****   sprintf((char*)buff, string);
 140:Src/main.c    **** 
 141:Src/main.c    ****   HAL_UART_Transmit(&huart4, buff, strlen((char*)buff), HAL_MAX_DELAY);
 142:Src/main.c    **** 
 143:Src/main.c    ****   //BMX calibration
 144:Src/main.c    ****   BMX_calibration(&BMX);
 145:Src/main.c    **** 
 146:Src/main.c    ****   //Starting timer 2 in interrupt mode
ARM GAS  C:\Users\Giorgio\AppData\Local\Temp\ccpuEN3p.s 			page 4


 147:Src/main.c    ****   HAL_TIM_Base_Start_IT(&htim2); //this function start the timer in interrupt mode and calls the ir
 148:Src/main.c    ****   //every time that an interrupt event occurs, but the only event which will call a function is per
 149:Src/main.c    **** 
 150:Src/main.c    ****   /* USER CODE END 2 */
 151:Src/main.c    ****  
 152:Src/main.c    ****  
 153:Src/main.c    **** 
 154:Src/main.c    ****   /* Infinite loop */
 155:Src/main.c    ****   /* USER CODE BEGIN WHILE */
 156:Src/main.c    ****   while (1)
 157:Src/main.c    ****   {
 158:Src/main.c    ****     /* USER CODE END WHILE */
 159:Src/main.c    **** 
 160:Src/main.c    ****     /* USER CODE BEGIN 3 */
 161:Src/main.c    ****   }
 162:Src/main.c    ****   /* USER CODE END 3 */
 163:Src/main.c    **** }
 164:Src/main.c    **** 
 165:Src/main.c    **** /**
 166:Src/main.c    ****   * @brief System Clock Configuration
 167:Src/main.c    ****   * @retval None
 168:Src/main.c    ****   */
 169:Src/main.c    **** void SystemClock_Config(void)
 170:Src/main.c    **** {
 171:Src/main.c    ****   RCC_OscInitTypeDef RCC_OscInitStruct = {0};
 172:Src/main.c    ****   RCC_ClkInitTypeDef RCC_ClkInitStruct = {0};
 173:Src/main.c    ****   RCC_PeriphCLKInitTypeDef PeriphClkInitStruct = {0};
 174:Src/main.c    **** 
 175:Src/main.c    ****   /** Configure the main internal regulator output voltage 
 176:Src/main.c    ****   */
 177:Src/main.c    ****   __HAL_RCC_PWR_CLK_ENABLE();
 178:Src/main.c    ****   __HAL_PWR_VOLTAGESCALING_CONFIG(PWR_REGULATOR_VOLTAGE_SCALE1);
 179:Src/main.c    ****   /** Initializes the CPU, AHB and APB busses clocks 
 180:Src/main.c    ****   */
 181:Src/main.c    ****   RCC_OscInitStruct.OscillatorType = RCC_OSCILLATORTYPE_HSE;
 182:Src/main.c    ****   RCC_OscInitStruct.HSEState = RCC_HSE_ON;
 183:Src/main.c    ****   RCC_OscInitStruct.PLL.PLLState = RCC_PLL_ON;
 184:Src/main.c    ****   RCC_OscInitStruct.PLL.PLLSource = RCC_PLLSOURCE_HSE;
 185:Src/main.c    ****   RCC_OscInitStruct.PLL.PLLM = 8;
 186:Src/main.c    ****   RCC_OscInitStruct.PLL.PLLN = 192;
 187:Src/main.c    ****   RCC_OscInitStruct.PLL.PLLP = RCC_PLLP_DIV2;
 188:Src/main.c    ****   RCC_OscInitStruct.PLL.PLLQ = 2;
 189:Src/main.c    ****   if (HAL_RCC_OscConfig(&RCC_OscInitStruct) != HAL_OK)
 190:Src/main.c    ****   {
 191:Src/main.c    ****     Error_Handler();
 192:Src/main.c    ****   }
 193:Src/main.c    ****   /** Activate the Over-Drive mode 
 194:Src/main.c    ****   */
 195:Src/main.c    ****   if (HAL_PWREx_EnableOverDrive() != HAL_OK)
 196:Src/main.c    ****   {
 197:Src/main.c    ****     Error_Handler();
 198:Src/main.c    ****   }
 199:Src/main.c    ****   /** Initializes the CPU, AHB and APB busses clocks 
 200:Src/main.c    ****   */
 201:Src/main.c    ****   RCC_ClkInitStruct.ClockType = RCC_CLOCKTYPE_HCLK|RCC_CLOCKTYPE_SYSCLK
 202:Src/main.c    ****                               |RCC_CLOCKTYPE_PCLK1|RCC_CLOCKTYPE_PCLK2;
 203:Src/main.c    ****   RCC_ClkInitStruct.SYSCLKSource = RCC_SYSCLKSOURCE_PLLCLK;
ARM GAS  C:\Users\Giorgio\AppData\Local\Temp\ccpuEN3p.s 			page 5


 204:Src/main.c    ****   RCC_ClkInitStruct.AHBCLKDivider = RCC_SYSCLK_DIV1;
 205:Src/main.c    ****   RCC_ClkInitStruct.APB1CLKDivider = RCC_HCLK_DIV4;
 206:Src/main.c    ****   RCC_ClkInitStruct.APB2CLKDivider = RCC_HCLK_DIV2;
 207:Src/main.c    **** 
 208:Src/main.c    ****   if (HAL_RCC_ClockConfig(&RCC_ClkInitStruct, FLASH_LATENCY_6) != HAL_OK)
 209:Src/main.c    ****   {
 210:Src/main.c    ****     Error_Handler();
 211:Src/main.c    ****   }
 212:Src/main.c    ****   PeriphClkInitStruct.PeriphClockSelection = RCC_PERIPHCLK_UART4|RCC_PERIPHCLK_UART7
 213:Src/main.c    ****                               |RCC_PERIPHCLK_I2C4;
 214:Src/main.c    ****   PeriphClkInitStruct.Uart4ClockSelection = RCC_UART4CLKSOURCE_PCLK1;
 215:Src/main.c    ****   PeriphClkInitStruct.Uart7ClockSelection = RCC_UART7CLKSOURCE_PCLK1;
 216:Src/main.c    ****   PeriphClkInitStruct.I2c4ClockSelection = RCC_I2C4CLKSOURCE_PCLK1;
 217:Src/main.c    ****   if (HAL_RCCEx_PeriphCLKConfig(&PeriphClkInitStruct) != HAL_OK)
 218:Src/main.c    ****   {
 219:Src/main.c    ****     Error_Handler();
 220:Src/main.c    ****   }
 221:Src/main.c    **** }
 222:Src/main.c    **** 
 223:Src/main.c    **** /**
 224:Src/main.c    ****   * @brief I2C4 Initialization Function
 225:Src/main.c    ****   * @param None
 226:Src/main.c    ****   * @retval None
 227:Src/main.c    ****   */
 228:Src/main.c    **** static void MX_I2C4_Init(void)
 229:Src/main.c    **** {
 230:Src/main.c    **** 
 231:Src/main.c    ****   /* USER CODE BEGIN I2C4_Init 0 */
 232:Src/main.c    **** 
 233:Src/main.c    ****   /* USER CODE END I2C4_Init 0 */
 234:Src/main.c    **** 
 235:Src/main.c    ****   /* USER CODE BEGIN I2C4_Init 1 */
 236:Src/main.c    **** 
 237:Src/main.c    ****   /* USER CODE END I2C4_Init 1 */
 238:Src/main.c    ****   hi2c4.Instance = I2C4;
 239:Src/main.c    ****   hi2c4.Init.Timing = 0x2010091A;
 240:Src/main.c    ****   hi2c4.Init.OwnAddress1 = 0;
 241:Src/main.c    ****   hi2c4.Init.AddressingMode = I2C_ADDRESSINGMODE_7BIT;
 242:Src/main.c    ****   hi2c4.Init.DualAddressMode = I2C_DUALADDRESS_DISABLE;
 243:Src/main.c    ****   hi2c4.Init.OwnAddress2 = 0;
 244:Src/main.c    ****   hi2c4.Init.OwnAddress2Masks = I2C_OA2_NOMASK;
 245:Src/main.c    ****   hi2c4.Init.GeneralCallMode = I2C_GENERALCALL_DISABLE;
 246:Src/main.c    ****   hi2c4.Init.NoStretchMode = I2C_NOSTRETCH_DISABLE;
 247:Src/main.c    ****   if (HAL_I2C_Init(&hi2c4) != HAL_OK)
 248:Src/main.c    ****   {
 249:Src/main.c    ****     Error_Handler();
 250:Src/main.c    ****   }
 251:Src/main.c    ****   /** Configure Analogue filter 
 252:Src/main.c    ****   */
 253:Src/main.c    ****   if (HAL_I2CEx_ConfigAnalogFilter(&hi2c4, I2C_ANALOGFILTER_ENABLE) != HAL_OK)
 254:Src/main.c    ****   {
 255:Src/main.c    ****     Error_Handler();
 256:Src/main.c    ****   }
 257:Src/main.c    ****   /** Configure Digital filter 
 258:Src/main.c    ****   */
 259:Src/main.c    ****   if (HAL_I2CEx_ConfigDigitalFilter(&hi2c4, 0) != HAL_OK)
 260:Src/main.c    ****   {
ARM GAS  C:\Users\Giorgio\AppData\Local\Temp\ccpuEN3p.s 			page 6


 261:Src/main.c    ****     Error_Handler();
 262:Src/main.c    ****   }
 263:Src/main.c    ****   /* USER CODE BEGIN I2C4_Init 2 */
 264:Src/main.c    **** 
 265:Src/main.c    ****   /* USER CODE END I2C4_Init 2 */
 266:Src/main.c    **** 
 267:Src/main.c    **** }
 268:Src/main.c    **** 
 269:Src/main.c    **** /**
 270:Src/main.c    ****   * @brief TIM1 Initialization Function
 271:Src/main.c    ****   * @param None
 272:Src/main.c    ****   * @retval None
 273:Src/main.c    ****   */
 274:Src/main.c    **** static void MX_TIM1_Init(void)
 275:Src/main.c    **** {
 276:Src/main.c    **** 
 277:Src/main.c    ****   /* USER CODE BEGIN TIM1_Init 0 */
 278:Src/main.c    **** 
 279:Src/main.c    ****   /* USER CODE END TIM1_Init 0 */
 280:Src/main.c    **** 
 281:Src/main.c    ****   LL_TIM_InitTypeDef TIM_InitStruct = {0};
 282:Src/main.c    **** 
 283:Src/main.c    ****   /* Peripheral clock enable */
 284:Src/main.c    ****   LL_APB2_GRP1_EnableClock(LL_APB2_GRP1_PERIPH_TIM1);
 285:Src/main.c    **** 
 286:Src/main.c    ****   /* USER CODE BEGIN TIM1_Init 1 */
 287:Src/main.c    **** 
 288:Src/main.c    ****   /* USER CODE END TIM1_Init 1 */
 289:Src/main.c    ****   TIM_InitStruct.Prescaler = 191;
 290:Src/main.c    ****   TIM_InitStruct.CounterMode = LL_TIM_COUNTERMODE_UP;
 291:Src/main.c    ****   TIM_InitStruct.Autoreload = 65000;
 292:Src/main.c    ****   TIM_InitStruct.ClockDivision = LL_TIM_CLOCKDIVISION_DIV1;
 293:Src/main.c    ****   TIM_InitStruct.RepetitionCounter = 0;
 294:Src/main.c    ****   LL_TIM_Init(TIM1, &TIM_InitStruct);
 295:Src/main.c    ****   LL_TIM_DisableARRPreload(TIM1);
 296:Src/main.c    ****   LL_TIM_SetClockSource(TIM1, LL_TIM_CLOCKSOURCE_INTERNAL);
 297:Src/main.c    ****   LL_TIM_SetTriggerOutput(TIM1, LL_TIM_TRGO_RESET);
 298:Src/main.c    ****   LL_TIM_SetTriggerOutput2(TIM1, LL_TIM_TRGO2_RESET);
 299:Src/main.c    ****   LL_TIM_DisableMasterSlaveMode(TIM1);
 300:Src/main.c    ****   /* USER CODE BEGIN TIM1_Init 2 */
 301:Src/main.c    **** 
 302:Src/main.c    ****   /* USER CODE END TIM1_Init 2 */
 303:Src/main.c    **** 
 304:Src/main.c    **** }
 305:Src/main.c    **** 
 306:Src/main.c    **** /**
 307:Src/main.c    ****   * @brief TIM2 Initialization Function
 308:Src/main.c    ****   * @param None
 309:Src/main.c    ****   * @retval None
 310:Src/main.c    ****   */
 311:Src/main.c    **** static void MX_TIM2_Init(void)
 312:Src/main.c    **** {
 313:Src/main.c    **** 
 314:Src/main.c    ****   /* USER CODE BEGIN TIM2_Init 0 */
 315:Src/main.c    **** 
 316:Src/main.c    ****   /* USER CODE END TIM2_Init 0 */
 317:Src/main.c    **** 
ARM GAS  C:\Users\Giorgio\AppData\Local\Temp\ccpuEN3p.s 			page 7


 318:Src/main.c    ****   TIM_ClockConfigTypeDef sClockSourceConfig = {0};
 319:Src/main.c    ****   TIM_MasterConfigTypeDef sMasterConfig = {0};
 320:Src/main.c    **** 
 321:Src/main.c    ****   /* USER CODE BEGIN TIM2_Init 1 */
 322:Src/main.c    **** 
 323:Src/main.c    ****   /* USER CODE END TIM2_Init 1 */
 324:Src/main.c    ****   htim2.Instance = TIM2;
 325:Src/main.c    ****   htim2.Init.Prescaler = 95;
 326:Src/main.c    ****   htim2.Init.CounterMode = TIM_COUNTERMODE_UP;
 327:Src/main.c    ****   htim2.Init.Period = 9999;
 328:Src/main.c    ****   htim2.Init.ClockDivision = TIM_CLOCKDIVISION_DIV1;
 329:Src/main.c    ****   htim2.Init.AutoReloadPreload = TIM_AUTORELOAD_PRELOAD_DISABLE;
 330:Src/main.c    ****   if (HAL_TIM_Base_Init(&htim2) != HAL_OK)
 331:Src/main.c    ****   {
 332:Src/main.c    ****     Error_Handler();
 333:Src/main.c    ****   }
 334:Src/main.c    ****   sClockSourceConfig.ClockSource = TIM_CLOCKSOURCE_INTERNAL;
 335:Src/main.c    ****   if (HAL_TIM_ConfigClockSource(&htim2, &sClockSourceConfig) != HAL_OK)
 336:Src/main.c    ****   {
 337:Src/main.c    ****     Error_Handler();
 338:Src/main.c    ****   }
 339:Src/main.c    ****   sMasterConfig.MasterOutputTrigger = TIM_TRGO_RESET;
 340:Src/main.c    ****   sMasterConfig.MasterSlaveMode = TIM_MASTERSLAVEMODE_DISABLE;
 341:Src/main.c    ****   if (HAL_TIMEx_MasterConfigSynchronization(&htim2, &sMasterConfig) != HAL_OK)
 342:Src/main.c    ****   {
 343:Src/main.c    ****     Error_Handler();
 344:Src/main.c    ****   }
 345:Src/main.c    ****   /* USER CODE BEGIN TIM2_Init 2 */
 346:Src/main.c    **** 
 347:Src/main.c    ****   /* USER CODE END TIM2_Init 2 */
 348:Src/main.c    **** 
 349:Src/main.c    **** }
 350:Src/main.c    **** 
 351:Src/main.c    **** /**
 352:Src/main.c    ****   * @brief UART4 Initialization Function
 353:Src/main.c    ****   * @param None
 354:Src/main.c    ****   * @retval None
 355:Src/main.c    ****   */
 356:Src/main.c    **** static void MX_UART4_Init(void)
 357:Src/main.c    **** {
 358:Src/main.c    **** 
 359:Src/main.c    ****   /* USER CODE BEGIN UART4_Init 0 */
 360:Src/main.c    **** 
 361:Src/main.c    ****   /* USER CODE END UART4_Init 0 */
 362:Src/main.c    **** 
 363:Src/main.c    ****   /* USER CODE BEGIN UART4_Init 1 */
 364:Src/main.c    **** 
 365:Src/main.c    ****   /* USER CODE END UART4_Init 1 */
 366:Src/main.c    ****   huart4.Instance = UART4;
 367:Src/main.c    ****   huart4.Init.BaudRate = 115200;
 368:Src/main.c    ****   huart4.Init.WordLength = UART_WORDLENGTH_8B;
 369:Src/main.c    ****   huart4.Init.StopBits = UART_STOPBITS_1;
 370:Src/main.c    ****   huart4.Init.Parity = UART_PARITY_NONE;
 371:Src/main.c    ****   huart4.Init.Mode = UART_MODE_TX_RX;
 372:Src/main.c    ****   huart4.Init.HwFlowCtl = UART_HWCONTROL_NONE;
 373:Src/main.c    ****   huart4.Init.OverSampling = UART_OVERSAMPLING_16;
 374:Src/main.c    ****   huart4.Init.OneBitSampling = UART_ONE_BIT_SAMPLE_DISABLE;
ARM GAS  C:\Users\Giorgio\AppData\Local\Temp\ccpuEN3p.s 			page 8


 375:Src/main.c    ****   huart4.AdvancedInit.AdvFeatureInit = UART_ADVFEATURE_NO_INIT;
 376:Src/main.c    ****   if (HAL_UART_Init(&huart4) != HAL_OK)
 377:Src/main.c    ****   {
 378:Src/main.c    ****     Error_Handler();
 379:Src/main.c    ****   }
 380:Src/main.c    ****   /* USER CODE BEGIN UART4_Init 2 */
 381:Src/main.c    **** 
 382:Src/main.c    ****   /* USER CODE END UART4_Init 2 */
 383:Src/main.c    **** 
 384:Src/main.c    **** }
 385:Src/main.c    **** 
 386:Src/main.c    **** /**
 387:Src/main.c    ****   * @brief UART7 Initialization Function
 388:Src/main.c    ****   * @param None
 389:Src/main.c    ****   * @retval None
 390:Src/main.c    ****   */
 391:Src/main.c    **** static void MX_UART7_Init(void)
 392:Src/main.c    **** {
 393:Src/main.c    **** 
 394:Src/main.c    ****   /* USER CODE BEGIN UART7_Init 0 */
 395:Src/main.c    **** 
 396:Src/main.c    ****   /* USER CODE END UART7_Init 0 */
 397:Src/main.c    **** 
 398:Src/main.c    ****   /* USER CODE BEGIN UART7_Init 1 */
 399:Src/main.c    **** 
 400:Src/main.c    ****   /* USER CODE END UART7_Init 1 */
 401:Src/main.c    ****   huart7.Instance = UART7;
 402:Src/main.c    ****   huart7.Init.BaudRate = 100000;
 403:Src/main.c    ****   huart7.Init.WordLength = UART_WORDLENGTH_9B;
 404:Src/main.c    ****   huart7.Init.StopBits = UART_STOPBITS_1;
 405:Src/main.c    ****   huart7.Init.Parity = UART_PARITY_NONE;
 406:Src/main.c    ****   huart7.Init.Mode = UART_MODE_TX_RX;
 407:Src/main.c    ****   huart7.Init.HwFlowCtl = UART_HWCONTROL_NONE;
 408:Src/main.c    ****   huart7.Init.OverSampling = UART_OVERSAMPLING_16;
 409:Src/main.c    ****   huart7.Init.OneBitSampling = UART_ONE_BIT_SAMPLE_DISABLE;
 410:Src/main.c    ****   huart7.AdvancedInit.AdvFeatureInit = UART_ADVFEATURE_NO_INIT;
 411:Src/main.c    ****   if (HAL_UART_Init(&huart7) != HAL_OK)
 412:Src/main.c    ****   {
 413:Src/main.c    ****     Error_Handler();
 414:Src/main.c    ****   }
 415:Src/main.c    ****   /* USER CODE BEGIN UART7_Init 2 */
 416:Src/main.c    **** 
 417:Src/main.c    ****   /* USER CODE END UART7_Init 2 */
 418:Src/main.c    **** 
 419:Src/main.c    **** }
 420:Src/main.c    **** 
 421:Src/main.c    **** /** 
 422:Src/main.c    ****   * Enable DMA controller clock
 423:Src/main.c    ****   */
 424:Src/main.c    **** static void MX_DMA_Init(void) 
 425:Src/main.c    **** {
 426:Src/main.c    **** 
 427:Src/main.c    ****   /* DMA controller clock enable */
 428:Src/main.c    ****   __HAL_RCC_DMA1_CLK_ENABLE();
 429:Src/main.c    **** 
 430:Src/main.c    ****   /* DMA interrupt init */
 431:Src/main.c    ****   /* DMA1_Stream3_IRQn interrupt configuration */
ARM GAS  C:\Users\Giorgio\AppData\Local\Temp\ccpuEN3p.s 			page 9


 432:Src/main.c    ****   HAL_NVIC_SetPriority(DMA1_Stream3_IRQn, 0, 0);
 433:Src/main.c    ****   HAL_NVIC_EnableIRQ(DMA1_Stream3_IRQn);
 434:Src/main.c    **** 
 435:Src/main.c    **** }
 436:Src/main.c    **** 
 437:Src/main.c    **** /**
 438:Src/main.c    ****   * @brief GPIO Initialization Function
 439:Src/main.c    ****   * @param None
 440:Src/main.c    ****   * @retval None
 441:Src/main.c    ****   */
 442:Src/main.c    **** static void MX_GPIO_Init(void)
 443:Src/main.c    **** {
  27              		.loc 1 443 1 view -0
  28              		.cfi_startproc
  29              		@ args = 0, pretend = 0, frame = 40
  30              		@ frame_needed = 0, uses_anonymous_args = 0
  31 0000 30B5     		push	{r4, r5, lr}
  32              	.LCFI0:
  33              		.cfi_def_cfa_offset 12
  34              		.cfi_offset 4, -12
  35              		.cfi_offset 5, -8
  36              		.cfi_offset 14, -4
  37 0002 8BB0     		sub	sp, sp, #44
  38              	.LCFI1:
  39              		.cfi_def_cfa_offset 56
 444:Src/main.c    ****   GPIO_InitTypeDef GPIO_InitStruct = {0};
  40              		.loc 1 444 3 view .LVU1
  41              		.loc 1 444 20 is_stmt 0 view .LVU2
  42 0004 0024     		movs	r4, #0
  43 0006 0594     		str	r4, [sp, #20]
  44 0008 0694     		str	r4, [sp, #24]
  45 000a 0794     		str	r4, [sp, #28]
  46 000c 0894     		str	r4, [sp, #32]
  47 000e 0994     		str	r4, [sp, #36]
 445:Src/main.c    **** 
 446:Src/main.c    ****   /* GPIO Ports Clock Enable */
 447:Src/main.c    ****   __HAL_RCC_GPIOE_CLK_ENABLE();
  48              		.loc 1 447 3 is_stmt 1 view .LVU3
  49              	.LBB37:
  50              		.loc 1 447 3 view .LVU4
  51              		.loc 1 447 3 view .LVU5
  52 0010 1B4B     		ldr	r3, .L3
  53 0012 1A6B     		ldr	r2, [r3, #48]
  54 0014 42F01002 		orr	r2, r2, #16
  55 0018 1A63     		str	r2, [r3, #48]
  56              		.loc 1 447 3 view .LVU6
  57 001a 1A6B     		ldr	r2, [r3, #48]
  58 001c 02F01002 		and	r2, r2, #16
  59 0020 0192     		str	r2, [sp, #4]
  60              		.loc 1 447 3 view .LVU7
  61 0022 019A     		ldr	r2, [sp, #4]
  62              	.LBE37:
  63              		.loc 1 447 3 view .LVU8
 448:Src/main.c    ****   __HAL_RCC_GPIOH_CLK_ENABLE();
  64              		.loc 1 448 3 view .LVU9
  65              	.LBB38:
  66              		.loc 1 448 3 view .LVU10
ARM GAS  C:\Users\Giorgio\AppData\Local\Temp\ccpuEN3p.s 			page 10


  67              		.loc 1 448 3 view .LVU11
  68 0024 1A6B     		ldr	r2, [r3, #48]
  69 0026 42F08002 		orr	r2, r2, #128
  70 002a 1A63     		str	r2, [r3, #48]
  71              		.loc 1 448 3 view .LVU12
  72 002c 1A6B     		ldr	r2, [r3, #48]
  73 002e 02F08002 		and	r2, r2, #128
  74 0032 0292     		str	r2, [sp, #8]
  75              		.loc 1 448 3 view .LVU13
  76 0034 029A     		ldr	r2, [sp, #8]
  77              	.LBE38:
  78              		.loc 1 448 3 view .LVU14
 449:Src/main.c    ****   __HAL_RCC_GPIOA_CLK_ENABLE();
  79              		.loc 1 449 3 view .LVU15
  80              	.LBB39:
  81              		.loc 1 449 3 view .LVU16
  82              		.loc 1 449 3 view .LVU17
  83 0036 1A6B     		ldr	r2, [r3, #48]
  84 0038 42F00102 		orr	r2, r2, #1
  85 003c 1A63     		str	r2, [r3, #48]
  86              		.loc 1 449 3 view .LVU18
  87 003e 1A6B     		ldr	r2, [r3, #48]
  88 0040 02F00102 		and	r2, r2, #1
  89 0044 0392     		str	r2, [sp, #12]
  90              		.loc 1 449 3 view .LVU19
  91 0046 039A     		ldr	r2, [sp, #12]
  92              	.LBE39:
  93              		.loc 1 449 3 view .LVU20
 450:Src/main.c    ****   __HAL_RCC_GPIOB_CLK_ENABLE();
  94              		.loc 1 450 3 view .LVU21
  95              	.LBB40:
  96              		.loc 1 450 3 view .LVU22
  97              		.loc 1 450 3 view .LVU23
  98 0048 1A6B     		ldr	r2, [r3, #48]
  99 004a 42F00202 		orr	r2, r2, #2
 100 004e 1A63     		str	r2, [r3, #48]
 101              		.loc 1 450 3 view .LVU24
 102 0050 1B6B     		ldr	r3, [r3, #48]
 103 0052 03F00203 		and	r3, r3, #2
 104 0056 0493     		str	r3, [sp, #16]
 105              		.loc 1 450 3 view .LVU25
 106 0058 049B     		ldr	r3, [sp, #16]
 107              	.LBE40:
 108              		.loc 1 450 3 view .LVU26
 451:Src/main.c    **** 
 452:Src/main.c    ****   /*Configure GPIO pin Output Level */
 453:Src/main.c    ****   HAL_GPIO_WritePin(GPIOE, GPIO_PIN_2, GPIO_PIN_RESET);
 109              		.loc 1 453 3 view .LVU27
 110 005a 0A4D     		ldr	r5, .L3+4
 111 005c 2246     		mov	r2, r4
 112 005e 0421     		movs	r1, #4
 113 0060 2846     		mov	r0, r5
 114 0062 FFF7FEFF 		bl	HAL_GPIO_WritePin
 115              	.LVL0:
 454:Src/main.c    **** 
 455:Src/main.c    ****   /*Configure GPIO pin : PE2 */
 456:Src/main.c    ****   GPIO_InitStruct.Pin = GPIO_PIN_2;
ARM GAS  C:\Users\Giorgio\AppData\Local\Temp\ccpuEN3p.s 			page 11


 116              		.loc 1 456 3 view .LVU28
 117              		.loc 1 456 23 is_stmt 0 view .LVU29
 118 0066 0423     		movs	r3, #4
 119 0068 0593     		str	r3, [sp, #20]
 457:Src/main.c    ****   GPIO_InitStruct.Mode = GPIO_MODE_OUTPUT_PP;
 120              		.loc 1 457 3 is_stmt 1 view .LVU30
 121              		.loc 1 457 24 is_stmt 0 view .LVU31
 122 006a 0123     		movs	r3, #1
 123 006c 0693     		str	r3, [sp, #24]
 458:Src/main.c    ****   GPIO_InitStruct.Pull = GPIO_NOPULL;
 124              		.loc 1 458 3 is_stmt 1 view .LVU32
 125              		.loc 1 458 24 is_stmt 0 view .LVU33
 126 006e 0794     		str	r4, [sp, #28]
 459:Src/main.c    ****   GPIO_InitStruct.Speed = GPIO_SPEED_FREQ_LOW;
 127              		.loc 1 459 3 is_stmt 1 view .LVU34
 128              		.loc 1 459 25 is_stmt 0 view .LVU35
 129 0070 0894     		str	r4, [sp, #32]
 460:Src/main.c    ****   HAL_GPIO_Init(GPIOE, &GPIO_InitStruct);
 130              		.loc 1 460 3 is_stmt 1 view .LVU36
 131 0072 05A9     		add	r1, sp, #20
 132 0074 2846     		mov	r0, r5
 133 0076 FFF7FEFF 		bl	HAL_GPIO_Init
 134              	.LVL1:
 461:Src/main.c    **** 
 462:Src/main.c    **** }
 135              		.loc 1 462 1 is_stmt 0 view .LVU37
 136 007a 0BB0     		add	sp, sp, #44
 137              	.LCFI2:
 138              		.cfi_def_cfa_offset 12
 139              		@ sp needed
 140 007c 30BD     		pop	{r4, r5, pc}
 141              	.L4:
 142 007e 00BF     		.align	2
 143              	.L3:
 144 0080 00380240 		.word	1073887232
 145 0084 00100240 		.word	1073876992
 146              		.cfi_endproc
 147              	.LFE859:
 149              		.section	.text.MX_DMA_Init,"ax",%progbits
 150              		.align	1
 151              		.syntax unified
 152              		.thumb
 153              		.thumb_func
 154              		.fpu fpv5-d16
 156              	MX_DMA_Init:
 157              	.LFB858:
 425:Src/main.c    **** 
 158              		.loc 1 425 1 is_stmt 1 view -0
 159              		.cfi_startproc
 160              		@ args = 0, pretend = 0, frame = 8
 161              		@ frame_needed = 0, uses_anonymous_args = 0
 162 0000 00B5     		push	{lr}
 163              	.LCFI3:
 164              		.cfi_def_cfa_offset 4
 165              		.cfi_offset 14, -4
 166 0002 83B0     		sub	sp, sp, #12
 167              	.LCFI4:
ARM GAS  C:\Users\Giorgio\AppData\Local\Temp\ccpuEN3p.s 			page 12


 168              		.cfi_def_cfa_offset 16
 428:Src/main.c    **** 
 169              		.loc 1 428 3 view .LVU39
 170              	.LBB41:
 428:Src/main.c    **** 
 171              		.loc 1 428 3 view .LVU40
 428:Src/main.c    **** 
 172              		.loc 1 428 3 view .LVU41
 173 0004 0A4B     		ldr	r3, .L7
 174 0006 1A6B     		ldr	r2, [r3, #48]
 175 0008 42F40012 		orr	r2, r2, #2097152
 176 000c 1A63     		str	r2, [r3, #48]
 428:Src/main.c    **** 
 177              		.loc 1 428 3 view .LVU42
 178 000e 1B6B     		ldr	r3, [r3, #48]
 179 0010 03F40013 		and	r3, r3, #2097152
 180 0014 0193     		str	r3, [sp, #4]
 428:Src/main.c    **** 
 181              		.loc 1 428 3 view .LVU43
 182 0016 019B     		ldr	r3, [sp, #4]
 183              	.LBE41:
 428:Src/main.c    **** 
 184              		.loc 1 428 3 view .LVU44
 432:Src/main.c    ****   HAL_NVIC_EnableIRQ(DMA1_Stream3_IRQn);
 185              		.loc 1 432 3 view .LVU45
 186 0018 0022     		movs	r2, #0
 187 001a 1146     		mov	r1, r2
 188 001c 0E20     		movs	r0, #14
 189 001e FFF7FEFF 		bl	HAL_NVIC_SetPriority
 190              	.LVL2:
 433:Src/main.c    **** 
 191              		.loc 1 433 3 view .LVU46
 192 0022 0E20     		movs	r0, #14
 193 0024 FFF7FEFF 		bl	HAL_NVIC_EnableIRQ
 194              	.LVL3:
 435:Src/main.c    **** 
 195              		.loc 1 435 1 is_stmt 0 view .LVU47
 196 0028 03B0     		add	sp, sp, #12
 197              	.LCFI5:
 198              		.cfi_def_cfa_offset 4
 199              		@ sp needed
 200 002a 5DF804FB 		ldr	pc, [sp], #4
 201              	.L8:
 202 002e 00BF     		.align	2
 203              	.L7:
 204 0030 00380240 		.word	1073887232
 205              		.cfi_endproc
 206              	.LFE858:
 208              		.section	.text.MX_I2C4_Init,"ax",%progbits
 209              		.align	1
 210              		.syntax unified
 211              		.thumb
 212              		.thumb_func
 213              		.fpu fpv5-d16
 215              	MX_I2C4_Init:
 216              	.LFB853:
 229:Src/main.c    **** 
ARM GAS  C:\Users\Giorgio\AppData\Local\Temp\ccpuEN3p.s 			page 13


 217              		.loc 1 229 1 is_stmt 1 view -0
 218              		.cfi_startproc
 219              		@ args = 0, pretend = 0, frame = 0
 220              		@ frame_needed = 0, uses_anonymous_args = 0
 221 0000 38B5     		push	{r3, r4, r5, lr}
 222              	.LCFI6:
 223              		.cfi_def_cfa_offset 16
 224              		.cfi_offset 3, -16
 225              		.cfi_offset 4, -12
 226              		.cfi_offset 5, -8
 227              		.cfi_offset 14, -4
 238:Src/main.c    ****   hi2c4.Init.Timing = 0x2010091A;
 228              		.loc 1 238 3 view .LVU49
 238:Src/main.c    ****   hi2c4.Init.Timing = 0x2010091A;
 229              		.loc 1 238 18 is_stmt 0 view .LVU50
 230 0002 0D4C     		ldr	r4, .L11
 231 0004 0D4B     		ldr	r3, .L11+4
 232 0006 2360     		str	r3, [r4]
 239:Src/main.c    ****   hi2c4.Init.OwnAddress1 = 0;
 233              		.loc 1 239 3 is_stmt 1 view .LVU51
 239:Src/main.c    ****   hi2c4.Init.OwnAddress1 = 0;
 234              		.loc 1 239 21 is_stmt 0 view .LVU52
 235 0008 0D4B     		ldr	r3, .L11+8
 236 000a 6360     		str	r3, [r4, #4]
 240:Src/main.c    ****   hi2c4.Init.AddressingMode = I2C_ADDRESSINGMODE_7BIT;
 237              		.loc 1 240 3 is_stmt 1 view .LVU53
 240:Src/main.c    ****   hi2c4.Init.AddressingMode = I2C_ADDRESSINGMODE_7BIT;
 238              		.loc 1 240 26 is_stmt 0 view .LVU54
 239 000c 0025     		movs	r5, #0
 240 000e A560     		str	r5, [r4, #8]
 241:Src/main.c    ****   hi2c4.Init.DualAddressMode = I2C_DUALADDRESS_DISABLE;
 241              		.loc 1 241 3 is_stmt 1 view .LVU55
 241:Src/main.c    ****   hi2c4.Init.DualAddressMode = I2C_DUALADDRESS_DISABLE;
 242              		.loc 1 241 29 is_stmt 0 view .LVU56
 243 0010 0123     		movs	r3, #1
 244 0012 E360     		str	r3, [r4, #12]
 242:Src/main.c    ****   hi2c4.Init.OwnAddress2 = 0;
 245              		.loc 1 242 3 is_stmt 1 view .LVU57
 242:Src/main.c    ****   hi2c4.Init.OwnAddress2 = 0;
 246              		.loc 1 242 30 is_stmt 0 view .LVU58
 247 0014 2561     		str	r5, [r4, #16]
 243:Src/main.c    ****   hi2c4.Init.OwnAddress2Masks = I2C_OA2_NOMASK;
 248              		.loc 1 243 3 is_stmt 1 view .LVU59
 243:Src/main.c    ****   hi2c4.Init.OwnAddress2Masks = I2C_OA2_NOMASK;
 249              		.loc 1 243 26 is_stmt 0 view .LVU60
 250 0016 6561     		str	r5, [r4, #20]
 244:Src/main.c    ****   hi2c4.Init.GeneralCallMode = I2C_GENERALCALL_DISABLE;
 251              		.loc 1 244 3 is_stmt 1 view .LVU61
 244:Src/main.c    ****   hi2c4.Init.GeneralCallMode = I2C_GENERALCALL_DISABLE;
 252              		.loc 1 244 31 is_stmt 0 view .LVU62
 253 0018 A561     		str	r5, [r4, #24]
 245:Src/main.c    ****   hi2c4.Init.NoStretchMode = I2C_NOSTRETCH_DISABLE;
 254              		.loc 1 245 3 is_stmt 1 view .LVU63
 245:Src/main.c    ****   hi2c4.Init.NoStretchMode = I2C_NOSTRETCH_DISABLE;
 255              		.loc 1 245 30 is_stmt 0 view .LVU64
 256 001a E561     		str	r5, [r4, #28]
 246:Src/main.c    ****   if (HAL_I2C_Init(&hi2c4) != HAL_OK)
ARM GAS  C:\Users\Giorgio\AppData\Local\Temp\ccpuEN3p.s 			page 14


 257              		.loc 1 246 3 is_stmt 1 view .LVU65
 246:Src/main.c    ****   if (HAL_I2C_Init(&hi2c4) != HAL_OK)
 258              		.loc 1 246 28 is_stmt 0 view .LVU66
 259 001c 2562     		str	r5, [r4, #32]
 247:Src/main.c    ****   {
 260              		.loc 1 247 3 is_stmt 1 view .LVU67
 247:Src/main.c    ****   {
 261              		.loc 1 247 7 is_stmt 0 view .LVU68
 262 001e 2046     		mov	r0, r4
 263 0020 FFF7FEFF 		bl	HAL_I2C_Init
 264              	.LVL4:
 253:Src/main.c    ****   {
 265              		.loc 1 253 3 is_stmt 1 view .LVU69
 253:Src/main.c    ****   {
 266              		.loc 1 253 7 is_stmt 0 view .LVU70
 267 0024 2946     		mov	r1, r5
 268 0026 2046     		mov	r0, r4
 269 0028 FFF7FEFF 		bl	HAL_I2CEx_ConfigAnalogFilter
 270              	.LVL5:
 259:Src/main.c    ****   {
 271              		.loc 1 259 3 is_stmt 1 view .LVU71
 259:Src/main.c    ****   {
 272              		.loc 1 259 7 is_stmt 0 view .LVU72
 273 002c 2946     		mov	r1, r5
 274 002e 2046     		mov	r0, r4
 275 0030 FFF7FEFF 		bl	HAL_I2CEx_ConfigDigitalFilter
 276              	.LVL6:
 267:Src/main.c    **** 
 277              		.loc 1 267 1 view .LVU73
 278 0034 38BD     		pop	{r3, r4, r5, pc}
 279              	.L12:
 280 0036 00BF     		.align	2
 281              	.L11:
 282 0038 00000000 		.word	.LANCHOR0
 283 003c 00600040 		.word	1073766400
 284 0040 1A091020 		.word	537921818
 285              		.cfi_endproc
 286              	.LFE853:
 288              		.section	.text.MX_TIM2_Init,"ax",%progbits
 289              		.align	1
 290              		.syntax unified
 291              		.thumb
 292              		.thumb_func
 293              		.fpu fpv5-d16
 295              	MX_TIM2_Init:
 296              	.LFB855:
 312:Src/main.c    **** 
 297              		.loc 1 312 1 is_stmt 1 view -0
 298              		.cfi_startproc
 299              		@ args = 0, pretend = 0, frame = 32
 300              		@ frame_needed = 0, uses_anonymous_args = 0
 301 0000 30B5     		push	{r4, r5, lr}
 302              	.LCFI7:
 303              		.cfi_def_cfa_offset 12
 304              		.cfi_offset 4, -12
 305              		.cfi_offset 5, -8
 306              		.cfi_offset 14, -4
ARM GAS  C:\Users\Giorgio\AppData\Local\Temp\ccpuEN3p.s 			page 15


 307 0002 89B0     		sub	sp, sp, #36
 308              	.LCFI8:
 309              		.cfi_def_cfa_offset 48
 318:Src/main.c    ****   TIM_MasterConfigTypeDef sMasterConfig = {0};
 310              		.loc 1 318 3 view .LVU75
 318:Src/main.c    ****   TIM_MasterConfigTypeDef sMasterConfig = {0};
 311              		.loc 1 318 26 is_stmt 0 view .LVU76
 312 0004 0024     		movs	r4, #0
 313 0006 0494     		str	r4, [sp, #16]
 314 0008 0594     		str	r4, [sp, #20]
 315 000a 0694     		str	r4, [sp, #24]
 316 000c 0794     		str	r4, [sp, #28]
 319:Src/main.c    **** 
 317              		.loc 1 319 3 is_stmt 1 view .LVU77
 319:Src/main.c    **** 
 318              		.loc 1 319 27 is_stmt 0 view .LVU78
 319 000e 0194     		str	r4, [sp, #4]
 320 0010 0294     		str	r4, [sp, #8]
 321 0012 0394     		str	r4, [sp, #12]
 324:Src/main.c    ****   htim2.Init.Prescaler = 95;
 322              		.loc 1 324 3 is_stmt 1 view .LVU79
 324:Src/main.c    ****   htim2.Init.Prescaler = 95;
 323              		.loc 1 324 18 is_stmt 0 view .LVU80
 324 0014 0E4D     		ldr	r5, .L15
 325 0016 4FF08043 		mov	r3, #1073741824
 326 001a 2B60     		str	r3, [r5]
 325:Src/main.c    ****   htim2.Init.CounterMode = TIM_COUNTERMODE_UP;
 327              		.loc 1 325 3 is_stmt 1 view .LVU81
 325:Src/main.c    ****   htim2.Init.CounterMode = TIM_COUNTERMODE_UP;
 328              		.loc 1 325 24 is_stmt 0 view .LVU82
 329 001c 5F23     		movs	r3, #95
 330 001e 6B60     		str	r3, [r5, #4]
 326:Src/main.c    ****   htim2.Init.Period = 9999;
 331              		.loc 1 326 3 is_stmt 1 view .LVU83
 326:Src/main.c    ****   htim2.Init.Period = 9999;
 332              		.loc 1 326 26 is_stmt 0 view .LVU84
 333 0020 AC60     		str	r4, [r5, #8]
 327:Src/main.c    ****   htim2.Init.ClockDivision = TIM_CLOCKDIVISION_DIV1;
 334              		.loc 1 327 3 is_stmt 1 view .LVU85
 327:Src/main.c    ****   htim2.Init.ClockDivision = TIM_CLOCKDIVISION_DIV1;
 335              		.loc 1 327 21 is_stmt 0 view .LVU86
 336 0022 42F20F73 		movw	r3, #9999
 337 0026 EB60     		str	r3, [r5, #12]
 328:Src/main.c    ****   htim2.Init.AutoReloadPreload = TIM_AUTORELOAD_PRELOAD_DISABLE;
 338              		.loc 1 328 3 is_stmt 1 view .LVU87
 328:Src/main.c    ****   htim2.Init.AutoReloadPreload = TIM_AUTORELOAD_PRELOAD_DISABLE;
 339              		.loc 1 328 28 is_stmt 0 view .LVU88
 340 0028 2C61     		str	r4, [r5, #16]
 329:Src/main.c    ****   if (HAL_TIM_Base_Init(&htim2) != HAL_OK)
 341              		.loc 1 329 3 is_stmt 1 view .LVU89
 329:Src/main.c    ****   if (HAL_TIM_Base_Init(&htim2) != HAL_OK)
 342              		.loc 1 329 32 is_stmt 0 view .LVU90
 343 002a AC61     		str	r4, [r5, #24]
 330:Src/main.c    ****   {
 344              		.loc 1 330 3 is_stmt 1 view .LVU91
 330:Src/main.c    ****   {
 345              		.loc 1 330 7 is_stmt 0 view .LVU92
ARM GAS  C:\Users\Giorgio\AppData\Local\Temp\ccpuEN3p.s 			page 16


 346 002c 2846     		mov	r0, r5
 347 002e FFF7FEFF 		bl	HAL_TIM_Base_Init
 348              	.LVL7:
 334:Src/main.c    ****   if (HAL_TIM_ConfigClockSource(&htim2, &sClockSourceConfig) != HAL_OK)
 349              		.loc 1 334 3 is_stmt 1 view .LVU93
 334:Src/main.c    ****   if (HAL_TIM_ConfigClockSource(&htim2, &sClockSourceConfig) != HAL_OK)
 350              		.loc 1 334 34 is_stmt 0 view .LVU94
 351 0032 4FF48053 		mov	r3, #4096
 352 0036 0493     		str	r3, [sp, #16]
 335:Src/main.c    ****   {
 353              		.loc 1 335 3 is_stmt 1 view .LVU95
 335:Src/main.c    ****   {
 354              		.loc 1 335 7 is_stmt 0 view .LVU96
 355 0038 04A9     		add	r1, sp, #16
 356 003a 2846     		mov	r0, r5
 357 003c FFF7FEFF 		bl	HAL_TIM_ConfigClockSource
 358              	.LVL8:
 339:Src/main.c    ****   sMasterConfig.MasterSlaveMode = TIM_MASTERSLAVEMODE_DISABLE;
 359              		.loc 1 339 3 is_stmt 1 view .LVU97
 339:Src/main.c    ****   sMasterConfig.MasterSlaveMode = TIM_MASTERSLAVEMODE_DISABLE;
 360              		.loc 1 339 37 is_stmt 0 view .LVU98
 361 0040 0194     		str	r4, [sp, #4]
 340:Src/main.c    ****   if (HAL_TIMEx_MasterConfigSynchronization(&htim2, &sMasterConfig) != HAL_OK)
 362              		.loc 1 340 3 is_stmt 1 view .LVU99
 340:Src/main.c    ****   if (HAL_TIMEx_MasterConfigSynchronization(&htim2, &sMasterConfig) != HAL_OK)
 363              		.loc 1 340 33 is_stmt 0 view .LVU100
 364 0042 0394     		str	r4, [sp, #12]
 341:Src/main.c    ****   {
 365              		.loc 1 341 3 is_stmt 1 view .LVU101
 341:Src/main.c    ****   {
 366              		.loc 1 341 7 is_stmt 0 view .LVU102
 367 0044 01A9     		add	r1, sp, #4
 368 0046 2846     		mov	r0, r5
 369 0048 FFF7FEFF 		bl	HAL_TIMEx_MasterConfigSynchronization
 370              	.LVL9:
 349:Src/main.c    **** 
 371              		.loc 1 349 1 view .LVU103
 372 004c 09B0     		add	sp, sp, #36
 373              	.LCFI9:
 374              		.cfi_def_cfa_offset 12
 375              		@ sp needed
 376 004e 30BD     		pop	{r4, r5, pc}
 377              	.L16:
 378              		.align	2
 379              	.L15:
 380 0050 00000000 		.word	.LANCHOR1
 381              		.cfi_endproc
 382              	.LFE855:
 384              		.section	.text.MX_UART4_Init,"ax",%progbits
 385              		.align	1
 386              		.syntax unified
 387              		.thumb
 388              		.thumb_func
 389              		.fpu fpv5-d16
 391              	MX_UART4_Init:
 392              	.LFB856:
 357:Src/main.c    **** 
ARM GAS  C:\Users\Giorgio\AppData\Local\Temp\ccpuEN3p.s 			page 17


 393              		.loc 1 357 1 is_stmt 1 view -0
 394              		.cfi_startproc
 395              		@ args = 0, pretend = 0, frame = 0
 396              		@ frame_needed = 0, uses_anonymous_args = 0
 397 0000 08B5     		push	{r3, lr}
 398              	.LCFI10:
 399              		.cfi_def_cfa_offset 8
 400              		.cfi_offset 3, -8
 401              		.cfi_offset 14, -4
 366:Src/main.c    ****   huart4.Init.BaudRate = 115200;
 402              		.loc 1 366 3 view .LVU105
 366:Src/main.c    ****   huart4.Init.BaudRate = 115200;
 403              		.loc 1 366 19 is_stmt 0 view .LVU106
 404 0002 0948     		ldr	r0, .L19
 405 0004 094B     		ldr	r3, .L19+4
 406 0006 0360     		str	r3, [r0]
 367:Src/main.c    ****   huart4.Init.WordLength = UART_WORDLENGTH_8B;
 407              		.loc 1 367 3 is_stmt 1 view .LVU107
 367:Src/main.c    ****   huart4.Init.WordLength = UART_WORDLENGTH_8B;
 408              		.loc 1 367 24 is_stmt 0 view .LVU108
 409 0008 4FF4E133 		mov	r3, #115200
 410 000c 4360     		str	r3, [r0, #4]
 368:Src/main.c    ****   huart4.Init.StopBits = UART_STOPBITS_1;
 411              		.loc 1 368 3 is_stmt 1 view .LVU109
 368:Src/main.c    ****   huart4.Init.StopBits = UART_STOPBITS_1;
 412              		.loc 1 368 26 is_stmt 0 view .LVU110
 413 000e 0023     		movs	r3, #0
 414 0010 8360     		str	r3, [r0, #8]
 369:Src/main.c    ****   huart4.Init.Parity = UART_PARITY_NONE;
 415              		.loc 1 369 3 is_stmt 1 view .LVU111
 369:Src/main.c    ****   huart4.Init.Parity = UART_PARITY_NONE;
 416              		.loc 1 369 24 is_stmt 0 view .LVU112
 417 0012 C360     		str	r3, [r0, #12]
 370:Src/main.c    ****   huart4.Init.Mode = UART_MODE_TX_RX;
 418              		.loc 1 370 3 is_stmt 1 view .LVU113
 370:Src/main.c    ****   huart4.Init.Mode = UART_MODE_TX_RX;
 419              		.loc 1 370 22 is_stmt 0 view .LVU114
 420 0014 0361     		str	r3, [r0, #16]
 371:Src/main.c    ****   huart4.Init.HwFlowCtl = UART_HWCONTROL_NONE;
 421              		.loc 1 371 3 is_stmt 1 view .LVU115
 371:Src/main.c    ****   huart4.Init.HwFlowCtl = UART_HWCONTROL_NONE;
 422              		.loc 1 371 20 is_stmt 0 view .LVU116
 423 0016 0C22     		movs	r2, #12
 424 0018 4261     		str	r2, [r0, #20]
 372:Src/main.c    ****   huart4.Init.OverSampling = UART_OVERSAMPLING_16;
 425              		.loc 1 372 3 is_stmt 1 view .LVU117
 372:Src/main.c    ****   huart4.Init.OverSampling = UART_OVERSAMPLING_16;
 426              		.loc 1 372 25 is_stmt 0 view .LVU118
 427 001a 8361     		str	r3, [r0, #24]
 373:Src/main.c    ****   huart4.Init.OneBitSampling = UART_ONE_BIT_SAMPLE_DISABLE;
 428              		.loc 1 373 3 is_stmt 1 view .LVU119
 373:Src/main.c    ****   huart4.Init.OneBitSampling = UART_ONE_BIT_SAMPLE_DISABLE;
 429              		.loc 1 373 28 is_stmt 0 view .LVU120
 430 001c C361     		str	r3, [r0, #28]
 374:Src/main.c    ****   huart4.AdvancedInit.AdvFeatureInit = UART_ADVFEATURE_NO_INIT;
 431              		.loc 1 374 3 is_stmt 1 view .LVU121
 374:Src/main.c    ****   huart4.AdvancedInit.AdvFeatureInit = UART_ADVFEATURE_NO_INIT;
ARM GAS  C:\Users\Giorgio\AppData\Local\Temp\ccpuEN3p.s 			page 18


 432              		.loc 1 374 30 is_stmt 0 view .LVU122
 433 001e 0362     		str	r3, [r0, #32]
 375:Src/main.c    ****   if (HAL_UART_Init(&huart4) != HAL_OK)
 434              		.loc 1 375 3 is_stmt 1 view .LVU123
 375:Src/main.c    ****   if (HAL_UART_Init(&huart4) != HAL_OK)
 435              		.loc 1 375 38 is_stmt 0 view .LVU124
 436 0020 4362     		str	r3, [r0, #36]
 376:Src/main.c    ****   {
 437              		.loc 1 376 3 is_stmt 1 view .LVU125
 376:Src/main.c    ****   {
 438              		.loc 1 376 7 is_stmt 0 view .LVU126
 439 0022 FFF7FEFF 		bl	HAL_UART_Init
 440              	.LVL10:
 384:Src/main.c    **** 
 441              		.loc 1 384 1 view .LVU127
 442 0026 08BD     		pop	{r3, pc}
 443              	.L20:
 444              		.align	2
 445              	.L19:
 446 0028 00000000 		.word	.LANCHOR2
 447 002c 004C0040 		.word	1073761280
 448              		.cfi_endproc
 449              	.LFE856:
 451              		.section	.text.MX_UART7_Init,"ax",%progbits
 452              		.align	1
 453              		.syntax unified
 454              		.thumb
 455              		.thumb_func
 456              		.fpu fpv5-d16
 458              	MX_UART7_Init:
 459              	.LFB857:
 392:Src/main.c    **** 
 460              		.loc 1 392 1 is_stmt 1 view -0
 461              		.cfi_startproc
 462              		@ args = 0, pretend = 0, frame = 0
 463              		@ frame_needed = 0, uses_anonymous_args = 0
 464 0000 08B5     		push	{r3, lr}
 465              	.LCFI11:
 466              		.cfi_def_cfa_offset 8
 467              		.cfi_offset 3, -8
 468              		.cfi_offset 14, -4
 401:Src/main.c    ****   huart7.Init.BaudRate = 100000;
 469              		.loc 1 401 3 view .LVU129
 401:Src/main.c    ****   huart7.Init.BaudRate = 100000;
 470              		.loc 1 401 19 is_stmt 0 view .LVU130
 471 0002 0A48     		ldr	r0, .L23
 472 0004 0A4B     		ldr	r3, .L23+4
 473 0006 0360     		str	r3, [r0]
 402:Src/main.c    ****   huart7.Init.WordLength = UART_WORDLENGTH_9B;
 474              		.loc 1 402 3 is_stmt 1 view .LVU131
 402:Src/main.c    ****   huart7.Init.WordLength = UART_WORDLENGTH_9B;
 475              		.loc 1 402 24 is_stmt 0 view .LVU132
 476 0008 0A4B     		ldr	r3, .L23+8
 477 000a 4360     		str	r3, [r0, #4]
 403:Src/main.c    ****   huart7.Init.StopBits = UART_STOPBITS_1;
 478              		.loc 1 403 3 is_stmt 1 view .LVU133
 403:Src/main.c    ****   huart7.Init.StopBits = UART_STOPBITS_1;
ARM GAS  C:\Users\Giorgio\AppData\Local\Temp\ccpuEN3p.s 			page 19


 479              		.loc 1 403 26 is_stmt 0 view .LVU134
 480 000c 4FF48053 		mov	r3, #4096
 481 0010 8360     		str	r3, [r0, #8]
 404:Src/main.c    ****   huart7.Init.Parity = UART_PARITY_NONE;
 482              		.loc 1 404 3 is_stmt 1 view .LVU135
 404:Src/main.c    ****   huart7.Init.Parity = UART_PARITY_NONE;
 483              		.loc 1 404 24 is_stmt 0 view .LVU136
 484 0012 0023     		movs	r3, #0
 485 0014 C360     		str	r3, [r0, #12]
 405:Src/main.c    ****   huart7.Init.Mode = UART_MODE_TX_RX;
 486              		.loc 1 405 3 is_stmt 1 view .LVU137
 405:Src/main.c    ****   huart7.Init.Mode = UART_MODE_TX_RX;
 487              		.loc 1 405 22 is_stmt 0 view .LVU138
 488 0016 0361     		str	r3, [r0, #16]
 406:Src/main.c    ****   huart7.Init.HwFlowCtl = UART_HWCONTROL_NONE;
 489              		.loc 1 406 3 is_stmt 1 view .LVU139
 406:Src/main.c    ****   huart7.Init.HwFlowCtl = UART_HWCONTROL_NONE;
 490              		.loc 1 406 20 is_stmt 0 view .LVU140
 491 0018 0C22     		movs	r2, #12
 492 001a 4261     		str	r2, [r0, #20]
 407:Src/main.c    ****   huart7.Init.OverSampling = UART_OVERSAMPLING_16;
 493              		.loc 1 407 3 is_stmt 1 view .LVU141
 407:Src/main.c    ****   huart7.Init.OverSampling = UART_OVERSAMPLING_16;
 494              		.loc 1 407 25 is_stmt 0 view .LVU142
 495 001c 8361     		str	r3, [r0, #24]
 408:Src/main.c    ****   huart7.Init.OneBitSampling = UART_ONE_BIT_SAMPLE_DISABLE;
 496              		.loc 1 408 3 is_stmt 1 view .LVU143
 408:Src/main.c    ****   huart7.Init.OneBitSampling = UART_ONE_BIT_SAMPLE_DISABLE;
 497              		.loc 1 408 28 is_stmt 0 view .LVU144
 498 001e C361     		str	r3, [r0, #28]
 409:Src/main.c    ****   huart7.AdvancedInit.AdvFeatureInit = UART_ADVFEATURE_NO_INIT;
 499              		.loc 1 409 3 is_stmt 1 view .LVU145
 409:Src/main.c    ****   huart7.AdvancedInit.AdvFeatureInit = UART_ADVFEATURE_NO_INIT;
 500              		.loc 1 409 30 is_stmt 0 view .LVU146
 501 0020 0362     		str	r3, [r0, #32]
 410:Src/main.c    ****   if (HAL_UART_Init(&huart7) != HAL_OK)
 502              		.loc 1 410 3 is_stmt 1 view .LVU147
 410:Src/main.c    ****   if (HAL_UART_Init(&huart7) != HAL_OK)
 503              		.loc 1 410 38 is_stmt 0 view .LVU148
 504 0022 4362     		str	r3, [r0, #36]
 411:Src/main.c    ****   {
 505              		.loc 1 411 3 is_stmt 1 view .LVU149
 411:Src/main.c    ****   {
 506              		.loc 1 411 7 is_stmt 0 view .LVU150
 507 0024 FFF7FEFF 		bl	HAL_UART_Init
 508              	.LVL11:
 419:Src/main.c    **** 
 509              		.loc 1 419 1 view .LVU151
 510 0028 08BD     		pop	{r3, pc}
 511              	.L24:
 512 002a 00BF     		.align	2
 513              	.L23:
 514 002c 00000000 		.word	.LANCHOR3
 515 0030 00780040 		.word	1073772544
 516 0034 A0860100 		.word	100000
 517              		.cfi_endproc
 518              	.LFE857:
ARM GAS  C:\Users\Giorgio\AppData\Local\Temp\ccpuEN3p.s 			page 20


 520              		.section	.text.MX_TIM1_Init,"ax",%progbits
 521              		.align	1
 522              		.syntax unified
 523              		.thumb
 524              		.thumb_func
 525              		.fpu fpv5-d16
 527              	MX_TIM1_Init:
 528              	.LFB854:
 275:Src/main.c    **** 
 529              		.loc 1 275 1 is_stmt 1 view -0
 530              		.cfi_startproc
 531              		@ args = 0, pretend = 0, frame = 24
 532              		@ frame_needed = 0, uses_anonymous_args = 0
 533 0000 10B5     		push	{r4, lr}
 534              	.LCFI12:
 535              		.cfi_def_cfa_offset 8
 536              		.cfi_offset 4, -8
 537              		.cfi_offset 14, -4
 538 0002 86B0     		sub	sp, sp, #24
 539              	.LCFI13:
 540              		.cfi_def_cfa_offset 32
 281:Src/main.c    **** 
 541              		.loc 1 281 3 view .LVU153
 281:Src/main.c    **** 
 542              		.loc 1 281 22 is_stmt 0 view .LVU154
 543 0004 0023     		movs	r3, #0
 544 0006 0193     		str	r3, [sp, #4]
 545 0008 0293     		str	r3, [sp, #8]
 546 000a 0393     		str	r3, [sp, #12]
 547 000c 0493     		str	r3, [sp, #16]
 548 000e 0593     		str	r3, [sp, #20]
 284:Src/main.c    **** 
 549              		.loc 1 284 3 is_stmt 1 view .LVU155
 550              	.LVL12:
 551              	.LBB42:
 552              	.LBI42:
 553              		.file 2 "Drivers/STM32F7xx_HAL_Driver/Inc/stm32f7xx_ll_bus.h"
   1:Drivers/STM32F7xx_HAL_Driver/Inc/stm32f7xx_ll_bus.h **** /**
   2:Drivers/STM32F7xx_HAL_Driver/Inc/stm32f7xx_ll_bus.h ****   ******************************************************************************
   3:Drivers/STM32F7xx_HAL_Driver/Inc/stm32f7xx_ll_bus.h ****   * @file    stm32f7xx_ll_bus.h
   4:Drivers/STM32F7xx_HAL_Driver/Inc/stm32f7xx_ll_bus.h ****   * @author  MCD Application Team
   5:Drivers/STM32F7xx_HAL_Driver/Inc/stm32f7xx_ll_bus.h ****   * @brief   Header file of BUS LL module.
   6:Drivers/STM32F7xx_HAL_Driver/Inc/stm32f7xx_ll_bus.h **** 
   7:Drivers/STM32F7xx_HAL_Driver/Inc/stm32f7xx_ll_bus.h ****   @verbatim
   8:Drivers/STM32F7xx_HAL_Driver/Inc/stm32f7xx_ll_bus.h ****                       ##### RCC Limitations #####
   9:Drivers/STM32F7xx_HAL_Driver/Inc/stm32f7xx_ll_bus.h ****   ==============================================================================
  10:Drivers/STM32F7xx_HAL_Driver/Inc/stm32f7xx_ll_bus.h ****     [..]  
  11:Drivers/STM32F7xx_HAL_Driver/Inc/stm32f7xx_ll_bus.h ****       A delay between an RCC peripheral clock enable and the effective peripheral 
  12:Drivers/STM32F7xx_HAL_Driver/Inc/stm32f7xx_ll_bus.h ****       enabling should be taken into account in order to manage the peripheral read/write 
  13:Drivers/STM32F7xx_HAL_Driver/Inc/stm32f7xx_ll_bus.h ****       from/to registers.
  14:Drivers/STM32F7xx_HAL_Driver/Inc/stm32f7xx_ll_bus.h ****       (+) This delay depends on the peripheral mapping.
  15:Drivers/STM32F7xx_HAL_Driver/Inc/stm32f7xx_ll_bus.h ****         (++) AHB & APB peripherals, 1 dummy read is necessary
  16:Drivers/STM32F7xx_HAL_Driver/Inc/stm32f7xx_ll_bus.h **** 
  17:Drivers/STM32F7xx_HAL_Driver/Inc/stm32f7xx_ll_bus.h ****     [..]  
  18:Drivers/STM32F7xx_HAL_Driver/Inc/stm32f7xx_ll_bus.h ****       Workarounds:
  19:Drivers/STM32F7xx_HAL_Driver/Inc/stm32f7xx_ll_bus.h ****       (#) For AHB & APB peripherals, a dummy read to the peripheral register has been
  20:Drivers/STM32F7xx_HAL_Driver/Inc/stm32f7xx_ll_bus.h ****           inserted in each LL_{BUS}_GRP{x}_EnableClock() function.
ARM GAS  C:\Users\Giorgio\AppData\Local\Temp\ccpuEN3p.s 			page 21


  21:Drivers/STM32F7xx_HAL_Driver/Inc/stm32f7xx_ll_bus.h **** 
  22:Drivers/STM32F7xx_HAL_Driver/Inc/stm32f7xx_ll_bus.h ****   @endverbatim
  23:Drivers/STM32F7xx_HAL_Driver/Inc/stm32f7xx_ll_bus.h ****   ******************************************************************************
  24:Drivers/STM32F7xx_HAL_Driver/Inc/stm32f7xx_ll_bus.h ****   * @attention
  25:Drivers/STM32F7xx_HAL_Driver/Inc/stm32f7xx_ll_bus.h ****   *
  26:Drivers/STM32F7xx_HAL_Driver/Inc/stm32f7xx_ll_bus.h ****   * <h2><center>&copy; Copyright (c) 2017 STMicroelectronics.
  27:Drivers/STM32F7xx_HAL_Driver/Inc/stm32f7xx_ll_bus.h ****   * All rights reserved.</center></h2>
  28:Drivers/STM32F7xx_HAL_Driver/Inc/stm32f7xx_ll_bus.h ****   *
  29:Drivers/STM32F7xx_HAL_Driver/Inc/stm32f7xx_ll_bus.h ****   * This software component is licensed by ST under BSD 3-Clause license,
  30:Drivers/STM32F7xx_HAL_Driver/Inc/stm32f7xx_ll_bus.h ****   * the "License"; You may not use this file except in compliance with the
  31:Drivers/STM32F7xx_HAL_Driver/Inc/stm32f7xx_ll_bus.h ****   * License. You may obtain a copy of the License at:
  32:Drivers/STM32F7xx_HAL_Driver/Inc/stm32f7xx_ll_bus.h ****   *                        opensource.org/licenses/BSD-3-Clause
  33:Drivers/STM32F7xx_HAL_Driver/Inc/stm32f7xx_ll_bus.h ****   *
  34:Drivers/STM32F7xx_HAL_Driver/Inc/stm32f7xx_ll_bus.h ****   ******************************************************************************
  35:Drivers/STM32F7xx_HAL_Driver/Inc/stm32f7xx_ll_bus.h ****   */
  36:Drivers/STM32F7xx_HAL_Driver/Inc/stm32f7xx_ll_bus.h **** 
  37:Drivers/STM32F7xx_HAL_Driver/Inc/stm32f7xx_ll_bus.h **** /* Define to prevent recursive inclusion -------------------------------------*/
  38:Drivers/STM32F7xx_HAL_Driver/Inc/stm32f7xx_ll_bus.h **** #ifndef __STM32F7xx_LL_BUS_H
  39:Drivers/STM32F7xx_HAL_Driver/Inc/stm32f7xx_ll_bus.h **** #define __STM32F7xx_LL_BUS_H
  40:Drivers/STM32F7xx_HAL_Driver/Inc/stm32f7xx_ll_bus.h **** 
  41:Drivers/STM32F7xx_HAL_Driver/Inc/stm32f7xx_ll_bus.h **** #ifdef __cplusplus
  42:Drivers/STM32F7xx_HAL_Driver/Inc/stm32f7xx_ll_bus.h **** extern "C" {
  43:Drivers/STM32F7xx_HAL_Driver/Inc/stm32f7xx_ll_bus.h **** #endif
  44:Drivers/STM32F7xx_HAL_Driver/Inc/stm32f7xx_ll_bus.h **** 
  45:Drivers/STM32F7xx_HAL_Driver/Inc/stm32f7xx_ll_bus.h **** /* Includes ------------------------------------------------------------------*/
  46:Drivers/STM32F7xx_HAL_Driver/Inc/stm32f7xx_ll_bus.h **** #include "stm32f7xx.h"
  47:Drivers/STM32F7xx_HAL_Driver/Inc/stm32f7xx_ll_bus.h **** 
  48:Drivers/STM32F7xx_HAL_Driver/Inc/stm32f7xx_ll_bus.h **** /** @addtogroup STM32F7xx_LL_Driver
  49:Drivers/STM32F7xx_HAL_Driver/Inc/stm32f7xx_ll_bus.h ****   * @{
  50:Drivers/STM32F7xx_HAL_Driver/Inc/stm32f7xx_ll_bus.h ****   */
  51:Drivers/STM32F7xx_HAL_Driver/Inc/stm32f7xx_ll_bus.h **** 
  52:Drivers/STM32F7xx_HAL_Driver/Inc/stm32f7xx_ll_bus.h **** #if defined(RCC)
  53:Drivers/STM32F7xx_HAL_Driver/Inc/stm32f7xx_ll_bus.h **** 
  54:Drivers/STM32F7xx_HAL_Driver/Inc/stm32f7xx_ll_bus.h **** /** @defgroup BUS_LL BUS
  55:Drivers/STM32F7xx_HAL_Driver/Inc/stm32f7xx_ll_bus.h ****   * @{
  56:Drivers/STM32F7xx_HAL_Driver/Inc/stm32f7xx_ll_bus.h ****   */
  57:Drivers/STM32F7xx_HAL_Driver/Inc/stm32f7xx_ll_bus.h **** 
  58:Drivers/STM32F7xx_HAL_Driver/Inc/stm32f7xx_ll_bus.h **** /* Private types -------------------------------------------------------------*/
  59:Drivers/STM32F7xx_HAL_Driver/Inc/stm32f7xx_ll_bus.h **** /* Private variables ---------------------------------------------------------*/
  60:Drivers/STM32F7xx_HAL_Driver/Inc/stm32f7xx_ll_bus.h **** /* Private constants ---------------------------------------------------------*/
  61:Drivers/STM32F7xx_HAL_Driver/Inc/stm32f7xx_ll_bus.h **** /* Private macros ------------------------------------------------------------*/
  62:Drivers/STM32F7xx_HAL_Driver/Inc/stm32f7xx_ll_bus.h **** /* Exported types ------------------------------------------------------------*/
  63:Drivers/STM32F7xx_HAL_Driver/Inc/stm32f7xx_ll_bus.h **** /* Exported constants --------------------------------------------------------*/
  64:Drivers/STM32F7xx_HAL_Driver/Inc/stm32f7xx_ll_bus.h **** /** @defgroup BUS_LL_Exported_Constants BUS Exported Constants
  65:Drivers/STM32F7xx_HAL_Driver/Inc/stm32f7xx_ll_bus.h ****   * @{
  66:Drivers/STM32F7xx_HAL_Driver/Inc/stm32f7xx_ll_bus.h ****   */
  67:Drivers/STM32F7xx_HAL_Driver/Inc/stm32f7xx_ll_bus.h **** 
  68:Drivers/STM32F7xx_HAL_Driver/Inc/stm32f7xx_ll_bus.h **** /** @defgroup BUS_LL_EC_AHB1_GRP1_PERIPH  AHB1 GRP1 PERIPH
  69:Drivers/STM32F7xx_HAL_Driver/Inc/stm32f7xx_ll_bus.h ****   * @{
  70:Drivers/STM32F7xx_HAL_Driver/Inc/stm32f7xx_ll_bus.h ****   */
  71:Drivers/STM32F7xx_HAL_Driver/Inc/stm32f7xx_ll_bus.h **** #define LL_AHB1_GRP1_PERIPH_ALL             0xFFFFFFFFU
  72:Drivers/STM32F7xx_HAL_Driver/Inc/stm32f7xx_ll_bus.h **** #define LL_AHB1_GRP1_PERIPH_GPIOA           RCC_AHB1ENR_GPIOAEN
  73:Drivers/STM32F7xx_HAL_Driver/Inc/stm32f7xx_ll_bus.h **** #define LL_AHB1_GRP1_PERIPH_GPIOB           RCC_AHB1ENR_GPIOBEN
  74:Drivers/STM32F7xx_HAL_Driver/Inc/stm32f7xx_ll_bus.h **** #define LL_AHB1_GRP1_PERIPH_GPIOC           RCC_AHB1ENR_GPIOCEN
  75:Drivers/STM32F7xx_HAL_Driver/Inc/stm32f7xx_ll_bus.h **** #define LL_AHB1_GRP1_PERIPH_GPIOD           RCC_AHB1ENR_GPIODEN
  76:Drivers/STM32F7xx_HAL_Driver/Inc/stm32f7xx_ll_bus.h **** #define LL_AHB1_GRP1_PERIPH_GPIOE           RCC_AHB1ENR_GPIOEEN
  77:Drivers/STM32F7xx_HAL_Driver/Inc/stm32f7xx_ll_bus.h **** #define LL_AHB1_GRP1_PERIPH_GPIOF           RCC_AHB1ENR_GPIOFEN
ARM GAS  C:\Users\Giorgio\AppData\Local\Temp\ccpuEN3p.s 			page 22


  78:Drivers/STM32F7xx_HAL_Driver/Inc/stm32f7xx_ll_bus.h **** #define LL_AHB1_GRP1_PERIPH_GPIOG           RCC_AHB1ENR_GPIOGEN
  79:Drivers/STM32F7xx_HAL_Driver/Inc/stm32f7xx_ll_bus.h **** #define LL_AHB1_GRP1_PERIPH_GPIOH           RCC_AHB1ENR_GPIOHEN
  80:Drivers/STM32F7xx_HAL_Driver/Inc/stm32f7xx_ll_bus.h **** #define LL_AHB1_GRP1_PERIPH_GPIOI           RCC_AHB1ENR_GPIOIEN
  81:Drivers/STM32F7xx_HAL_Driver/Inc/stm32f7xx_ll_bus.h **** #if defined(GPIOJ)
  82:Drivers/STM32F7xx_HAL_Driver/Inc/stm32f7xx_ll_bus.h **** #define LL_AHB1_GRP1_PERIPH_GPIOJ           RCC_AHB1ENR_GPIOJEN
  83:Drivers/STM32F7xx_HAL_Driver/Inc/stm32f7xx_ll_bus.h **** #endif /* GPIOJ */
  84:Drivers/STM32F7xx_HAL_Driver/Inc/stm32f7xx_ll_bus.h **** #if defined(GPIOK)
  85:Drivers/STM32F7xx_HAL_Driver/Inc/stm32f7xx_ll_bus.h **** #define LL_AHB1_GRP1_PERIPH_GPIOK           RCC_AHB1ENR_GPIOKEN
  86:Drivers/STM32F7xx_HAL_Driver/Inc/stm32f7xx_ll_bus.h **** #endif /* GPIOK */
  87:Drivers/STM32F7xx_HAL_Driver/Inc/stm32f7xx_ll_bus.h **** #define LL_AHB1_GRP1_PERIPH_CRC             RCC_AHB1ENR_CRCEN
  88:Drivers/STM32F7xx_HAL_Driver/Inc/stm32f7xx_ll_bus.h **** #define LL_AHB1_GRP1_PERIPH_BKPSRAM         RCC_AHB1ENR_BKPSRAMEN
  89:Drivers/STM32F7xx_HAL_Driver/Inc/stm32f7xx_ll_bus.h **** #define LL_AHB1_GRP1_PERIPH_DTCMRAM         RCC_AHB1ENR_DTCMRAMEN
  90:Drivers/STM32F7xx_HAL_Driver/Inc/stm32f7xx_ll_bus.h **** #define LL_AHB1_GRP1_PERIPH_DMA1            RCC_AHB1ENR_DMA1EN
  91:Drivers/STM32F7xx_HAL_Driver/Inc/stm32f7xx_ll_bus.h **** #define LL_AHB1_GRP1_PERIPH_DMA2            RCC_AHB1ENR_DMA2EN
  92:Drivers/STM32F7xx_HAL_Driver/Inc/stm32f7xx_ll_bus.h **** #if defined(DMA2D)
  93:Drivers/STM32F7xx_HAL_Driver/Inc/stm32f7xx_ll_bus.h **** #define LL_AHB1_GRP1_PERIPH_DMA2D           RCC_AHB1ENR_DMA2DEN
  94:Drivers/STM32F7xx_HAL_Driver/Inc/stm32f7xx_ll_bus.h **** #endif /* DMA2D */
  95:Drivers/STM32F7xx_HAL_Driver/Inc/stm32f7xx_ll_bus.h **** #if defined(ETH)
  96:Drivers/STM32F7xx_HAL_Driver/Inc/stm32f7xx_ll_bus.h **** #define LL_AHB1_GRP1_PERIPH_ETHMAC          RCC_AHB1ENR_ETHMACEN
  97:Drivers/STM32F7xx_HAL_Driver/Inc/stm32f7xx_ll_bus.h **** #define LL_AHB1_GRP1_PERIPH_ETHMACTX        RCC_AHB1ENR_ETHMACTXEN
  98:Drivers/STM32F7xx_HAL_Driver/Inc/stm32f7xx_ll_bus.h **** #define LL_AHB1_GRP1_PERIPH_ETHMACRX        RCC_AHB1ENR_ETHMACRXEN
  99:Drivers/STM32F7xx_HAL_Driver/Inc/stm32f7xx_ll_bus.h **** #define LL_AHB1_GRP1_PERIPH_ETHMACPTP       RCC_AHB1ENR_ETHMACPTPEN
 100:Drivers/STM32F7xx_HAL_Driver/Inc/stm32f7xx_ll_bus.h **** #endif /* ETH */
 101:Drivers/STM32F7xx_HAL_Driver/Inc/stm32f7xx_ll_bus.h **** #define LL_AHB1_GRP1_PERIPH_OTGHS           RCC_AHB1ENR_OTGHSEN
 102:Drivers/STM32F7xx_HAL_Driver/Inc/stm32f7xx_ll_bus.h **** #define LL_AHB1_GRP1_PERIPH_OTGHSULPI       RCC_AHB1ENR_OTGHSULPIEN
 103:Drivers/STM32F7xx_HAL_Driver/Inc/stm32f7xx_ll_bus.h **** #define LL_AHB1_GRP1_PERIPH_AXI             RCC_AHB1LPENR_AXILPEN
 104:Drivers/STM32F7xx_HAL_Driver/Inc/stm32f7xx_ll_bus.h **** #define LL_AHB1_GRP1_PERIPH_FLITF           RCC_AHB1LPENR_FLITFLPEN
 105:Drivers/STM32F7xx_HAL_Driver/Inc/stm32f7xx_ll_bus.h **** #define LL_AHB1_GRP1_PERIPH_SRAM1           RCC_AHB1LPENR_SRAM1LPEN
 106:Drivers/STM32F7xx_HAL_Driver/Inc/stm32f7xx_ll_bus.h **** #define LL_AHB1_GRP1_PERIPH_SRAM2           RCC_AHB1LPENR_SRAM2LPEN
 107:Drivers/STM32F7xx_HAL_Driver/Inc/stm32f7xx_ll_bus.h **** /**
 108:Drivers/STM32F7xx_HAL_Driver/Inc/stm32f7xx_ll_bus.h ****   * @}
 109:Drivers/STM32F7xx_HAL_Driver/Inc/stm32f7xx_ll_bus.h ****   */
 110:Drivers/STM32F7xx_HAL_Driver/Inc/stm32f7xx_ll_bus.h **** 
 111:Drivers/STM32F7xx_HAL_Driver/Inc/stm32f7xx_ll_bus.h **** /** @defgroup BUS_LL_EC_AHB2_GRP1_PERIPH  AHB2 GRP1 PERIPH
 112:Drivers/STM32F7xx_HAL_Driver/Inc/stm32f7xx_ll_bus.h ****   * @{
 113:Drivers/STM32F7xx_HAL_Driver/Inc/stm32f7xx_ll_bus.h ****   */
 114:Drivers/STM32F7xx_HAL_Driver/Inc/stm32f7xx_ll_bus.h **** #define LL_AHB2_GRP1_PERIPH_ALL            0xFFFFFFFFU
 115:Drivers/STM32F7xx_HAL_Driver/Inc/stm32f7xx_ll_bus.h **** #if defined(DCMI)
 116:Drivers/STM32F7xx_HAL_Driver/Inc/stm32f7xx_ll_bus.h **** #define LL_AHB2_GRP1_PERIPH_DCMI           RCC_AHB2ENR_DCMIEN
 117:Drivers/STM32F7xx_HAL_Driver/Inc/stm32f7xx_ll_bus.h **** #endif /* DCMI */
 118:Drivers/STM32F7xx_HAL_Driver/Inc/stm32f7xx_ll_bus.h **** #if defined(JPEG)
 119:Drivers/STM32F7xx_HAL_Driver/Inc/stm32f7xx_ll_bus.h **** #define LL_AHB2_GRP1_PERIPH_JPEG           RCC_AHB2ENR_JPEGEN
 120:Drivers/STM32F7xx_HAL_Driver/Inc/stm32f7xx_ll_bus.h **** #endif /* JPEG */
 121:Drivers/STM32F7xx_HAL_Driver/Inc/stm32f7xx_ll_bus.h **** #if defined(CRYP) 
 122:Drivers/STM32F7xx_HAL_Driver/Inc/stm32f7xx_ll_bus.h **** #define LL_AHB2_GRP1_PERIPH_CRYP           RCC_AHB2ENR_CRYPEN
 123:Drivers/STM32F7xx_HAL_Driver/Inc/stm32f7xx_ll_bus.h **** #endif /* CRYP */
 124:Drivers/STM32F7xx_HAL_Driver/Inc/stm32f7xx_ll_bus.h **** #if defined(AES)
 125:Drivers/STM32F7xx_HAL_Driver/Inc/stm32f7xx_ll_bus.h **** #define LL_AHB2_GRP1_PERIPH_AES            RCC_AHB2ENR_AESEN
 126:Drivers/STM32F7xx_HAL_Driver/Inc/stm32f7xx_ll_bus.h **** #endif /* AES */
 127:Drivers/STM32F7xx_HAL_Driver/Inc/stm32f7xx_ll_bus.h **** #if defined(HASH)
 128:Drivers/STM32F7xx_HAL_Driver/Inc/stm32f7xx_ll_bus.h **** #define LL_AHB2_GRP1_PERIPH_HASH           RCC_AHB2ENR_HASHEN
 129:Drivers/STM32F7xx_HAL_Driver/Inc/stm32f7xx_ll_bus.h **** #endif /* HASH */
 130:Drivers/STM32F7xx_HAL_Driver/Inc/stm32f7xx_ll_bus.h **** #define LL_AHB2_GRP1_PERIPH_RNG            RCC_AHB2ENR_RNGEN
 131:Drivers/STM32F7xx_HAL_Driver/Inc/stm32f7xx_ll_bus.h **** #define LL_AHB2_GRP1_PERIPH_OTGFS          RCC_AHB2ENR_OTGFSEN
 132:Drivers/STM32F7xx_HAL_Driver/Inc/stm32f7xx_ll_bus.h **** /**
 133:Drivers/STM32F7xx_HAL_Driver/Inc/stm32f7xx_ll_bus.h ****   * @}
 134:Drivers/STM32F7xx_HAL_Driver/Inc/stm32f7xx_ll_bus.h ****   */
ARM GAS  C:\Users\Giorgio\AppData\Local\Temp\ccpuEN3p.s 			page 23


 135:Drivers/STM32F7xx_HAL_Driver/Inc/stm32f7xx_ll_bus.h **** 
 136:Drivers/STM32F7xx_HAL_Driver/Inc/stm32f7xx_ll_bus.h **** /** @defgroup BUS_LL_EC_AHB3_GRP1_PERIPH  AHB3 GRP1 PERIPH
 137:Drivers/STM32F7xx_HAL_Driver/Inc/stm32f7xx_ll_bus.h ****   * @{
 138:Drivers/STM32F7xx_HAL_Driver/Inc/stm32f7xx_ll_bus.h ****   */
 139:Drivers/STM32F7xx_HAL_Driver/Inc/stm32f7xx_ll_bus.h **** #define LL_AHB3_GRP1_PERIPH_ALL            0xFFFFFFFFU
 140:Drivers/STM32F7xx_HAL_Driver/Inc/stm32f7xx_ll_bus.h **** #define LL_AHB3_GRP1_PERIPH_FMC            RCC_AHB3ENR_FMCEN
 141:Drivers/STM32F7xx_HAL_Driver/Inc/stm32f7xx_ll_bus.h **** #define LL_AHB3_GRP1_PERIPH_QSPI           RCC_AHB3ENR_QSPIEN
 142:Drivers/STM32F7xx_HAL_Driver/Inc/stm32f7xx_ll_bus.h **** /**
 143:Drivers/STM32F7xx_HAL_Driver/Inc/stm32f7xx_ll_bus.h ****   * @}
 144:Drivers/STM32F7xx_HAL_Driver/Inc/stm32f7xx_ll_bus.h ****   */
 145:Drivers/STM32F7xx_HAL_Driver/Inc/stm32f7xx_ll_bus.h **** 
 146:Drivers/STM32F7xx_HAL_Driver/Inc/stm32f7xx_ll_bus.h **** /** @defgroup BUS_LL_EC_APB1_GRP1_PERIPH  APB1 GRP1 PERIPH
 147:Drivers/STM32F7xx_HAL_Driver/Inc/stm32f7xx_ll_bus.h ****   * @{
 148:Drivers/STM32F7xx_HAL_Driver/Inc/stm32f7xx_ll_bus.h ****   */
 149:Drivers/STM32F7xx_HAL_Driver/Inc/stm32f7xx_ll_bus.h **** #define LL_APB1_GRP1_PERIPH_ALL            0xFFFFFFFFU
 150:Drivers/STM32F7xx_HAL_Driver/Inc/stm32f7xx_ll_bus.h **** #define LL_APB1_GRP1_PERIPH_TIM2           RCC_APB1ENR_TIM2EN
 151:Drivers/STM32F7xx_HAL_Driver/Inc/stm32f7xx_ll_bus.h **** #define LL_APB1_GRP1_PERIPH_TIM3           RCC_APB1ENR_TIM3EN
 152:Drivers/STM32F7xx_HAL_Driver/Inc/stm32f7xx_ll_bus.h **** #define LL_APB1_GRP1_PERIPH_TIM4           RCC_APB1ENR_TIM4EN
 153:Drivers/STM32F7xx_HAL_Driver/Inc/stm32f7xx_ll_bus.h **** #define LL_APB1_GRP1_PERIPH_TIM5           RCC_APB1ENR_TIM5EN
 154:Drivers/STM32F7xx_HAL_Driver/Inc/stm32f7xx_ll_bus.h **** #define LL_APB1_GRP1_PERIPH_TIM6           RCC_APB1ENR_TIM6EN
 155:Drivers/STM32F7xx_HAL_Driver/Inc/stm32f7xx_ll_bus.h **** #define LL_APB1_GRP1_PERIPH_TIM7           RCC_APB1ENR_TIM7EN
 156:Drivers/STM32F7xx_HAL_Driver/Inc/stm32f7xx_ll_bus.h **** #define LL_APB1_GRP1_PERIPH_TIM12          RCC_APB1ENR_TIM12EN
 157:Drivers/STM32F7xx_HAL_Driver/Inc/stm32f7xx_ll_bus.h **** #define LL_APB1_GRP1_PERIPH_TIM13          RCC_APB1ENR_TIM13EN
 158:Drivers/STM32F7xx_HAL_Driver/Inc/stm32f7xx_ll_bus.h **** #define LL_APB1_GRP1_PERIPH_TIM14          RCC_APB1ENR_TIM14EN
 159:Drivers/STM32F7xx_HAL_Driver/Inc/stm32f7xx_ll_bus.h **** #define LL_APB1_GRP1_PERIPH_LPTIM1         RCC_APB1ENR_LPTIM1EN
 160:Drivers/STM32F7xx_HAL_Driver/Inc/stm32f7xx_ll_bus.h **** #define LL_APB1_GRP1_PERIPH_WWDG           RCC_APB1ENR_WWDGEN
 161:Drivers/STM32F7xx_HAL_Driver/Inc/stm32f7xx_ll_bus.h **** #define LL_APB1_GRP1_PERIPH_SPI2           RCC_APB1ENR_SPI2EN
 162:Drivers/STM32F7xx_HAL_Driver/Inc/stm32f7xx_ll_bus.h **** #define LL_APB1_GRP1_PERIPH_SPI3           RCC_APB1ENR_SPI3EN
 163:Drivers/STM32F7xx_HAL_Driver/Inc/stm32f7xx_ll_bus.h **** #if defined(SPDIFRX)
 164:Drivers/STM32F7xx_HAL_Driver/Inc/stm32f7xx_ll_bus.h **** #define LL_APB1_GRP1_PERIPH_SPDIFRX        RCC_APB1ENR_SPDIFRXEN
 165:Drivers/STM32F7xx_HAL_Driver/Inc/stm32f7xx_ll_bus.h **** #endif /* SPDIFRX */
 166:Drivers/STM32F7xx_HAL_Driver/Inc/stm32f7xx_ll_bus.h **** #define LL_APB1_GRP1_PERIPH_USART2         RCC_APB1ENR_USART2EN
 167:Drivers/STM32F7xx_HAL_Driver/Inc/stm32f7xx_ll_bus.h **** #define LL_APB1_GRP1_PERIPH_USART3         RCC_APB1ENR_USART3EN
 168:Drivers/STM32F7xx_HAL_Driver/Inc/stm32f7xx_ll_bus.h **** #define LL_APB1_GRP1_PERIPH_UART4          RCC_APB1ENR_UART4EN
 169:Drivers/STM32F7xx_HAL_Driver/Inc/stm32f7xx_ll_bus.h **** #define LL_APB1_GRP1_PERIPH_UART5          RCC_APB1ENR_UART5EN
 170:Drivers/STM32F7xx_HAL_Driver/Inc/stm32f7xx_ll_bus.h **** #define LL_APB1_GRP1_PERIPH_I2C1           RCC_APB1ENR_I2C1EN
 171:Drivers/STM32F7xx_HAL_Driver/Inc/stm32f7xx_ll_bus.h **** #define LL_APB1_GRP1_PERIPH_I2C2           RCC_APB1ENR_I2C2EN
 172:Drivers/STM32F7xx_HAL_Driver/Inc/stm32f7xx_ll_bus.h **** #define LL_APB1_GRP1_PERIPH_I2C3           RCC_APB1ENR_I2C3EN
 173:Drivers/STM32F7xx_HAL_Driver/Inc/stm32f7xx_ll_bus.h **** #if defined(I2C4)
 174:Drivers/STM32F7xx_HAL_Driver/Inc/stm32f7xx_ll_bus.h **** #define LL_APB1_GRP1_PERIPH_I2C4           RCC_APB1ENR_I2C4EN
 175:Drivers/STM32F7xx_HAL_Driver/Inc/stm32f7xx_ll_bus.h **** #endif /* I2C4 */
 176:Drivers/STM32F7xx_HAL_Driver/Inc/stm32f7xx_ll_bus.h **** #define LL_APB1_GRP1_PERIPH_CAN1           RCC_APB1ENR_CAN1EN
 177:Drivers/STM32F7xx_HAL_Driver/Inc/stm32f7xx_ll_bus.h **** #if defined(CAN2)
 178:Drivers/STM32F7xx_HAL_Driver/Inc/stm32f7xx_ll_bus.h **** #define LL_APB1_GRP1_PERIPH_CAN2           RCC_APB1ENR_CAN2EN
 179:Drivers/STM32F7xx_HAL_Driver/Inc/stm32f7xx_ll_bus.h **** #endif /* CAN2 */
 180:Drivers/STM32F7xx_HAL_Driver/Inc/stm32f7xx_ll_bus.h **** #if defined(CAN3)
 181:Drivers/STM32F7xx_HAL_Driver/Inc/stm32f7xx_ll_bus.h **** #define LL_APB1_GRP1_PERIPH_CAN3           RCC_APB1ENR_CAN3EN
 182:Drivers/STM32F7xx_HAL_Driver/Inc/stm32f7xx_ll_bus.h **** #endif /* CAN3 */
 183:Drivers/STM32F7xx_HAL_Driver/Inc/stm32f7xx_ll_bus.h **** #if defined(CEC)
 184:Drivers/STM32F7xx_HAL_Driver/Inc/stm32f7xx_ll_bus.h **** #define LL_APB1_GRP1_PERIPH_CEC            RCC_APB1ENR_CECEN
 185:Drivers/STM32F7xx_HAL_Driver/Inc/stm32f7xx_ll_bus.h **** #endif /* CEC */
 186:Drivers/STM32F7xx_HAL_Driver/Inc/stm32f7xx_ll_bus.h **** #define LL_APB1_GRP1_PERIPH_PWR            RCC_APB1ENR_PWREN
 187:Drivers/STM32F7xx_HAL_Driver/Inc/stm32f7xx_ll_bus.h **** #define LL_APB1_GRP1_PERIPH_DAC1           RCC_APB1ENR_DACEN
 188:Drivers/STM32F7xx_HAL_Driver/Inc/stm32f7xx_ll_bus.h **** #define LL_APB1_GRP1_PERIPH_UART7          RCC_APB1ENR_UART7EN
 189:Drivers/STM32F7xx_HAL_Driver/Inc/stm32f7xx_ll_bus.h **** #define LL_APB1_GRP1_PERIPH_UART8          RCC_APB1ENR_UART8EN
 190:Drivers/STM32F7xx_HAL_Driver/Inc/stm32f7xx_ll_bus.h **** #if defined(RCC_APB1ENR_RTCEN)
 191:Drivers/STM32F7xx_HAL_Driver/Inc/stm32f7xx_ll_bus.h **** #define LL_APB1_GRP1_PERIPH_RTCAPB         RCC_APB1ENR_RTCEN
ARM GAS  C:\Users\Giorgio\AppData\Local\Temp\ccpuEN3p.s 			page 24


 192:Drivers/STM32F7xx_HAL_Driver/Inc/stm32f7xx_ll_bus.h **** #endif /* RCC_APB1ENR_RTCEN */
 193:Drivers/STM32F7xx_HAL_Driver/Inc/stm32f7xx_ll_bus.h **** /**
 194:Drivers/STM32F7xx_HAL_Driver/Inc/stm32f7xx_ll_bus.h ****   * @}
 195:Drivers/STM32F7xx_HAL_Driver/Inc/stm32f7xx_ll_bus.h ****   */
 196:Drivers/STM32F7xx_HAL_Driver/Inc/stm32f7xx_ll_bus.h **** 
 197:Drivers/STM32F7xx_HAL_Driver/Inc/stm32f7xx_ll_bus.h **** /** @defgroup BUS_LL_EC_APB2_GRP1_PERIPH  APB2 GRP1 PERIPH
 198:Drivers/STM32F7xx_HAL_Driver/Inc/stm32f7xx_ll_bus.h ****   * @{
 199:Drivers/STM32F7xx_HAL_Driver/Inc/stm32f7xx_ll_bus.h ****   */
 200:Drivers/STM32F7xx_HAL_Driver/Inc/stm32f7xx_ll_bus.h **** #define LL_APB2_GRP1_PERIPH_ALL          0xFFFFFFFFU
 201:Drivers/STM32F7xx_HAL_Driver/Inc/stm32f7xx_ll_bus.h **** #define LL_APB2_GRP1_PERIPH_TIM1         RCC_APB2ENR_TIM1EN
 202:Drivers/STM32F7xx_HAL_Driver/Inc/stm32f7xx_ll_bus.h **** #define LL_APB2_GRP1_PERIPH_TIM8         RCC_APB2ENR_TIM8EN
 203:Drivers/STM32F7xx_HAL_Driver/Inc/stm32f7xx_ll_bus.h **** #define LL_APB2_GRP1_PERIPH_USART1       RCC_APB2ENR_USART1EN
 204:Drivers/STM32F7xx_HAL_Driver/Inc/stm32f7xx_ll_bus.h **** #define LL_APB2_GRP1_PERIPH_USART6       RCC_APB2ENR_USART6EN
 205:Drivers/STM32F7xx_HAL_Driver/Inc/stm32f7xx_ll_bus.h **** #define LL_APB2_GRP1_PERIPH_ADC1         RCC_APB2ENR_ADC1EN
 206:Drivers/STM32F7xx_HAL_Driver/Inc/stm32f7xx_ll_bus.h **** #define LL_APB2_GRP1_PERIPH_ADC2         RCC_APB2ENR_ADC2EN
 207:Drivers/STM32F7xx_HAL_Driver/Inc/stm32f7xx_ll_bus.h **** #define LL_APB2_GRP1_PERIPH_ADC3         RCC_APB2ENR_ADC3EN
 208:Drivers/STM32F7xx_HAL_Driver/Inc/stm32f7xx_ll_bus.h **** #define LL_APB2_GRP1_PERIPH_SDMMC1       RCC_APB2ENR_SDMMC1EN
 209:Drivers/STM32F7xx_HAL_Driver/Inc/stm32f7xx_ll_bus.h **** #if defined(SDMMC2)
 210:Drivers/STM32F7xx_HAL_Driver/Inc/stm32f7xx_ll_bus.h **** #define LL_APB2_GRP1_PERIPH_SDMMC2       RCC_APB2ENR_SDMMC2EN
 211:Drivers/STM32F7xx_HAL_Driver/Inc/stm32f7xx_ll_bus.h **** #endif /* SDMMC2 */
 212:Drivers/STM32F7xx_HAL_Driver/Inc/stm32f7xx_ll_bus.h **** #define LL_APB2_GRP1_PERIPH_SPI1         RCC_APB2ENR_SPI1EN
 213:Drivers/STM32F7xx_HAL_Driver/Inc/stm32f7xx_ll_bus.h **** #define LL_APB2_GRP1_PERIPH_SPI4         RCC_APB2ENR_SPI4EN
 214:Drivers/STM32F7xx_HAL_Driver/Inc/stm32f7xx_ll_bus.h **** #define LL_APB2_GRP1_PERIPH_SYSCFG       RCC_APB2ENR_SYSCFGEN
 215:Drivers/STM32F7xx_HAL_Driver/Inc/stm32f7xx_ll_bus.h **** #define LL_APB2_GRP1_PERIPH_TIM9         RCC_APB2ENR_TIM9EN
 216:Drivers/STM32F7xx_HAL_Driver/Inc/stm32f7xx_ll_bus.h **** #define LL_APB2_GRP1_PERIPH_TIM10        RCC_APB2ENR_TIM10EN
 217:Drivers/STM32F7xx_HAL_Driver/Inc/stm32f7xx_ll_bus.h **** #define LL_APB2_GRP1_PERIPH_TIM11        RCC_APB2ENR_TIM11EN
 218:Drivers/STM32F7xx_HAL_Driver/Inc/stm32f7xx_ll_bus.h **** #define LL_APB2_GRP1_PERIPH_SPI5         RCC_APB2ENR_SPI5EN
 219:Drivers/STM32F7xx_HAL_Driver/Inc/stm32f7xx_ll_bus.h **** #if defined(SPI6)
 220:Drivers/STM32F7xx_HAL_Driver/Inc/stm32f7xx_ll_bus.h **** #define LL_APB2_GRP1_PERIPH_SPI6         RCC_APB2ENR_SPI6EN
 221:Drivers/STM32F7xx_HAL_Driver/Inc/stm32f7xx_ll_bus.h **** #endif /* SPI6 */
 222:Drivers/STM32F7xx_HAL_Driver/Inc/stm32f7xx_ll_bus.h **** #define LL_APB2_GRP1_PERIPH_SAI1         RCC_APB2ENR_SAI1EN
 223:Drivers/STM32F7xx_HAL_Driver/Inc/stm32f7xx_ll_bus.h **** #define LL_APB2_GRP1_PERIPH_SAI2         RCC_APB2ENR_SAI2EN
 224:Drivers/STM32F7xx_HAL_Driver/Inc/stm32f7xx_ll_bus.h **** #if defined(LTDC)
 225:Drivers/STM32F7xx_HAL_Driver/Inc/stm32f7xx_ll_bus.h **** #define LL_APB2_GRP1_PERIPH_LTDC         RCC_APB2ENR_LTDCEN
 226:Drivers/STM32F7xx_HAL_Driver/Inc/stm32f7xx_ll_bus.h **** #endif /* LTDC */
 227:Drivers/STM32F7xx_HAL_Driver/Inc/stm32f7xx_ll_bus.h **** #if defined(DSI)
 228:Drivers/STM32F7xx_HAL_Driver/Inc/stm32f7xx_ll_bus.h **** #define LL_APB2_GRP1_PERIPH_DSI          RCC_APB2ENR_DSIEN
 229:Drivers/STM32F7xx_HAL_Driver/Inc/stm32f7xx_ll_bus.h **** #endif /* DSI */
 230:Drivers/STM32F7xx_HAL_Driver/Inc/stm32f7xx_ll_bus.h **** #if defined(DFSDM1_Channel0)
 231:Drivers/STM32F7xx_HAL_Driver/Inc/stm32f7xx_ll_bus.h **** #define LL_APB2_GRP1_PERIPH_DFSDM1       RCC_APB2ENR_DFSDM1EN
 232:Drivers/STM32F7xx_HAL_Driver/Inc/stm32f7xx_ll_bus.h **** #endif /* DFSDM1_Channel0 */
 233:Drivers/STM32F7xx_HAL_Driver/Inc/stm32f7xx_ll_bus.h **** #if defined(MDIOS)
 234:Drivers/STM32F7xx_HAL_Driver/Inc/stm32f7xx_ll_bus.h **** #define LL_APB2_GRP1_PERIPH_MDIO         RCC_APB2ENR_MDIOEN
 235:Drivers/STM32F7xx_HAL_Driver/Inc/stm32f7xx_ll_bus.h **** #endif /* MDIOS */
 236:Drivers/STM32F7xx_HAL_Driver/Inc/stm32f7xx_ll_bus.h **** #if defined(USB_HS_PHYC)
 237:Drivers/STM32F7xx_HAL_Driver/Inc/stm32f7xx_ll_bus.h **** #define LL_APB2_GRP1_PERIPH_OTGPHYC      RCC_APB2ENR_OTGPHYCEN
 238:Drivers/STM32F7xx_HAL_Driver/Inc/stm32f7xx_ll_bus.h **** #endif /* USB_HS_PHYC */
 239:Drivers/STM32F7xx_HAL_Driver/Inc/stm32f7xx_ll_bus.h **** #define LL_APB2_GRP1_PERIPH_ADC          RCC_APB2RSTR_ADCRST
 240:Drivers/STM32F7xx_HAL_Driver/Inc/stm32f7xx_ll_bus.h **** /**
 241:Drivers/STM32F7xx_HAL_Driver/Inc/stm32f7xx_ll_bus.h ****   * @}
 242:Drivers/STM32F7xx_HAL_Driver/Inc/stm32f7xx_ll_bus.h ****   */
 243:Drivers/STM32F7xx_HAL_Driver/Inc/stm32f7xx_ll_bus.h **** 
 244:Drivers/STM32F7xx_HAL_Driver/Inc/stm32f7xx_ll_bus.h **** /**
 245:Drivers/STM32F7xx_HAL_Driver/Inc/stm32f7xx_ll_bus.h ****   * @}
 246:Drivers/STM32F7xx_HAL_Driver/Inc/stm32f7xx_ll_bus.h ****   */
 247:Drivers/STM32F7xx_HAL_Driver/Inc/stm32f7xx_ll_bus.h **** 
 248:Drivers/STM32F7xx_HAL_Driver/Inc/stm32f7xx_ll_bus.h **** /* Exported macro ------------------------------------------------------------*/
ARM GAS  C:\Users\Giorgio\AppData\Local\Temp\ccpuEN3p.s 			page 25


 249:Drivers/STM32F7xx_HAL_Driver/Inc/stm32f7xx_ll_bus.h **** /* Exported functions --------------------------------------------------------*/
 250:Drivers/STM32F7xx_HAL_Driver/Inc/stm32f7xx_ll_bus.h **** /** @defgroup BUS_LL_Exported_Functions BUS Exported Functions
 251:Drivers/STM32F7xx_HAL_Driver/Inc/stm32f7xx_ll_bus.h ****   * @{
 252:Drivers/STM32F7xx_HAL_Driver/Inc/stm32f7xx_ll_bus.h ****   */
 253:Drivers/STM32F7xx_HAL_Driver/Inc/stm32f7xx_ll_bus.h **** 
 254:Drivers/STM32F7xx_HAL_Driver/Inc/stm32f7xx_ll_bus.h **** /** @defgroup BUS_LL_EF_AHB1 AHB1
 255:Drivers/STM32F7xx_HAL_Driver/Inc/stm32f7xx_ll_bus.h ****   * @{
 256:Drivers/STM32F7xx_HAL_Driver/Inc/stm32f7xx_ll_bus.h ****   */
 257:Drivers/STM32F7xx_HAL_Driver/Inc/stm32f7xx_ll_bus.h **** 
 258:Drivers/STM32F7xx_HAL_Driver/Inc/stm32f7xx_ll_bus.h **** /**
 259:Drivers/STM32F7xx_HAL_Driver/Inc/stm32f7xx_ll_bus.h ****   * @brief  Enable AHB1 peripherals clock.
 260:Drivers/STM32F7xx_HAL_Driver/Inc/stm32f7xx_ll_bus.h ****   * @rmtoll AHB1ENR      GPIOAEN            LL_AHB1_GRP1_EnableClock\n
 261:Drivers/STM32F7xx_HAL_Driver/Inc/stm32f7xx_ll_bus.h ****   *         AHB1ENR      GPIOBEN            LL_AHB1_GRP1_EnableClock\n
 262:Drivers/STM32F7xx_HAL_Driver/Inc/stm32f7xx_ll_bus.h ****   *         AHB1ENR      GPIOCEN            LL_AHB1_GRP1_EnableClock\n
 263:Drivers/STM32F7xx_HAL_Driver/Inc/stm32f7xx_ll_bus.h ****   *         AHB1ENR      GPIODEN            LL_AHB1_GRP1_EnableClock\n
 264:Drivers/STM32F7xx_HAL_Driver/Inc/stm32f7xx_ll_bus.h ****   *         AHB1ENR      GPIOEEN            LL_AHB1_GRP1_EnableClock\n
 265:Drivers/STM32F7xx_HAL_Driver/Inc/stm32f7xx_ll_bus.h ****   *         AHB1ENR      GPIOFEN            LL_AHB1_GRP1_EnableClock\n
 266:Drivers/STM32F7xx_HAL_Driver/Inc/stm32f7xx_ll_bus.h ****   *         AHB1ENR      GPIOGEN            LL_AHB1_GRP1_EnableClock\n
 267:Drivers/STM32F7xx_HAL_Driver/Inc/stm32f7xx_ll_bus.h ****   *         AHB1ENR      GPIOHEN            LL_AHB1_GRP1_EnableClock\n
 268:Drivers/STM32F7xx_HAL_Driver/Inc/stm32f7xx_ll_bus.h ****   *         AHB1ENR      GPIOIEN            LL_AHB1_GRP1_EnableClock\n
 269:Drivers/STM32F7xx_HAL_Driver/Inc/stm32f7xx_ll_bus.h ****   *         AHB1ENR      GPIOJEN            LL_AHB1_GRP1_EnableClock\n
 270:Drivers/STM32F7xx_HAL_Driver/Inc/stm32f7xx_ll_bus.h ****   *         AHB1ENR      GPIOKEN            LL_AHB1_GRP1_EnableClock\n
 271:Drivers/STM32F7xx_HAL_Driver/Inc/stm32f7xx_ll_bus.h ****   *         AHB1ENR      CRCEN              LL_AHB1_GRP1_EnableClock\n
 272:Drivers/STM32F7xx_HAL_Driver/Inc/stm32f7xx_ll_bus.h ****   *         AHB1ENR      BKPSRAMEN          LL_AHB1_GRP1_EnableClock\n
 273:Drivers/STM32F7xx_HAL_Driver/Inc/stm32f7xx_ll_bus.h ****   *         AHB1ENR      DTCMRAMEN          LL_AHB1_GRP1_EnableClock\n
 274:Drivers/STM32F7xx_HAL_Driver/Inc/stm32f7xx_ll_bus.h ****   *         AHB1ENR      DMA1EN             LL_AHB1_GRP1_EnableClock\n
 275:Drivers/STM32F7xx_HAL_Driver/Inc/stm32f7xx_ll_bus.h ****   *         AHB1ENR      DMA2EN             LL_AHB1_GRP1_EnableClock\n
 276:Drivers/STM32F7xx_HAL_Driver/Inc/stm32f7xx_ll_bus.h ****   *         AHB1ENR      DMA2DEN            LL_AHB1_GRP1_EnableClock\n
 277:Drivers/STM32F7xx_HAL_Driver/Inc/stm32f7xx_ll_bus.h ****   *         AHB1ENR      ETHMACEN           LL_AHB1_GRP1_EnableClock\n
 278:Drivers/STM32F7xx_HAL_Driver/Inc/stm32f7xx_ll_bus.h ****   *         AHB1ENR      ETHMACTXEN         LL_AHB1_GRP1_EnableClock\n
 279:Drivers/STM32F7xx_HAL_Driver/Inc/stm32f7xx_ll_bus.h ****   *         AHB1ENR      ETHMACRXEN         LL_AHB1_GRP1_EnableClock\n
 280:Drivers/STM32F7xx_HAL_Driver/Inc/stm32f7xx_ll_bus.h ****   *         AHB1ENR      ETHMACPTPEN        LL_AHB1_GRP1_EnableClock\n
 281:Drivers/STM32F7xx_HAL_Driver/Inc/stm32f7xx_ll_bus.h ****   *         AHB1ENR      OTGHSEN            LL_AHB1_GRP1_EnableClock\n
 282:Drivers/STM32F7xx_HAL_Driver/Inc/stm32f7xx_ll_bus.h ****   *         AHB1ENR      OTGHSULPIEN        LL_AHB1_GRP1_EnableClock
 283:Drivers/STM32F7xx_HAL_Driver/Inc/stm32f7xx_ll_bus.h ****   * @param  Periphs This parameter can be a combination of the following values:
 284:Drivers/STM32F7xx_HAL_Driver/Inc/stm32f7xx_ll_bus.h ****   *         @arg @ref LL_AHB1_GRP1_PERIPH_GPIOA
 285:Drivers/STM32F7xx_HAL_Driver/Inc/stm32f7xx_ll_bus.h ****   *         @arg @ref LL_AHB1_GRP1_PERIPH_GPIOB
 286:Drivers/STM32F7xx_HAL_Driver/Inc/stm32f7xx_ll_bus.h ****   *         @arg @ref LL_AHB1_GRP1_PERIPH_GPIOC
 287:Drivers/STM32F7xx_HAL_Driver/Inc/stm32f7xx_ll_bus.h ****   *         @arg @ref LL_AHB1_GRP1_PERIPH_GPIOD
 288:Drivers/STM32F7xx_HAL_Driver/Inc/stm32f7xx_ll_bus.h ****   *         @arg @ref LL_AHB1_GRP1_PERIPH_GPIOE
 289:Drivers/STM32F7xx_HAL_Driver/Inc/stm32f7xx_ll_bus.h ****   *         @arg @ref LL_AHB1_GRP1_PERIPH_GPIOF
 290:Drivers/STM32F7xx_HAL_Driver/Inc/stm32f7xx_ll_bus.h ****   *         @arg @ref LL_AHB1_GRP1_PERIPH_GPIOG
 291:Drivers/STM32F7xx_HAL_Driver/Inc/stm32f7xx_ll_bus.h ****   *         @arg @ref LL_AHB1_GRP1_PERIPH_GPIOH
 292:Drivers/STM32F7xx_HAL_Driver/Inc/stm32f7xx_ll_bus.h ****   *         @arg @ref LL_AHB1_GRP1_PERIPH_GPIOI
 293:Drivers/STM32F7xx_HAL_Driver/Inc/stm32f7xx_ll_bus.h ****   *         @arg @ref LL_AHB1_GRP1_PERIPH_GPIOJ (*)
 294:Drivers/STM32F7xx_HAL_Driver/Inc/stm32f7xx_ll_bus.h ****   *         @arg @ref LL_AHB1_GRP1_PERIPH_GPIOK (*)
 295:Drivers/STM32F7xx_HAL_Driver/Inc/stm32f7xx_ll_bus.h ****   *         @arg @ref LL_AHB1_GRP1_PERIPH_CRC
 296:Drivers/STM32F7xx_HAL_Driver/Inc/stm32f7xx_ll_bus.h ****   *         @arg @ref LL_AHB1_GRP1_PERIPH_BKPSRAM
 297:Drivers/STM32F7xx_HAL_Driver/Inc/stm32f7xx_ll_bus.h ****   *         @arg @ref LL_AHB1_GRP1_PERIPH_DTCMRAM
 298:Drivers/STM32F7xx_HAL_Driver/Inc/stm32f7xx_ll_bus.h ****   *         @arg @ref LL_AHB1_GRP1_PERIPH_DMA1
 299:Drivers/STM32F7xx_HAL_Driver/Inc/stm32f7xx_ll_bus.h ****   *         @arg @ref LL_AHB1_GRP1_PERIPH_DMA2
 300:Drivers/STM32F7xx_HAL_Driver/Inc/stm32f7xx_ll_bus.h ****   *         @arg @ref LL_AHB1_GRP1_PERIPH_DMA2D (*)
 301:Drivers/STM32F7xx_HAL_Driver/Inc/stm32f7xx_ll_bus.h ****   *         @arg @ref LL_AHB1_GRP1_PERIPH_ETHMAC (*)
 302:Drivers/STM32F7xx_HAL_Driver/Inc/stm32f7xx_ll_bus.h ****   *         @arg @ref LL_AHB1_GRP1_PERIPH_ETHMACTX (*)
 303:Drivers/STM32F7xx_HAL_Driver/Inc/stm32f7xx_ll_bus.h ****   *         @arg @ref LL_AHB1_GRP1_PERIPH_ETHMACRX (*)
 304:Drivers/STM32F7xx_HAL_Driver/Inc/stm32f7xx_ll_bus.h ****   *         @arg @ref LL_AHB1_GRP1_PERIPH_ETHMACPTP (*)
 305:Drivers/STM32F7xx_HAL_Driver/Inc/stm32f7xx_ll_bus.h ****   *         @arg @ref LL_AHB1_GRP1_PERIPH_OTGHS
ARM GAS  C:\Users\Giorgio\AppData\Local\Temp\ccpuEN3p.s 			page 26


 306:Drivers/STM32F7xx_HAL_Driver/Inc/stm32f7xx_ll_bus.h ****   *         @arg @ref LL_AHB1_GRP1_PERIPH_OTGHSULPI
 307:Drivers/STM32F7xx_HAL_Driver/Inc/stm32f7xx_ll_bus.h ****   *
 308:Drivers/STM32F7xx_HAL_Driver/Inc/stm32f7xx_ll_bus.h ****   *         (*) value not defined in all devices.
 309:Drivers/STM32F7xx_HAL_Driver/Inc/stm32f7xx_ll_bus.h ****   * @retval None
 310:Drivers/STM32F7xx_HAL_Driver/Inc/stm32f7xx_ll_bus.h **** */
 311:Drivers/STM32F7xx_HAL_Driver/Inc/stm32f7xx_ll_bus.h **** __STATIC_INLINE void LL_AHB1_GRP1_EnableClock(uint32_t Periphs)
 312:Drivers/STM32F7xx_HAL_Driver/Inc/stm32f7xx_ll_bus.h **** {
 313:Drivers/STM32F7xx_HAL_Driver/Inc/stm32f7xx_ll_bus.h ****   __IO uint32_t tmpreg;
 314:Drivers/STM32F7xx_HAL_Driver/Inc/stm32f7xx_ll_bus.h ****   SET_BIT(RCC->AHB1ENR, Periphs);
 315:Drivers/STM32F7xx_HAL_Driver/Inc/stm32f7xx_ll_bus.h ****   /* Delay after an RCC peripheral clock enabling */
 316:Drivers/STM32F7xx_HAL_Driver/Inc/stm32f7xx_ll_bus.h ****   tmpreg = READ_BIT(RCC->AHB1ENR, Periphs);
 317:Drivers/STM32F7xx_HAL_Driver/Inc/stm32f7xx_ll_bus.h ****   (void)tmpreg;
 318:Drivers/STM32F7xx_HAL_Driver/Inc/stm32f7xx_ll_bus.h **** }
 319:Drivers/STM32F7xx_HAL_Driver/Inc/stm32f7xx_ll_bus.h **** 
 320:Drivers/STM32F7xx_HAL_Driver/Inc/stm32f7xx_ll_bus.h **** /**
 321:Drivers/STM32F7xx_HAL_Driver/Inc/stm32f7xx_ll_bus.h ****   * @brief  Check if AHB1 peripheral clock is enabled or not
 322:Drivers/STM32F7xx_HAL_Driver/Inc/stm32f7xx_ll_bus.h ****   * @rmtoll AHB1ENR      GPIOAEN            LL_AHB1_GRP1_IsEnabledClock\n
 323:Drivers/STM32F7xx_HAL_Driver/Inc/stm32f7xx_ll_bus.h ****   *         AHB1ENR      GPIOBEN            LL_AHB1_GRP1_IsEnabledClock\n
 324:Drivers/STM32F7xx_HAL_Driver/Inc/stm32f7xx_ll_bus.h ****   *         AHB1ENR      GPIOCEN            LL_AHB1_GRP1_IsEnabledClock\n
 325:Drivers/STM32F7xx_HAL_Driver/Inc/stm32f7xx_ll_bus.h ****   *         AHB1ENR      GPIODEN            LL_AHB1_GRP1_IsEnabledClock\n
 326:Drivers/STM32F7xx_HAL_Driver/Inc/stm32f7xx_ll_bus.h ****   *         AHB1ENR      GPIOEEN            LL_AHB1_GRP1_IsEnabledClock\n
 327:Drivers/STM32F7xx_HAL_Driver/Inc/stm32f7xx_ll_bus.h ****   *         AHB1ENR      GPIOFEN            LL_AHB1_GRP1_IsEnabledClock\n
 328:Drivers/STM32F7xx_HAL_Driver/Inc/stm32f7xx_ll_bus.h ****   *         AHB1ENR      GPIOGEN            LL_AHB1_GRP1_IsEnabledClock\n
 329:Drivers/STM32F7xx_HAL_Driver/Inc/stm32f7xx_ll_bus.h ****   *         AHB1ENR      GPIOHEN            LL_AHB1_GRP1_IsEnabledClock\n
 330:Drivers/STM32F7xx_HAL_Driver/Inc/stm32f7xx_ll_bus.h ****   *         AHB1ENR      GPIOIEN            LL_AHB1_GRP1_IsEnabledClock\n
 331:Drivers/STM32F7xx_HAL_Driver/Inc/stm32f7xx_ll_bus.h ****   *         AHB1ENR      GPIOJEN            LL_AHB1_GRP1_IsEnabledClock\n
 332:Drivers/STM32F7xx_HAL_Driver/Inc/stm32f7xx_ll_bus.h ****   *         AHB1ENR      GPIOKEN            LL_AHB1_GRP1_IsEnabledClock\n
 333:Drivers/STM32F7xx_HAL_Driver/Inc/stm32f7xx_ll_bus.h ****   *         AHB1ENR      CRCEN              LL_AHB1_GRP1_IsEnabledClock\n
 334:Drivers/STM32F7xx_HAL_Driver/Inc/stm32f7xx_ll_bus.h ****   *         AHB1ENR      BKPSRAMEN          LL_AHB1_GRP1_IsEnabledClock\n
 335:Drivers/STM32F7xx_HAL_Driver/Inc/stm32f7xx_ll_bus.h ****   *         AHB1ENR      DTCMRAMEN          LL_AHB1_GRP1_IsEnabledClock\n
 336:Drivers/STM32F7xx_HAL_Driver/Inc/stm32f7xx_ll_bus.h ****   *         AHB1ENR      DMA1EN             LL_AHB1_GRP1_IsEnabledClock\n
 337:Drivers/STM32F7xx_HAL_Driver/Inc/stm32f7xx_ll_bus.h ****   *         AHB1ENR      DMA2EN             LL_AHB1_GRP1_IsEnabledClock\n
 338:Drivers/STM32F7xx_HAL_Driver/Inc/stm32f7xx_ll_bus.h ****   *         AHB1ENR      DMA2DEN            LL_AHB1_GRP1_IsEnabledClock\n
 339:Drivers/STM32F7xx_HAL_Driver/Inc/stm32f7xx_ll_bus.h ****   *         AHB1ENR      ETHMACEN           LL_AHB1_GRP1_IsEnabledClock\n
 340:Drivers/STM32F7xx_HAL_Driver/Inc/stm32f7xx_ll_bus.h ****   *         AHB1ENR      ETHMACTXEN         LL_AHB1_GRP1_IsEnabledClock\n
 341:Drivers/STM32F7xx_HAL_Driver/Inc/stm32f7xx_ll_bus.h ****   *         AHB1ENR      ETHMACRXEN         LL_AHB1_GRP1_IsEnabledClock\n
 342:Drivers/STM32F7xx_HAL_Driver/Inc/stm32f7xx_ll_bus.h ****   *         AHB1ENR      ETHMACPTPEN        LL_AHB1_GRP1_IsEnabledClock\n
 343:Drivers/STM32F7xx_HAL_Driver/Inc/stm32f7xx_ll_bus.h ****   *         AHB1ENR      OTGHSEN            LL_AHB1_GRP1_IsEnabledClock\n
 344:Drivers/STM32F7xx_HAL_Driver/Inc/stm32f7xx_ll_bus.h ****   *         AHB1ENR      OTGHSULPIENDEN     LL_AHB1_GRP1_IsEnabledClock
 345:Drivers/STM32F7xx_HAL_Driver/Inc/stm32f7xx_ll_bus.h ****   * @param  Periphs This parameter can be a combination of the following values:
 346:Drivers/STM32F7xx_HAL_Driver/Inc/stm32f7xx_ll_bus.h ****   *         @arg @ref LL_AHB1_GRP1_PERIPH_GPIOA
 347:Drivers/STM32F7xx_HAL_Driver/Inc/stm32f7xx_ll_bus.h ****   *         @arg @ref LL_AHB1_GRP1_PERIPH_GPIOB
 348:Drivers/STM32F7xx_HAL_Driver/Inc/stm32f7xx_ll_bus.h ****   *         @arg @ref LL_AHB1_GRP1_PERIPH_GPIOC
 349:Drivers/STM32F7xx_HAL_Driver/Inc/stm32f7xx_ll_bus.h ****   *         @arg @ref LL_AHB1_GRP1_PERIPH_GPIOD
 350:Drivers/STM32F7xx_HAL_Driver/Inc/stm32f7xx_ll_bus.h ****   *         @arg @ref LL_AHB1_GRP1_PERIPH_GPIOE
 351:Drivers/STM32F7xx_HAL_Driver/Inc/stm32f7xx_ll_bus.h ****   *         @arg @ref LL_AHB1_GRP1_PERIPH_GPIOF
 352:Drivers/STM32F7xx_HAL_Driver/Inc/stm32f7xx_ll_bus.h ****   *         @arg @ref LL_AHB1_GRP1_PERIPH_GPIOG
 353:Drivers/STM32F7xx_HAL_Driver/Inc/stm32f7xx_ll_bus.h ****   *         @arg @ref LL_AHB1_GRP1_PERIPH_GPIOH
 354:Drivers/STM32F7xx_HAL_Driver/Inc/stm32f7xx_ll_bus.h ****   *         @arg @ref LL_AHB1_GRP1_PERIPH_GPIOI
 355:Drivers/STM32F7xx_HAL_Driver/Inc/stm32f7xx_ll_bus.h ****   *         @arg @ref LL_AHB1_GRP1_PERIPH_GPIOJ (*)
 356:Drivers/STM32F7xx_HAL_Driver/Inc/stm32f7xx_ll_bus.h ****   *         @arg @ref LL_AHB1_GRP1_PERIPH_GPIOK (*)
 357:Drivers/STM32F7xx_HAL_Driver/Inc/stm32f7xx_ll_bus.h ****   *         @arg @ref LL_AHB1_GRP1_PERIPH_CRC
 358:Drivers/STM32F7xx_HAL_Driver/Inc/stm32f7xx_ll_bus.h ****   *         @arg @ref LL_AHB1_GRP1_PERIPH_BKPSRAM
 359:Drivers/STM32F7xx_HAL_Driver/Inc/stm32f7xx_ll_bus.h ****   *         @arg @ref LL_AHB1_GRP1_PERIPH_DTCMRAM
 360:Drivers/STM32F7xx_HAL_Driver/Inc/stm32f7xx_ll_bus.h ****   *         @arg @ref LL_AHB1_GRP1_PERIPH_DMA1
 361:Drivers/STM32F7xx_HAL_Driver/Inc/stm32f7xx_ll_bus.h ****   *         @arg @ref LL_AHB1_GRP1_PERIPH_DMA2
 362:Drivers/STM32F7xx_HAL_Driver/Inc/stm32f7xx_ll_bus.h ****   *         @arg @ref LL_AHB1_GRP1_PERIPH_DMA2D (*)
ARM GAS  C:\Users\Giorgio\AppData\Local\Temp\ccpuEN3p.s 			page 27


 363:Drivers/STM32F7xx_HAL_Driver/Inc/stm32f7xx_ll_bus.h ****   *         @arg @ref LL_AHB1_GRP1_PERIPH_ETHMAC (*)
 364:Drivers/STM32F7xx_HAL_Driver/Inc/stm32f7xx_ll_bus.h ****   *         @arg @ref LL_AHB1_GRP1_PERIPH_ETHMACTX (*)
 365:Drivers/STM32F7xx_HAL_Driver/Inc/stm32f7xx_ll_bus.h ****   *         @arg @ref LL_AHB1_GRP1_PERIPH_ETHMACRX (*)
 366:Drivers/STM32F7xx_HAL_Driver/Inc/stm32f7xx_ll_bus.h ****   *         @arg @ref LL_AHB1_GRP1_PERIPH_ETHMACPTP (*)
 367:Drivers/STM32F7xx_HAL_Driver/Inc/stm32f7xx_ll_bus.h ****   *         @arg @ref LL_AHB1_GRP1_PERIPH_OTGHS
 368:Drivers/STM32F7xx_HAL_Driver/Inc/stm32f7xx_ll_bus.h ****   *         @arg @ref LL_AHB1_GRP1_PERIPH_OTGHSULPI
 369:Drivers/STM32F7xx_HAL_Driver/Inc/stm32f7xx_ll_bus.h ****   *
 370:Drivers/STM32F7xx_HAL_Driver/Inc/stm32f7xx_ll_bus.h ****   *         (*) value not defined in all devices.
 371:Drivers/STM32F7xx_HAL_Driver/Inc/stm32f7xx_ll_bus.h ****   * @retval State of Periphs (1 or 0).
 372:Drivers/STM32F7xx_HAL_Driver/Inc/stm32f7xx_ll_bus.h **** */
 373:Drivers/STM32F7xx_HAL_Driver/Inc/stm32f7xx_ll_bus.h **** __STATIC_INLINE uint32_t LL_AHB1_GRP1_IsEnabledClock(uint32_t Periphs)
 374:Drivers/STM32F7xx_HAL_Driver/Inc/stm32f7xx_ll_bus.h **** {
 375:Drivers/STM32F7xx_HAL_Driver/Inc/stm32f7xx_ll_bus.h ****   return (READ_BIT(RCC->AHB1ENR, Periphs) == Periphs);
 376:Drivers/STM32F7xx_HAL_Driver/Inc/stm32f7xx_ll_bus.h **** }
 377:Drivers/STM32F7xx_HAL_Driver/Inc/stm32f7xx_ll_bus.h **** 
 378:Drivers/STM32F7xx_HAL_Driver/Inc/stm32f7xx_ll_bus.h **** /**
 379:Drivers/STM32F7xx_HAL_Driver/Inc/stm32f7xx_ll_bus.h ****   * @brief  Disable AHB1 peripherals clock.
 380:Drivers/STM32F7xx_HAL_Driver/Inc/stm32f7xx_ll_bus.h ****   * @rmtoll AHB1ENR      GPIOAEN            LL_AHB1_GRP1_DisableClock\n
 381:Drivers/STM32F7xx_HAL_Driver/Inc/stm32f7xx_ll_bus.h ****   *         AHB1ENR      GPIOBEN            LL_AHB1_GRP1_DisableClock\n
 382:Drivers/STM32F7xx_HAL_Driver/Inc/stm32f7xx_ll_bus.h ****   *         AHB1ENR      GPIOCEN            LL_AHB1_GRP1_DisableClock\n
 383:Drivers/STM32F7xx_HAL_Driver/Inc/stm32f7xx_ll_bus.h ****   *         AHB1ENR      GPIODEN            LL_AHB1_GRP1_DisableClock\n
 384:Drivers/STM32F7xx_HAL_Driver/Inc/stm32f7xx_ll_bus.h ****   *         AHB1ENR      GPIOEEN            LL_AHB1_GRP1_DisableClock\n
 385:Drivers/STM32F7xx_HAL_Driver/Inc/stm32f7xx_ll_bus.h ****   *         AHB1ENR      GPIOFEN            LL_AHB1_GRP1_DisableClock\n
 386:Drivers/STM32F7xx_HAL_Driver/Inc/stm32f7xx_ll_bus.h ****   *         AHB1ENR      GPIOGEN            LL_AHB1_GRP1_DisableClock\n
 387:Drivers/STM32F7xx_HAL_Driver/Inc/stm32f7xx_ll_bus.h ****   *         AHB1ENR      GPIOHEN            LL_AHB1_GRP1_DisableClock\n
 388:Drivers/STM32F7xx_HAL_Driver/Inc/stm32f7xx_ll_bus.h ****   *         AHB1ENR      GPIOIEN            LL_AHB1_GRP1_DisableClock\n
 389:Drivers/STM32F7xx_HAL_Driver/Inc/stm32f7xx_ll_bus.h ****   *         AHB1ENR      GPIOJEN            LL_AHB1_GRP1_DisableClock\n
 390:Drivers/STM32F7xx_HAL_Driver/Inc/stm32f7xx_ll_bus.h ****   *         AHB1ENR      GPIOKEN            LL_AHB1_GRP1_DisableClock\n
 391:Drivers/STM32F7xx_HAL_Driver/Inc/stm32f7xx_ll_bus.h ****   *         AHB1ENR      CRCEN              LL_AHB1_GRP1_DisableClock\n
 392:Drivers/STM32F7xx_HAL_Driver/Inc/stm32f7xx_ll_bus.h ****   *         AHB1ENR      BKPSRAMEN          LL_AHB1_GRP1_DisableClock\n
 393:Drivers/STM32F7xx_HAL_Driver/Inc/stm32f7xx_ll_bus.h ****   *         AHB1ENR      DTCMRAMEN          LL_AHB1_GRP1_DisableClock\n
 394:Drivers/STM32F7xx_HAL_Driver/Inc/stm32f7xx_ll_bus.h ****   *         AHB1ENR      DMA1EN             LL_AHB1_GRP1_DisableClock\n
 395:Drivers/STM32F7xx_HAL_Driver/Inc/stm32f7xx_ll_bus.h ****   *         AHB1ENR      DMA2EN             LL_AHB1_GRP1_DisableClock\n
 396:Drivers/STM32F7xx_HAL_Driver/Inc/stm32f7xx_ll_bus.h ****   *         AHB1ENR      DMA2DEN            LL_AHB1_GRP1_DisableClock\n
 397:Drivers/STM32F7xx_HAL_Driver/Inc/stm32f7xx_ll_bus.h ****   *         AHB1ENR      ETHMACEN           LL_AHB1_GRP1_DisableClock\n
 398:Drivers/STM32F7xx_HAL_Driver/Inc/stm32f7xx_ll_bus.h ****   *         AHB1ENR      ETHMACTXEN         LL_AHB1_GRP1_DisableClock\n
 399:Drivers/STM32F7xx_HAL_Driver/Inc/stm32f7xx_ll_bus.h ****   *         AHB1ENR      ETHMACRXEN         LL_AHB1_GRP1_DisableClock\n
 400:Drivers/STM32F7xx_HAL_Driver/Inc/stm32f7xx_ll_bus.h ****   *         AHB1ENR      ETHMACPTPEN        LL_AHB1_GRP1_DisableClock\n
 401:Drivers/STM32F7xx_HAL_Driver/Inc/stm32f7xx_ll_bus.h ****   *         AHB1ENR      OTGHSEN            LL_AHB1_GRP1_DisableClock\n
 402:Drivers/STM32F7xx_HAL_Driver/Inc/stm32f7xx_ll_bus.h ****   *         AHB1ENR      OTGHSULPIENDEN     LL_AHB1_GRP1_DisableClock
 403:Drivers/STM32F7xx_HAL_Driver/Inc/stm32f7xx_ll_bus.h ****   * @param  Periphs This parameter can be a combination of the following values:
 404:Drivers/STM32F7xx_HAL_Driver/Inc/stm32f7xx_ll_bus.h ****   *         @arg @ref LL_AHB1_GRP1_PERIPH_GPIOA
 405:Drivers/STM32F7xx_HAL_Driver/Inc/stm32f7xx_ll_bus.h ****   *         @arg @ref LL_AHB1_GRP1_PERIPH_GPIOB
 406:Drivers/STM32F7xx_HAL_Driver/Inc/stm32f7xx_ll_bus.h ****   *         @arg @ref LL_AHB1_GRP1_PERIPH_GPIOC
 407:Drivers/STM32F7xx_HAL_Driver/Inc/stm32f7xx_ll_bus.h ****   *         @arg @ref LL_AHB1_GRP1_PERIPH_GPIOD
 408:Drivers/STM32F7xx_HAL_Driver/Inc/stm32f7xx_ll_bus.h ****   *         @arg @ref LL_AHB1_GRP1_PERIPH_GPIOE
 409:Drivers/STM32F7xx_HAL_Driver/Inc/stm32f7xx_ll_bus.h ****   *         @arg @ref LL_AHB1_GRP1_PERIPH_GPIOF
 410:Drivers/STM32F7xx_HAL_Driver/Inc/stm32f7xx_ll_bus.h ****   *         @arg @ref LL_AHB1_GRP1_PERIPH_GPIOG
 411:Drivers/STM32F7xx_HAL_Driver/Inc/stm32f7xx_ll_bus.h ****   *         @arg @ref LL_AHB1_GRP1_PERIPH_GPIOH
 412:Drivers/STM32F7xx_HAL_Driver/Inc/stm32f7xx_ll_bus.h ****   *         @arg @ref LL_AHB1_GRP1_PERIPH_GPIOI
 413:Drivers/STM32F7xx_HAL_Driver/Inc/stm32f7xx_ll_bus.h ****   *         @arg @ref LL_AHB1_GRP1_PERIPH_GPIOJ (*)
 414:Drivers/STM32F7xx_HAL_Driver/Inc/stm32f7xx_ll_bus.h ****   *         @arg @ref LL_AHB1_GRP1_PERIPH_GPIOK (*)
 415:Drivers/STM32F7xx_HAL_Driver/Inc/stm32f7xx_ll_bus.h ****   *         @arg @ref LL_AHB1_GRP1_PERIPH_CRC
 416:Drivers/STM32F7xx_HAL_Driver/Inc/stm32f7xx_ll_bus.h ****   *         @arg @ref LL_AHB1_GRP1_PERIPH_BKPSRAM
 417:Drivers/STM32F7xx_HAL_Driver/Inc/stm32f7xx_ll_bus.h ****   *         @arg @ref LL_AHB1_GRP1_PERIPH_DTCMRAM
 418:Drivers/STM32F7xx_HAL_Driver/Inc/stm32f7xx_ll_bus.h ****   *         @arg @ref LL_AHB1_GRP1_PERIPH_DMA1
 419:Drivers/STM32F7xx_HAL_Driver/Inc/stm32f7xx_ll_bus.h ****   *         @arg @ref LL_AHB1_GRP1_PERIPH_DMA2
ARM GAS  C:\Users\Giorgio\AppData\Local\Temp\ccpuEN3p.s 			page 28


 420:Drivers/STM32F7xx_HAL_Driver/Inc/stm32f7xx_ll_bus.h ****   *         @arg @ref LL_AHB1_GRP1_PERIPH_DMA2D (*)
 421:Drivers/STM32F7xx_HAL_Driver/Inc/stm32f7xx_ll_bus.h ****   *         @arg @ref LL_AHB1_GRP1_PERIPH_ETHMAC (*)
 422:Drivers/STM32F7xx_HAL_Driver/Inc/stm32f7xx_ll_bus.h ****   *         @arg @ref LL_AHB1_GRP1_PERIPH_ETHMACTX (*)
 423:Drivers/STM32F7xx_HAL_Driver/Inc/stm32f7xx_ll_bus.h ****   *         @arg @ref LL_AHB1_GRP1_PERIPH_ETHMACRX (*)
 424:Drivers/STM32F7xx_HAL_Driver/Inc/stm32f7xx_ll_bus.h ****   *         @arg @ref LL_AHB1_GRP1_PERIPH_ETHMACPTP (*)
 425:Drivers/STM32F7xx_HAL_Driver/Inc/stm32f7xx_ll_bus.h ****   *         @arg @ref LL_AHB1_GRP1_PERIPH_OTGHS
 426:Drivers/STM32F7xx_HAL_Driver/Inc/stm32f7xx_ll_bus.h ****   *         @arg @ref LL_AHB1_GRP1_PERIPH_OTGHSULPI
 427:Drivers/STM32F7xx_HAL_Driver/Inc/stm32f7xx_ll_bus.h ****   *
 428:Drivers/STM32F7xx_HAL_Driver/Inc/stm32f7xx_ll_bus.h ****   *         (*) value not defined in all devices.
 429:Drivers/STM32F7xx_HAL_Driver/Inc/stm32f7xx_ll_bus.h ****   * @retval None
 430:Drivers/STM32F7xx_HAL_Driver/Inc/stm32f7xx_ll_bus.h **** */
 431:Drivers/STM32F7xx_HAL_Driver/Inc/stm32f7xx_ll_bus.h **** __STATIC_INLINE void LL_AHB1_GRP1_DisableClock(uint32_t Periphs)
 432:Drivers/STM32F7xx_HAL_Driver/Inc/stm32f7xx_ll_bus.h **** {
 433:Drivers/STM32F7xx_HAL_Driver/Inc/stm32f7xx_ll_bus.h ****   CLEAR_BIT(RCC->AHB1ENR, Periphs);
 434:Drivers/STM32F7xx_HAL_Driver/Inc/stm32f7xx_ll_bus.h **** }
 435:Drivers/STM32F7xx_HAL_Driver/Inc/stm32f7xx_ll_bus.h **** 
 436:Drivers/STM32F7xx_HAL_Driver/Inc/stm32f7xx_ll_bus.h **** /**
 437:Drivers/STM32F7xx_HAL_Driver/Inc/stm32f7xx_ll_bus.h ****   * @brief  Force AHB1 peripherals reset.
 438:Drivers/STM32F7xx_HAL_Driver/Inc/stm32f7xx_ll_bus.h ****   * @rmtoll AHB1RSTR     GPIOARST      LL_AHB1_GRP1_ForceReset\n
 439:Drivers/STM32F7xx_HAL_Driver/Inc/stm32f7xx_ll_bus.h ****   *         AHB1RSTR     GPIOBRST      LL_AHB1_GRP1_ForceReset\n
 440:Drivers/STM32F7xx_HAL_Driver/Inc/stm32f7xx_ll_bus.h ****   *         AHB1RSTR     GPIOCRST      LL_AHB1_GRP1_ForceReset\n
 441:Drivers/STM32F7xx_HAL_Driver/Inc/stm32f7xx_ll_bus.h ****   *         AHB1RSTR     GPIODRST      LL_AHB1_GRP1_ForceReset\n
 442:Drivers/STM32F7xx_HAL_Driver/Inc/stm32f7xx_ll_bus.h ****   *         AHB1RSTR     GPIOERST      LL_AHB1_GRP1_ForceReset\n
 443:Drivers/STM32F7xx_HAL_Driver/Inc/stm32f7xx_ll_bus.h ****   *         AHB1RSTR     GPIOFRST      LL_AHB1_GRP1_ForceReset\n
 444:Drivers/STM32F7xx_HAL_Driver/Inc/stm32f7xx_ll_bus.h ****   *         AHB1RSTR     GPIOGRST      LL_AHB1_GRP1_ForceReset\n
 445:Drivers/STM32F7xx_HAL_Driver/Inc/stm32f7xx_ll_bus.h ****   *         AHB1RSTR     GPIOHRST      LL_AHB1_GRP1_ForceReset\n
 446:Drivers/STM32F7xx_HAL_Driver/Inc/stm32f7xx_ll_bus.h ****   *         AHB1RSTR     GPIOIRST      LL_AHB1_GRP1_ForceReset\n
 447:Drivers/STM32F7xx_HAL_Driver/Inc/stm32f7xx_ll_bus.h ****   *         AHB1RSTR     GPIOJRST      LL_AHB1_GRP1_ForceReset\n
 448:Drivers/STM32F7xx_HAL_Driver/Inc/stm32f7xx_ll_bus.h ****   *         AHB1RSTR     GPIOKRST      LL_AHB1_GRP1_ForceReset\n
 449:Drivers/STM32F7xx_HAL_Driver/Inc/stm32f7xx_ll_bus.h ****   *         AHB1RSTR     CRCRST        LL_AHB1_GRP1_ForceReset\n
 450:Drivers/STM32F7xx_HAL_Driver/Inc/stm32f7xx_ll_bus.h ****   *         AHB1RSTR     DMA1RST       LL_AHB1_GRP1_ForceReset\n
 451:Drivers/STM32F7xx_HAL_Driver/Inc/stm32f7xx_ll_bus.h ****   *         AHB1RSTR     DMA2RST       LL_AHB1_GRP1_ForceReset\n
 452:Drivers/STM32F7xx_HAL_Driver/Inc/stm32f7xx_ll_bus.h ****   *         AHB1RSTR     DMA2DRST      LL_AHB1_GRP1_ForceReset\n
 453:Drivers/STM32F7xx_HAL_Driver/Inc/stm32f7xx_ll_bus.h ****   *         AHB1RSTR     ETHMACRST     LL_AHB1_GRP1_ForceReset\n
 454:Drivers/STM32F7xx_HAL_Driver/Inc/stm32f7xx_ll_bus.h ****   *         AHB1RSTR     OTGHSRST      LL_AHB1_GRP1_ForceReset
 455:Drivers/STM32F7xx_HAL_Driver/Inc/stm32f7xx_ll_bus.h ****   * @param  Periphs This parameter can be a combination of the following values:
 456:Drivers/STM32F7xx_HAL_Driver/Inc/stm32f7xx_ll_bus.h ****   *         @arg @ref LL_AHB1_GRP1_PERIPH_ALL
 457:Drivers/STM32F7xx_HAL_Driver/Inc/stm32f7xx_ll_bus.h ****   *         @arg @ref LL_AHB1_GRP1_PERIPH_GPIOA
 458:Drivers/STM32F7xx_HAL_Driver/Inc/stm32f7xx_ll_bus.h ****   *         @arg @ref LL_AHB1_GRP1_PERIPH_GPIOB
 459:Drivers/STM32F7xx_HAL_Driver/Inc/stm32f7xx_ll_bus.h ****   *         @arg @ref LL_AHB1_GRP1_PERIPH_GPIOC
 460:Drivers/STM32F7xx_HAL_Driver/Inc/stm32f7xx_ll_bus.h ****   *         @arg @ref LL_AHB1_GRP1_PERIPH_GPIOD
 461:Drivers/STM32F7xx_HAL_Driver/Inc/stm32f7xx_ll_bus.h ****   *         @arg @ref LL_AHB1_GRP1_PERIPH_GPIOE
 462:Drivers/STM32F7xx_HAL_Driver/Inc/stm32f7xx_ll_bus.h ****   *         @arg @ref LL_AHB1_GRP1_PERIPH_GPIOF
 463:Drivers/STM32F7xx_HAL_Driver/Inc/stm32f7xx_ll_bus.h ****   *         @arg @ref LL_AHB1_GRP1_PERIPH_GPIOG
 464:Drivers/STM32F7xx_HAL_Driver/Inc/stm32f7xx_ll_bus.h ****   *         @arg @ref LL_AHB1_GRP1_PERIPH_GPIOH
 465:Drivers/STM32F7xx_HAL_Driver/Inc/stm32f7xx_ll_bus.h ****   *         @arg @ref LL_AHB1_GRP1_PERIPH_GPIOI
 466:Drivers/STM32F7xx_HAL_Driver/Inc/stm32f7xx_ll_bus.h ****   *         @arg @ref LL_AHB1_GRP1_PERIPH_GPIOJ (*)
 467:Drivers/STM32F7xx_HAL_Driver/Inc/stm32f7xx_ll_bus.h ****   *         @arg @ref LL_AHB1_GRP1_PERIPH_GPIOK (*)
 468:Drivers/STM32F7xx_HAL_Driver/Inc/stm32f7xx_ll_bus.h ****   *         @arg @ref LL_AHB1_GRP1_PERIPH_CRC
 469:Drivers/STM32F7xx_HAL_Driver/Inc/stm32f7xx_ll_bus.h ****   *         @arg @ref LL_AHB1_GRP1_PERIPH_DMA1
 470:Drivers/STM32F7xx_HAL_Driver/Inc/stm32f7xx_ll_bus.h ****   *         @arg @ref LL_AHB1_GRP1_PERIPH_DMA2
 471:Drivers/STM32F7xx_HAL_Driver/Inc/stm32f7xx_ll_bus.h ****   *         @arg @ref LL_AHB1_GRP1_PERIPH_DMA2D (*)
 472:Drivers/STM32F7xx_HAL_Driver/Inc/stm32f7xx_ll_bus.h ****   *         @arg @ref LL_AHB1_GRP1_PERIPH_ETHMAC (*)
 473:Drivers/STM32F7xx_HAL_Driver/Inc/stm32f7xx_ll_bus.h ****   *         @arg @ref LL_AHB1_GRP1_PERIPH_OTGHS
 474:Drivers/STM32F7xx_HAL_Driver/Inc/stm32f7xx_ll_bus.h ****   *
 475:Drivers/STM32F7xx_HAL_Driver/Inc/stm32f7xx_ll_bus.h ****   *         (*) value not defined in all devices.
 476:Drivers/STM32F7xx_HAL_Driver/Inc/stm32f7xx_ll_bus.h ****   * @retval None
ARM GAS  C:\Users\Giorgio\AppData\Local\Temp\ccpuEN3p.s 			page 29


 477:Drivers/STM32F7xx_HAL_Driver/Inc/stm32f7xx_ll_bus.h **** */
 478:Drivers/STM32F7xx_HAL_Driver/Inc/stm32f7xx_ll_bus.h **** __STATIC_INLINE void LL_AHB1_GRP1_ForceReset(uint32_t Periphs)
 479:Drivers/STM32F7xx_HAL_Driver/Inc/stm32f7xx_ll_bus.h **** {
 480:Drivers/STM32F7xx_HAL_Driver/Inc/stm32f7xx_ll_bus.h ****   SET_BIT(RCC->AHB1RSTR, Periphs);
 481:Drivers/STM32F7xx_HAL_Driver/Inc/stm32f7xx_ll_bus.h **** }
 482:Drivers/STM32F7xx_HAL_Driver/Inc/stm32f7xx_ll_bus.h **** 
 483:Drivers/STM32F7xx_HAL_Driver/Inc/stm32f7xx_ll_bus.h **** /**
 484:Drivers/STM32F7xx_HAL_Driver/Inc/stm32f7xx_ll_bus.h ****   * @brief  Release AHB1 peripherals reset.
 485:Drivers/STM32F7xx_HAL_Driver/Inc/stm32f7xx_ll_bus.h ****   * @rmtoll AHB1RSTR     GPIOARST      LL_AHB1_GRP1_ReleaseReset\n
 486:Drivers/STM32F7xx_HAL_Driver/Inc/stm32f7xx_ll_bus.h ****   *         AHB1RSTR     GPIOBRST      LL_AHB1_GRP1_ReleaseReset\n
 487:Drivers/STM32F7xx_HAL_Driver/Inc/stm32f7xx_ll_bus.h ****   *         AHB1RSTR     GPIOCRST      LL_AHB1_GRP1_ReleaseReset\n
 488:Drivers/STM32F7xx_HAL_Driver/Inc/stm32f7xx_ll_bus.h ****   *         AHB1RSTR     GPIODRST      LL_AHB1_GRP1_ReleaseReset\n
 489:Drivers/STM32F7xx_HAL_Driver/Inc/stm32f7xx_ll_bus.h ****   *         AHB1RSTR     GPIOERST      LL_AHB1_GRP1_ReleaseReset\n
 490:Drivers/STM32F7xx_HAL_Driver/Inc/stm32f7xx_ll_bus.h ****   *         AHB1RSTR     GPIOFRST      LL_AHB1_GRP1_ReleaseReset\n
 491:Drivers/STM32F7xx_HAL_Driver/Inc/stm32f7xx_ll_bus.h ****   *         AHB1RSTR     GPIOGRST      LL_AHB1_GRP1_ReleaseReset\n
 492:Drivers/STM32F7xx_HAL_Driver/Inc/stm32f7xx_ll_bus.h ****   *         AHB1RSTR     GPIOHRST      LL_AHB1_GRP1_ReleaseReset\n
 493:Drivers/STM32F7xx_HAL_Driver/Inc/stm32f7xx_ll_bus.h ****   *         AHB1RSTR     GPIOIRST      LL_AHB1_GRP1_ReleaseReset\n
 494:Drivers/STM32F7xx_HAL_Driver/Inc/stm32f7xx_ll_bus.h ****   *         AHB1RSTR     GPIOJRST      LL_AHB1_GRP1_ReleaseReset\n
 495:Drivers/STM32F7xx_HAL_Driver/Inc/stm32f7xx_ll_bus.h ****   *         AHB1RSTR     GPIOKRST      LL_AHB1_GRP1_ReleaseReset\n
 496:Drivers/STM32F7xx_HAL_Driver/Inc/stm32f7xx_ll_bus.h ****   *         AHB1RSTR     CRCRST        LL_AHB1_GRP1_ReleaseReset\n
 497:Drivers/STM32F7xx_HAL_Driver/Inc/stm32f7xx_ll_bus.h ****   *         AHB1RSTR     DMA1RST       LL_AHB1_GRP1_ReleaseReset\n
 498:Drivers/STM32F7xx_HAL_Driver/Inc/stm32f7xx_ll_bus.h ****   *         AHB1RSTR     DMA2RST       LL_AHB1_GRP1_ReleaseReset\n
 499:Drivers/STM32F7xx_HAL_Driver/Inc/stm32f7xx_ll_bus.h ****   *         AHB1RSTR     DMA2DRST      LL_AHB1_GRP1_ReleaseReset\n
 500:Drivers/STM32F7xx_HAL_Driver/Inc/stm32f7xx_ll_bus.h ****   *         AHB1RSTR     ETHMACRST     LL_AHB1_GRP1_ReleaseReset\n
 501:Drivers/STM32F7xx_HAL_Driver/Inc/stm32f7xx_ll_bus.h ****   *         AHB1RSTR     OTGHSRST      LL_AHB1_GRP1_ReleaseReset
 502:Drivers/STM32F7xx_HAL_Driver/Inc/stm32f7xx_ll_bus.h ****   * @param  Periphs This parameter can be a combination of the following values:
 503:Drivers/STM32F7xx_HAL_Driver/Inc/stm32f7xx_ll_bus.h ****   *         @arg @ref LL_AHB1_GRP1_PERIPH_ALL
 504:Drivers/STM32F7xx_HAL_Driver/Inc/stm32f7xx_ll_bus.h ****   *         @arg @ref LL_AHB1_GRP1_PERIPH_GPIOA
 505:Drivers/STM32F7xx_HAL_Driver/Inc/stm32f7xx_ll_bus.h ****   *         @arg @ref LL_AHB1_GRP1_PERIPH_GPIOB
 506:Drivers/STM32F7xx_HAL_Driver/Inc/stm32f7xx_ll_bus.h ****   *         @arg @ref LL_AHB1_GRP1_PERIPH_GPIOC
 507:Drivers/STM32F7xx_HAL_Driver/Inc/stm32f7xx_ll_bus.h ****   *         @arg @ref LL_AHB1_GRP1_PERIPH_GPIOD
 508:Drivers/STM32F7xx_HAL_Driver/Inc/stm32f7xx_ll_bus.h ****   *         @arg @ref LL_AHB1_GRP1_PERIPH_GPIOE
 509:Drivers/STM32F7xx_HAL_Driver/Inc/stm32f7xx_ll_bus.h ****   *         @arg @ref LL_AHB1_GRP1_PERIPH_GPIOF
 510:Drivers/STM32F7xx_HAL_Driver/Inc/stm32f7xx_ll_bus.h ****   *         @arg @ref LL_AHB1_GRP1_PERIPH_GPIOG
 511:Drivers/STM32F7xx_HAL_Driver/Inc/stm32f7xx_ll_bus.h ****   *         @arg @ref LL_AHB1_GRP1_PERIPH_GPIOH
 512:Drivers/STM32F7xx_HAL_Driver/Inc/stm32f7xx_ll_bus.h ****   *         @arg @ref LL_AHB1_GRP1_PERIPH_GPIOI
 513:Drivers/STM32F7xx_HAL_Driver/Inc/stm32f7xx_ll_bus.h ****   *         @arg @ref LL_AHB1_GRP1_PERIPH_GPIOJ (*)
 514:Drivers/STM32F7xx_HAL_Driver/Inc/stm32f7xx_ll_bus.h ****   *         @arg @ref LL_AHB1_GRP1_PERIPH_GPIOK (*)
 515:Drivers/STM32F7xx_HAL_Driver/Inc/stm32f7xx_ll_bus.h ****   *         @arg @ref LL_AHB1_GRP1_PERIPH_CRC
 516:Drivers/STM32F7xx_HAL_Driver/Inc/stm32f7xx_ll_bus.h ****   *         @arg @ref LL_AHB1_GRP1_PERIPH_DMA1
 517:Drivers/STM32F7xx_HAL_Driver/Inc/stm32f7xx_ll_bus.h ****   *         @arg @ref LL_AHB1_GRP1_PERIPH_DMA2
 518:Drivers/STM32F7xx_HAL_Driver/Inc/stm32f7xx_ll_bus.h ****   *         @arg @ref LL_AHB1_GRP1_PERIPH_DMA2D (*)
 519:Drivers/STM32F7xx_HAL_Driver/Inc/stm32f7xx_ll_bus.h ****   *         @arg @ref LL_AHB1_GRP1_PERIPH_ETHMAC (*)
 520:Drivers/STM32F7xx_HAL_Driver/Inc/stm32f7xx_ll_bus.h ****   *         @arg @ref LL_AHB1_GRP1_PERIPH_OTGHS
 521:Drivers/STM32F7xx_HAL_Driver/Inc/stm32f7xx_ll_bus.h ****   *
 522:Drivers/STM32F7xx_HAL_Driver/Inc/stm32f7xx_ll_bus.h ****   *         (*) value not defined in all devices.
 523:Drivers/STM32F7xx_HAL_Driver/Inc/stm32f7xx_ll_bus.h ****   * @retval None
 524:Drivers/STM32F7xx_HAL_Driver/Inc/stm32f7xx_ll_bus.h **** */
 525:Drivers/STM32F7xx_HAL_Driver/Inc/stm32f7xx_ll_bus.h **** __STATIC_INLINE void LL_AHB1_GRP1_ReleaseReset(uint32_t Periphs)
 526:Drivers/STM32F7xx_HAL_Driver/Inc/stm32f7xx_ll_bus.h **** {
 527:Drivers/STM32F7xx_HAL_Driver/Inc/stm32f7xx_ll_bus.h ****   CLEAR_BIT(RCC->AHB1RSTR, Periphs);
 528:Drivers/STM32F7xx_HAL_Driver/Inc/stm32f7xx_ll_bus.h **** }
 529:Drivers/STM32F7xx_HAL_Driver/Inc/stm32f7xx_ll_bus.h **** 
 530:Drivers/STM32F7xx_HAL_Driver/Inc/stm32f7xx_ll_bus.h **** /**
 531:Drivers/STM32F7xx_HAL_Driver/Inc/stm32f7xx_ll_bus.h ****   * @brief  Enable AHB1 peripheral clocks in low-power mode
 532:Drivers/STM32F7xx_HAL_Driver/Inc/stm32f7xx_ll_bus.h ****   * @rmtoll AHB1LPENR    GPIOALPEN      LL_AHB1_GRP1_EnableClockLowPower\n
 533:Drivers/STM32F7xx_HAL_Driver/Inc/stm32f7xx_ll_bus.h ****   *         AHB1LPENR    GPIOBLPEN      LL_AHB1_GRP1_EnableClockLowPower\n
ARM GAS  C:\Users\Giorgio\AppData\Local\Temp\ccpuEN3p.s 			page 30


 534:Drivers/STM32F7xx_HAL_Driver/Inc/stm32f7xx_ll_bus.h ****   *         AHB1LPENR    GPIOCLPEN      LL_AHB1_GRP1_EnableClockLowPower\n
 535:Drivers/STM32F7xx_HAL_Driver/Inc/stm32f7xx_ll_bus.h ****   *         AHB1LPENR    GPIODLPEN      LL_AHB1_GRP1_EnableClockLowPower\n
 536:Drivers/STM32F7xx_HAL_Driver/Inc/stm32f7xx_ll_bus.h ****   *         AHB1LPENR    GPIOELPEN      LL_AHB1_GRP1_EnableClockLowPower\n
 537:Drivers/STM32F7xx_HAL_Driver/Inc/stm32f7xx_ll_bus.h ****   *         AHB1LPENR    GPIOFLPEN      LL_AHB1_GRP1_EnableClockLowPower\n
 538:Drivers/STM32F7xx_HAL_Driver/Inc/stm32f7xx_ll_bus.h ****   *         AHB1LPENR    GPIOGLPEN      LL_AHB1_GRP1_EnableClockLowPower\n
 539:Drivers/STM32F7xx_HAL_Driver/Inc/stm32f7xx_ll_bus.h ****   *         AHB1LPENR    GPIOHLPEN      LL_AHB1_GRP1_EnableClockLowPower\n
 540:Drivers/STM32F7xx_HAL_Driver/Inc/stm32f7xx_ll_bus.h ****   *         AHB1LPENR    GPIOILPEN      LL_AHB1_GRP1_EnableClockLowPower\n
 541:Drivers/STM32F7xx_HAL_Driver/Inc/stm32f7xx_ll_bus.h ****   *         AHB1LPENR    GPIOJLPEN      LL_AHB1_GRP1_EnableClockLowPower\n
 542:Drivers/STM32F7xx_HAL_Driver/Inc/stm32f7xx_ll_bus.h ****   *         AHB1LPENR    GPIOKLPEN      LL_AHB1_GRP1_EnableClockLowPower\n
 543:Drivers/STM32F7xx_HAL_Driver/Inc/stm32f7xx_ll_bus.h ****   *         AHB1LPENR    CRCLPEN        LL_AHB1_GRP1_EnableClockLowPower\n
 544:Drivers/STM32F7xx_HAL_Driver/Inc/stm32f7xx_ll_bus.h ****   *         AHB1LPENR    AXILPEN        LL_AHB1_GRP1_EnableClockLowPower\n
 545:Drivers/STM32F7xx_HAL_Driver/Inc/stm32f7xx_ll_bus.h ****   *         AHB1LPENR    FLITFLPEN      LL_AHB1_GRP1_EnableClockLowPower\n
 546:Drivers/STM32F7xx_HAL_Driver/Inc/stm32f7xx_ll_bus.h ****   *         AHB1LPENR    SRAM1LPEN      LL_AHB1_GRP1_EnableClockLowPower\n
 547:Drivers/STM32F7xx_HAL_Driver/Inc/stm32f7xx_ll_bus.h ****   *         AHB1LPENR    SRAM2LPEN      LL_AHB1_GRP1_EnableClockLowPower\n
 548:Drivers/STM32F7xx_HAL_Driver/Inc/stm32f7xx_ll_bus.h ****   *         AHB1LPENR    BKPSRAMLPEN    LL_AHB1_GRP1_EnableClockLowPower\n
 549:Drivers/STM32F7xx_HAL_Driver/Inc/stm32f7xx_ll_bus.h ****   *         AHB1LPENR    DTCMRAMLPEN    LL_AHB1_GRP1_EnableClockLowPower\n
 550:Drivers/STM32F7xx_HAL_Driver/Inc/stm32f7xx_ll_bus.h ****   *         AHB1LPENR    DMA1LPEN       LL_AHB1_GRP1_EnableClockLowPower\n
 551:Drivers/STM32F7xx_HAL_Driver/Inc/stm32f7xx_ll_bus.h ****   *         AHB1LPENR    DMA2LPEN       LL_AHB1_GRP1_EnableClockLowPower\n
 552:Drivers/STM32F7xx_HAL_Driver/Inc/stm32f7xx_ll_bus.h ****   *         AHB1LPENR    DMA2DLPEN      LL_AHB1_GRP1_EnableClockLowPower\n
 553:Drivers/STM32F7xx_HAL_Driver/Inc/stm32f7xx_ll_bus.h ****   *         AHB1LPENR    ETHMACLPEN     LL_AHB1_GRP1_EnableClockLowPower\n
 554:Drivers/STM32F7xx_HAL_Driver/Inc/stm32f7xx_ll_bus.h ****   *         AHB1LPENR    ETHMACTXLPEN   LL_AHB1_GRP1_EnableClockLowPower\n
 555:Drivers/STM32F7xx_HAL_Driver/Inc/stm32f7xx_ll_bus.h ****   *         AHB1LPENR    ETHMACRXLPEN   LL_AHB1_GRP1_EnableClockLowPower\n
 556:Drivers/STM32F7xx_HAL_Driver/Inc/stm32f7xx_ll_bus.h ****   *         AHB1LPENR    ETHMACPTPLPEN  LL_AHB1_GRP1_EnableClockLowPower\n
 557:Drivers/STM32F7xx_HAL_Driver/Inc/stm32f7xx_ll_bus.h ****   *         AHB1LPENR    OTGHSLPEN      LL_AHB1_GRP1_EnableClockLowPower\n
 558:Drivers/STM32F7xx_HAL_Driver/Inc/stm32f7xx_ll_bus.h ****   *         AHB1LPENR    OTGHSULPILPEN  LL_AHB1_GRP1_EnableClockLowPower
 559:Drivers/STM32F7xx_HAL_Driver/Inc/stm32f7xx_ll_bus.h ****   * @param  Periphs This parameter can be a combination of the following values:
 560:Drivers/STM32F7xx_HAL_Driver/Inc/stm32f7xx_ll_bus.h ****   *         @arg @ref LL_AHB1_GRP1_PERIPH_GPIOA
 561:Drivers/STM32F7xx_HAL_Driver/Inc/stm32f7xx_ll_bus.h ****   *         @arg @ref LL_AHB1_GRP1_PERIPH_GPIOB
 562:Drivers/STM32F7xx_HAL_Driver/Inc/stm32f7xx_ll_bus.h ****   *         @arg @ref LL_AHB1_GRP1_PERIPH_GPIOC
 563:Drivers/STM32F7xx_HAL_Driver/Inc/stm32f7xx_ll_bus.h ****   *         @arg @ref LL_AHB1_GRP1_PERIPH_GPIOD
 564:Drivers/STM32F7xx_HAL_Driver/Inc/stm32f7xx_ll_bus.h ****   *         @arg @ref LL_AHB1_GRP1_PERIPH_GPIOE
 565:Drivers/STM32F7xx_HAL_Driver/Inc/stm32f7xx_ll_bus.h ****   *         @arg @ref LL_AHB1_GRP1_PERIPH_GPIOF
 566:Drivers/STM32F7xx_HAL_Driver/Inc/stm32f7xx_ll_bus.h ****   *         @arg @ref LL_AHB1_GRP1_PERIPH_GPIOG
 567:Drivers/STM32F7xx_HAL_Driver/Inc/stm32f7xx_ll_bus.h ****   *         @arg @ref LL_AHB1_GRP1_PERIPH_GPIOH
 568:Drivers/STM32F7xx_HAL_Driver/Inc/stm32f7xx_ll_bus.h ****   *         @arg @ref LL_AHB1_GRP1_PERIPH_GPIOI
 569:Drivers/STM32F7xx_HAL_Driver/Inc/stm32f7xx_ll_bus.h ****   *         @arg @ref LL_AHB1_GRP1_PERIPH_GPIOJ (*)
 570:Drivers/STM32F7xx_HAL_Driver/Inc/stm32f7xx_ll_bus.h ****   *         @arg @ref LL_AHB1_GRP1_PERIPH_GPIOK (*)
 571:Drivers/STM32F7xx_HAL_Driver/Inc/stm32f7xx_ll_bus.h ****   *         @arg @ref LL_AHB1_GRP1_PERIPH_CRC
 572:Drivers/STM32F7xx_HAL_Driver/Inc/stm32f7xx_ll_bus.h ****   *         @arg @ref LL_AHB1_GRP1_PERIPH_AXI
 573:Drivers/STM32F7xx_HAL_Driver/Inc/stm32f7xx_ll_bus.h ****   *         @arg @ref LL_AHB1_GRP1_PERIPH_FLITF
 574:Drivers/STM32F7xx_HAL_Driver/Inc/stm32f7xx_ll_bus.h ****   *         @arg @ref LL_AHB1_GRP1_PERIPH_SRAM1
 575:Drivers/STM32F7xx_HAL_Driver/Inc/stm32f7xx_ll_bus.h ****   *         @arg @ref LL_AHB1_GRP1_PERIPH_SRAM2
 576:Drivers/STM32F7xx_HAL_Driver/Inc/stm32f7xx_ll_bus.h ****   *         @arg @ref LL_AHB1_GRP1_PERIPH_BKPSRAM
 577:Drivers/STM32F7xx_HAL_Driver/Inc/stm32f7xx_ll_bus.h ****   *         @arg @ref LL_AHB1_GRP1_PERIPH_DTCMRAM
 578:Drivers/STM32F7xx_HAL_Driver/Inc/stm32f7xx_ll_bus.h ****   *         @arg @ref LL_AHB1_GRP1_PERIPH_DMA1
 579:Drivers/STM32F7xx_HAL_Driver/Inc/stm32f7xx_ll_bus.h ****   *         @arg @ref LL_AHB1_GRP1_PERIPH_DMA2
 580:Drivers/STM32F7xx_HAL_Driver/Inc/stm32f7xx_ll_bus.h ****   *         @arg @ref LL_AHB1_GRP1_PERIPH_DMA2D (*)
 581:Drivers/STM32F7xx_HAL_Driver/Inc/stm32f7xx_ll_bus.h ****   *         @arg @ref LL_AHB1_GRP1_PERIPH_ETHMAC (*)
 582:Drivers/STM32F7xx_HAL_Driver/Inc/stm32f7xx_ll_bus.h ****   *         @arg @ref LL_AHB1_GRP1_PERIPH_ETHMACTX (*)
 583:Drivers/STM32F7xx_HAL_Driver/Inc/stm32f7xx_ll_bus.h ****   *         @arg @ref LL_AHB1_GRP1_PERIPH_ETHMACRX (*)
 584:Drivers/STM32F7xx_HAL_Driver/Inc/stm32f7xx_ll_bus.h ****   *         @arg @ref LL_AHB1_GRP1_PERIPH_ETHMACPTP (*)
 585:Drivers/STM32F7xx_HAL_Driver/Inc/stm32f7xx_ll_bus.h ****   *         @arg @ref LL_AHB1_GRP1_PERIPH_OTGHS
 586:Drivers/STM32F7xx_HAL_Driver/Inc/stm32f7xx_ll_bus.h ****   *         @arg @ref LL_AHB1_GRP1_PERIPH_OTGHSULPI
 587:Drivers/STM32F7xx_HAL_Driver/Inc/stm32f7xx_ll_bus.h ****   *
 588:Drivers/STM32F7xx_HAL_Driver/Inc/stm32f7xx_ll_bus.h ****   *         (*) value not defined in all devices.
 589:Drivers/STM32F7xx_HAL_Driver/Inc/stm32f7xx_ll_bus.h ****   * @retval None
 590:Drivers/STM32F7xx_HAL_Driver/Inc/stm32f7xx_ll_bus.h **** */
ARM GAS  C:\Users\Giorgio\AppData\Local\Temp\ccpuEN3p.s 			page 31


 591:Drivers/STM32F7xx_HAL_Driver/Inc/stm32f7xx_ll_bus.h **** __STATIC_INLINE void LL_AHB1_GRP1_EnableClockLowPower(uint32_t Periphs)
 592:Drivers/STM32F7xx_HAL_Driver/Inc/stm32f7xx_ll_bus.h **** {
 593:Drivers/STM32F7xx_HAL_Driver/Inc/stm32f7xx_ll_bus.h ****   __IO uint32_t tmpreg;
 594:Drivers/STM32F7xx_HAL_Driver/Inc/stm32f7xx_ll_bus.h ****   SET_BIT(RCC->AHB1LPENR, Periphs);
 595:Drivers/STM32F7xx_HAL_Driver/Inc/stm32f7xx_ll_bus.h ****   /* Delay after an RCC peripheral clock enabling */
 596:Drivers/STM32F7xx_HAL_Driver/Inc/stm32f7xx_ll_bus.h ****   tmpreg = READ_BIT(RCC->AHB1LPENR, Periphs);
 597:Drivers/STM32F7xx_HAL_Driver/Inc/stm32f7xx_ll_bus.h ****   (void)tmpreg;
 598:Drivers/STM32F7xx_HAL_Driver/Inc/stm32f7xx_ll_bus.h **** }
 599:Drivers/STM32F7xx_HAL_Driver/Inc/stm32f7xx_ll_bus.h **** 
 600:Drivers/STM32F7xx_HAL_Driver/Inc/stm32f7xx_ll_bus.h **** /**
 601:Drivers/STM32F7xx_HAL_Driver/Inc/stm32f7xx_ll_bus.h ****   * @brief  Disable AHB1 peripheral clocks in low-power mode
 602:Drivers/STM32F7xx_HAL_Driver/Inc/stm32f7xx_ll_bus.h ****   * @rmtoll AHB1LPENR    GPIOALPEN      LL_AHB1_GRP1_DisableClockLowPower\n
 603:Drivers/STM32F7xx_HAL_Driver/Inc/stm32f7xx_ll_bus.h ****   *         AHB1LPENR    GPIOBLPEN      LL_AHB1_GRP1_DisableClockLowPower\n
 604:Drivers/STM32F7xx_HAL_Driver/Inc/stm32f7xx_ll_bus.h ****   *         AHB1LPENR    GPIOCLPEN      LL_AHB1_GRP1_DisableClockLowPower\n
 605:Drivers/STM32F7xx_HAL_Driver/Inc/stm32f7xx_ll_bus.h ****   *         AHB1LPENR    GPIODLPEN      LL_AHB1_GRP1_DisableClockLowPower\n
 606:Drivers/STM32F7xx_HAL_Driver/Inc/stm32f7xx_ll_bus.h ****   *         AHB1LPENR    GPIOELPEN      LL_AHB1_GRP1_DisableClockLowPower\n
 607:Drivers/STM32F7xx_HAL_Driver/Inc/stm32f7xx_ll_bus.h ****   *         AHB1LPENR    GPIOFLPEN      LL_AHB1_GRP1_DisableClockLowPower\n
 608:Drivers/STM32F7xx_HAL_Driver/Inc/stm32f7xx_ll_bus.h ****   *         AHB1LPENR    GPIOGLPEN      LL_AHB1_GRP1_DisableClockLowPower\n
 609:Drivers/STM32F7xx_HAL_Driver/Inc/stm32f7xx_ll_bus.h ****   *         AHB1LPENR    GPIOHLPEN      LL_AHB1_GRP1_DisableClockLowPower\n
 610:Drivers/STM32F7xx_HAL_Driver/Inc/stm32f7xx_ll_bus.h ****   *         AHB1LPENR    GPIOILPEN      LL_AHB1_GRP1_DisableClockLowPower\n
 611:Drivers/STM32F7xx_HAL_Driver/Inc/stm32f7xx_ll_bus.h ****   *         AHB1LPENR    GPIOJLPEN      LL_AHB1_GRP1_DisableClockLowPower\n
 612:Drivers/STM32F7xx_HAL_Driver/Inc/stm32f7xx_ll_bus.h ****   *         AHB1LPENR    GPIOKLPEN      LL_AHB1_GRP1_DisableClockLowPower\n
 613:Drivers/STM32F7xx_HAL_Driver/Inc/stm32f7xx_ll_bus.h ****   *         AHB1LPENR    CRCLPEN        LL_AHB1_GRP1_DisableClockLowPower\n
 614:Drivers/STM32F7xx_HAL_Driver/Inc/stm32f7xx_ll_bus.h ****   *         AHB1LPENR    AXILPEN        LL_AHB1_GRP1_DisableClockLowPower\n
 615:Drivers/STM32F7xx_HAL_Driver/Inc/stm32f7xx_ll_bus.h ****   *         AHB1LPENR    FLITFLPEN      LL_AHB1_GRP1_DisableClockLowPower\n
 616:Drivers/STM32F7xx_HAL_Driver/Inc/stm32f7xx_ll_bus.h ****   *         AHB1LPENR    SRAM1LPEN      LL_AHB1_GRP1_DisableClockLowPower\n
 617:Drivers/STM32F7xx_HAL_Driver/Inc/stm32f7xx_ll_bus.h ****   *         AHB1LPENR    SRAM2LPEN      LL_AHB1_GRP1_DisableClockLowPower\n
 618:Drivers/STM32F7xx_HAL_Driver/Inc/stm32f7xx_ll_bus.h ****   *         AHB1LPENR    BKPSRAMLPEN    LL_AHB1_GRP1_DisableClockLowPower\n
 619:Drivers/STM32F7xx_HAL_Driver/Inc/stm32f7xx_ll_bus.h ****   *         AHB1LPENR    DTCMRAMLPEN    LL_AHB1_GRP1_DisableClockLowPower\n
 620:Drivers/STM32F7xx_HAL_Driver/Inc/stm32f7xx_ll_bus.h ****   *         AHB1LPENR    DMA1LPEN       LL_AHB1_GRP1_DisableClockLowPower\n
 621:Drivers/STM32F7xx_HAL_Driver/Inc/stm32f7xx_ll_bus.h ****   *         AHB1LPENR    DMA2LPEN       LL_AHB1_GRP1_DisableClockLowPower\n
 622:Drivers/STM32F7xx_HAL_Driver/Inc/stm32f7xx_ll_bus.h ****   *         AHB1LPENR    DMA2DLPEN      LL_AHB1_GRP1_DisableClockLowPower\n
 623:Drivers/STM32F7xx_HAL_Driver/Inc/stm32f7xx_ll_bus.h ****   *         AHB1LPENR    ETHMACLPEN     LL_AHB1_GRP1_DisableClockLowPower\n
 624:Drivers/STM32F7xx_HAL_Driver/Inc/stm32f7xx_ll_bus.h ****   *         AHB1LPENR    ETHMACTXLPEN   LL_AHB1_GRP1_DisableClockLowPower\n
 625:Drivers/STM32F7xx_HAL_Driver/Inc/stm32f7xx_ll_bus.h ****   *         AHB1LPENR    ETHMACRXLPEN   LL_AHB1_GRP1_DisableClockLowPower\n
 626:Drivers/STM32F7xx_HAL_Driver/Inc/stm32f7xx_ll_bus.h ****   *         AHB1LPENR    ETHMACPTPLPEN  LL_AHB1_GRP1_DisableClockLowPower\n
 627:Drivers/STM32F7xx_HAL_Driver/Inc/stm32f7xx_ll_bus.h ****   *         AHB1LPENR    OTGHSLPEN      LL_AHB1_GRP1_DisableClockLowPower\n
 628:Drivers/STM32F7xx_HAL_Driver/Inc/stm32f7xx_ll_bus.h ****   *         AHB1LPENR    OTGHSULPILPEN  LL_AHB1_GRP1_DisableClockLowPower
 629:Drivers/STM32F7xx_HAL_Driver/Inc/stm32f7xx_ll_bus.h ****   * @param  Periphs This parameter can be a combination of the following values:
 630:Drivers/STM32F7xx_HAL_Driver/Inc/stm32f7xx_ll_bus.h ****   *         @arg @ref LL_AHB1_GRP1_PERIPH_GPIOA
 631:Drivers/STM32F7xx_HAL_Driver/Inc/stm32f7xx_ll_bus.h ****   *         @arg @ref LL_AHB1_GRP1_PERIPH_GPIOB
 632:Drivers/STM32F7xx_HAL_Driver/Inc/stm32f7xx_ll_bus.h ****   *         @arg @ref LL_AHB1_GRP1_PERIPH_GPIOC
 633:Drivers/STM32F7xx_HAL_Driver/Inc/stm32f7xx_ll_bus.h ****   *         @arg @ref LL_AHB1_GRP1_PERIPH_GPIOD
 634:Drivers/STM32F7xx_HAL_Driver/Inc/stm32f7xx_ll_bus.h ****   *         @arg @ref LL_AHB1_GRP1_PERIPH_GPIOE
 635:Drivers/STM32F7xx_HAL_Driver/Inc/stm32f7xx_ll_bus.h ****   *         @arg @ref LL_AHB1_GRP1_PERIPH_GPIOF
 636:Drivers/STM32F7xx_HAL_Driver/Inc/stm32f7xx_ll_bus.h ****   *         @arg @ref LL_AHB1_GRP1_PERIPH_GPIOG
 637:Drivers/STM32F7xx_HAL_Driver/Inc/stm32f7xx_ll_bus.h ****   *         @arg @ref LL_AHB1_GRP1_PERIPH_GPIOH
 638:Drivers/STM32F7xx_HAL_Driver/Inc/stm32f7xx_ll_bus.h ****   *         @arg @ref LL_AHB1_GRP1_PERIPH_GPIOI
 639:Drivers/STM32F7xx_HAL_Driver/Inc/stm32f7xx_ll_bus.h ****   *         @arg @ref LL_AHB1_GRP1_PERIPH_GPIOJ (*)
 640:Drivers/STM32F7xx_HAL_Driver/Inc/stm32f7xx_ll_bus.h ****   *         @arg @ref LL_AHB1_GRP1_PERIPH_GPIOK (*)
 641:Drivers/STM32F7xx_HAL_Driver/Inc/stm32f7xx_ll_bus.h ****   *         @arg @ref LL_AHB1_GRP1_PERIPH_CRC
 642:Drivers/STM32F7xx_HAL_Driver/Inc/stm32f7xx_ll_bus.h ****   *         @arg @ref LL_AHB1_GRP1_PERIPH_AXI
 643:Drivers/STM32F7xx_HAL_Driver/Inc/stm32f7xx_ll_bus.h ****   *         @arg @ref LL_AHB1_GRP1_PERIPH_FLITF
 644:Drivers/STM32F7xx_HAL_Driver/Inc/stm32f7xx_ll_bus.h ****   *         @arg @ref LL_AHB1_GRP1_PERIPH_SRAM1
 645:Drivers/STM32F7xx_HAL_Driver/Inc/stm32f7xx_ll_bus.h ****   *         @arg @ref LL_AHB1_GRP1_PERIPH_SRAM2
 646:Drivers/STM32F7xx_HAL_Driver/Inc/stm32f7xx_ll_bus.h ****   *         @arg @ref LL_AHB1_GRP1_PERIPH_BKPSRAM
 647:Drivers/STM32F7xx_HAL_Driver/Inc/stm32f7xx_ll_bus.h ****   *         @arg @ref LL_AHB1_GRP1_PERIPH_DTCMRAM
ARM GAS  C:\Users\Giorgio\AppData\Local\Temp\ccpuEN3p.s 			page 32


 648:Drivers/STM32F7xx_HAL_Driver/Inc/stm32f7xx_ll_bus.h ****   *         @arg @ref LL_AHB1_GRP1_PERIPH_DMA1
 649:Drivers/STM32F7xx_HAL_Driver/Inc/stm32f7xx_ll_bus.h ****   *         @arg @ref LL_AHB1_GRP1_PERIPH_DMA2
 650:Drivers/STM32F7xx_HAL_Driver/Inc/stm32f7xx_ll_bus.h ****   *         @arg @ref LL_AHB1_GRP1_PERIPH_DMA2D (*)
 651:Drivers/STM32F7xx_HAL_Driver/Inc/stm32f7xx_ll_bus.h ****   *         @arg @ref LL_AHB1_GRP1_PERIPH_ETHMAC (*)
 652:Drivers/STM32F7xx_HAL_Driver/Inc/stm32f7xx_ll_bus.h ****   *         @arg @ref LL_AHB1_GRP1_PERIPH_ETHMACTX (*)
 653:Drivers/STM32F7xx_HAL_Driver/Inc/stm32f7xx_ll_bus.h ****   *         @arg @ref LL_AHB1_GRP1_PERIPH_ETHMACRX (*)
 654:Drivers/STM32F7xx_HAL_Driver/Inc/stm32f7xx_ll_bus.h ****   *         @arg @ref LL_AHB1_GRP1_PERIPH_ETHMACPTP (*)
 655:Drivers/STM32F7xx_HAL_Driver/Inc/stm32f7xx_ll_bus.h ****   *         @arg @ref LL_AHB1_GRP1_PERIPH_OTGHS
 656:Drivers/STM32F7xx_HAL_Driver/Inc/stm32f7xx_ll_bus.h ****   *         @arg @ref LL_AHB1_GRP1_PERIPH_OTGHSULPI
 657:Drivers/STM32F7xx_HAL_Driver/Inc/stm32f7xx_ll_bus.h ****   *
 658:Drivers/STM32F7xx_HAL_Driver/Inc/stm32f7xx_ll_bus.h ****   *         (*) value not defined in all devices.
 659:Drivers/STM32F7xx_HAL_Driver/Inc/stm32f7xx_ll_bus.h ****   * @retval None
 660:Drivers/STM32F7xx_HAL_Driver/Inc/stm32f7xx_ll_bus.h **** */
 661:Drivers/STM32F7xx_HAL_Driver/Inc/stm32f7xx_ll_bus.h **** __STATIC_INLINE void LL_AHB1_GRP1_DisableClockLowPower(uint32_t Periphs)
 662:Drivers/STM32F7xx_HAL_Driver/Inc/stm32f7xx_ll_bus.h **** {
 663:Drivers/STM32F7xx_HAL_Driver/Inc/stm32f7xx_ll_bus.h ****   CLEAR_BIT(RCC->AHB1LPENR, Periphs);
 664:Drivers/STM32F7xx_HAL_Driver/Inc/stm32f7xx_ll_bus.h **** }
 665:Drivers/STM32F7xx_HAL_Driver/Inc/stm32f7xx_ll_bus.h **** 
 666:Drivers/STM32F7xx_HAL_Driver/Inc/stm32f7xx_ll_bus.h **** /**
 667:Drivers/STM32F7xx_HAL_Driver/Inc/stm32f7xx_ll_bus.h ****   * @}
 668:Drivers/STM32F7xx_HAL_Driver/Inc/stm32f7xx_ll_bus.h ****   */
 669:Drivers/STM32F7xx_HAL_Driver/Inc/stm32f7xx_ll_bus.h **** 
 670:Drivers/STM32F7xx_HAL_Driver/Inc/stm32f7xx_ll_bus.h **** /** @defgroup BUS_LL_EF_AHB2 AHB2
 671:Drivers/STM32F7xx_HAL_Driver/Inc/stm32f7xx_ll_bus.h ****   * @{
 672:Drivers/STM32F7xx_HAL_Driver/Inc/stm32f7xx_ll_bus.h ****   */
 673:Drivers/STM32F7xx_HAL_Driver/Inc/stm32f7xx_ll_bus.h **** 
 674:Drivers/STM32F7xx_HAL_Driver/Inc/stm32f7xx_ll_bus.h **** /**
 675:Drivers/STM32F7xx_HAL_Driver/Inc/stm32f7xx_ll_bus.h ****   * @brief  Enable AHB2 peripherals clock.
 676:Drivers/STM32F7xx_HAL_Driver/Inc/stm32f7xx_ll_bus.h ****   * @rmtoll AHB2ENR      DCMIEN       LL_AHB2_GRP1_EnableClock\n
 677:Drivers/STM32F7xx_HAL_Driver/Inc/stm32f7xx_ll_bus.h ****   *         AHB2ENR      JPEGEN       LL_AHB2_GRP1_EnableClock\n
 678:Drivers/STM32F7xx_HAL_Driver/Inc/stm32f7xx_ll_bus.h ****   *         AHB2ENR      CRYPEN       LL_AHB2_GRP1_EnableClock\n
 679:Drivers/STM32F7xx_HAL_Driver/Inc/stm32f7xx_ll_bus.h ****   *         AHB2ENR      AESEN        LL_AHB2_GRP1_EnableClock\n
 680:Drivers/STM32F7xx_HAL_Driver/Inc/stm32f7xx_ll_bus.h ****   *         AHB2ENR      HASHEN       LL_AHB2_GRP1_EnableClock\n
 681:Drivers/STM32F7xx_HAL_Driver/Inc/stm32f7xx_ll_bus.h ****   *         AHB2ENR      RNGEN        LL_AHB2_GRP1_EnableClock\n
 682:Drivers/STM32F7xx_HAL_Driver/Inc/stm32f7xx_ll_bus.h ****   *         AHB2ENR      OTGFSEN      LL_AHB2_GRP1_EnableClock
 683:Drivers/STM32F7xx_HAL_Driver/Inc/stm32f7xx_ll_bus.h ****   * @param  Periphs This parameter can be a combination of the following values:
 684:Drivers/STM32F7xx_HAL_Driver/Inc/stm32f7xx_ll_bus.h ****   *         @arg @ref LL_AHB2_GRP1_PERIPH_DCMI (*)
 685:Drivers/STM32F7xx_HAL_Driver/Inc/stm32f7xx_ll_bus.h ****   *         @arg @ref LL_AHB2_GRP1_PERIPH_JPEG (*)
 686:Drivers/STM32F7xx_HAL_Driver/Inc/stm32f7xx_ll_bus.h ****   *         @arg @ref LL_AHB2_GRP1_PERIPH_CRYP (*)
 687:Drivers/STM32F7xx_HAL_Driver/Inc/stm32f7xx_ll_bus.h ****   *         @arg @ref LL_AHB2_GRP1_PERIPH_AES  (*)
 688:Drivers/STM32F7xx_HAL_Driver/Inc/stm32f7xx_ll_bus.h ****   *         @arg @ref LL_AHB2_GRP1_PERIPH_HASH (*)
 689:Drivers/STM32F7xx_HAL_Driver/Inc/stm32f7xx_ll_bus.h ****   *         @arg @ref LL_AHB2_GRP1_PERIPH_RNG
 690:Drivers/STM32F7xx_HAL_Driver/Inc/stm32f7xx_ll_bus.h ****   *         @arg @ref LL_AHB2_GRP1_PERIPH_OTGFS
 691:Drivers/STM32F7xx_HAL_Driver/Inc/stm32f7xx_ll_bus.h ****   *
 692:Drivers/STM32F7xx_HAL_Driver/Inc/stm32f7xx_ll_bus.h ****   *         (*) value not defined in all devices.
 693:Drivers/STM32F7xx_HAL_Driver/Inc/stm32f7xx_ll_bus.h ****   * @retval None
 694:Drivers/STM32F7xx_HAL_Driver/Inc/stm32f7xx_ll_bus.h **** */
 695:Drivers/STM32F7xx_HAL_Driver/Inc/stm32f7xx_ll_bus.h **** __STATIC_INLINE void LL_AHB2_GRP1_EnableClock(uint32_t Periphs)
 696:Drivers/STM32F7xx_HAL_Driver/Inc/stm32f7xx_ll_bus.h **** {
 697:Drivers/STM32F7xx_HAL_Driver/Inc/stm32f7xx_ll_bus.h ****   __IO uint32_t tmpreg;
 698:Drivers/STM32F7xx_HAL_Driver/Inc/stm32f7xx_ll_bus.h ****   SET_BIT(RCC->AHB2ENR, Periphs);
 699:Drivers/STM32F7xx_HAL_Driver/Inc/stm32f7xx_ll_bus.h ****   /* Delay after an RCC peripheral clock enabling */
 700:Drivers/STM32F7xx_HAL_Driver/Inc/stm32f7xx_ll_bus.h ****   tmpreg = READ_BIT(RCC->AHB2ENR, Periphs);
 701:Drivers/STM32F7xx_HAL_Driver/Inc/stm32f7xx_ll_bus.h ****   (void)tmpreg;
 702:Drivers/STM32F7xx_HAL_Driver/Inc/stm32f7xx_ll_bus.h **** }
 703:Drivers/STM32F7xx_HAL_Driver/Inc/stm32f7xx_ll_bus.h **** 
 704:Drivers/STM32F7xx_HAL_Driver/Inc/stm32f7xx_ll_bus.h **** /**
ARM GAS  C:\Users\Giorgio\AppData\Local\Temp\ccpuEN3p.s 			page 33


 705:Drivers/STM32F7xx_HAL_Driver/Inc/stm32f7xx_ll_bus.h ****   * @brief  Check if AHB2 peripheral clock is enabled or not
 706:Drivers/STM32F7xx_HAL_Driver/Inc/stm32f7xx_ll_bus.h ****   * @rmtoll AHB2ENR      DCMIEN       LL_AHB2_GRP1_IsEnabledClock\n
 707:Drivers/STM32F7xx_HAL_Driver/Inc/stm32f7xx_ll_bus.h ****   *         AHB2ENR      JPEGEN       LL_AHB2_GRP1_IsEnabledClock\n
 708:Drivers/STM32F7xx_HAL_Driver/Inc/stm32f7xx_ll_bus.h ****   *         AHB2ENR      CRYPEN       LL_AHB2_GRP1_IsEnabledClock\n
 709:Drivers/STM32F7xx_HAL_Driver/Inc/stm32f7xx_ll_bus.h ****   *         AHB2ENR      AESEN        LL_AHB2_GRP1_IsEnabledClock\n
 710:Drivers/STM32F7xx_HAL_Driver/Inc/stm32f7xx_ll_bus.h ****   *         AHB2ENR      HASHEN       LL_AHB2_GRP1_IsEnabledClock\n
 711:Drivers/STM32F7xx_HAL_Driver/Inc/stm32f7xx_ll_bus.h ****   *         AHB2ENR      RNGEN        LL_AHB2_GRP1_IsEnabledClock\n
 712:Drivers/STM32F7xx_HAL_Driver/Inc/stm32f7xx_ll_bus.h ****   *         AHB2ENR      OTGFSEN      LL_AHB2_GRP1_IsEnabledClock
 713:Drivers/STM32F7xx_HAL_Driver/Inc/stm32f7xx_ll_bus.h ****   * @param  Periphs This parameter can be a combination of the following values:
 714:Drivers/STM32F7xx_HAL_Driver/Inc/stm32f7xx_ll_bus.h ****   *         @arg @ref LL_AHB2_GRP1_PERIPH_DCMI (*)
 715:Drivers/STM32F7xx_HAL_Driver/Inc/stm32f7xx_ll_bus.h ****   *         @arg @ref LL_AHB2_GRP1_PERIPH_JPEG (*)
 716:Drivers/STM32F7xx_HAL_Driver/Inc/stm32f7xx_ll_bus.h ****   *         @arg @ref LL_AHB2_GRP1_PERIPH_CRYP (*)
 717:Drivers/STM32F7xx_HAL_Driver/Inc/stm32f7xx_ll_bus.h ****   *         @arg @ref LL_AHB2_GRP1_PERIPH_AES  (*)
 718:Drivers/STM32F7xx_HAL_Driver/Inc/stm32f7xx_ll_bus.h ****   *         @arg @ref LL_AHB2_GRP1_PERIPH_HASH (*)
 719:Drivers/STM32F7xx_HAL_Driver/Inc/stm32f7xx_ll_bus.h ****   *         @arg @ref LL_AHB2_GRP1_PERIPH_RNG
 720:Drivers/STM32F7xx_HAL_Driver/Inc/stm32f7xx_ll_bus.h ****   *         @arg @ref LL_AHB2_GRP1_PERIPH_OTGFS
 721:Drivers/STM32F7xx_HAL_Driver/Inc/stm32f7xx_ll_bus.h ****   *
 722:Drivers/STM32F7xx_HAL_Driver/Inc/stm32f7xx_ll_bus.h ****   *         (*) value not defined in all devices.
 723:Drivers/STM32F7xx_HAL_Driver/Inc/stm32f7xx_ll_bus.h ****   * @retval State of Periphs (1 or 0).
 724:Drivers/STM32F7xx_HAL_Driver/Inc/stm32f7xx_ll_bus.h **** */
 725:Drivers/STM32F7xx_HAL_Driver/Inc/stm32f7xx_ll_bus.h **** __STATIC_INLINE uint32_t LL_AHB2_GRP1_IsEnabledClock(uint32_t Periphs)
 726:Drivers/STM32F7xx_HAL_Driver/Inc/stm32f7xx_ll_bus.h **** {
 727:Drivers/STM32F7xx_HAL_Driver/Inc/stm32f7xx_ll_bus.h ****   return (READ_BIT(RCC->AHB2ENR, Periphs) == Periphs);
 728:Drivers/STM32F7xx_HAL_Driver/Inc/stm32f7xx_ll_bus.h **** }
 729:Drivers/STM32F7xx_HAL_Driver/Inc/stm32f7xx_ll_bus.h **** 
 730:Drivers/STM32F7xx_HAL_Driver/Inc/stm32f7xx_ll_bus.h **** /**
 731:Drivers/STM32F7xx_HAL_Driver/Inc/stm32f7xx_ll_bus.h ****   * @brief  Disable AHB2 peripherals clock.
 732:Drivers/STM32F7xx_HAL_Driver/Inc/stm32f7xx_ll_bus.h ****   * @rmtoll AHB2ENR      DCMIEN       LL_AHB2_GRP1_DisableClock\n
 733:Drivers/STM32F7xx_HAL_Driver/Inc/stm32f7xx_ll_bus.h ****   *         AHB2ENR      JPEGEN       LL_AHB2_GRP1_DisableClock\n
 734:Drivers/STM32F7xx_HAL_Driver/Inc/stm32f7xx_ll_bus.h ****   *         AHB2ENR      CRYPEN       LL_AHB2_GRP1_DisableClock\n
 735:Drivers/STM32F7xx_HAL_Driver/Inc/stm32f7xx_ll_bus.h ****   *         AHB2ENR      AESEN        LL_AHB2_GRP1_DisableClock\n
 736:Drivers/STM32F7xx_HAL_Driver/Inc/stm32f7xx_ll_bus.h ****   *         AHB2ENR      HASHEN       LL_AHB2_GRP1_DisableClock\n
 737:Drivers/STM32F7xx_HAL_Driver/Inc/stm32f7xx_ll_bus.h ****   *         AHB2ENR      RNGEN        LL_AHB2_GRP1_DisableClock\n
 738:Drivers/STM32F7xx_HAL_Driver/Inc/stm32f7xx_ll_bus.h ****   *         AHB2ENR      OTGFSEN      LL_AHB2_GRP1_DisableClock
 739:Drivers/STM32F7xx_HAL_Driver/Inc/stm32f7xx_ll_bus.h ****   * @param  Periphs This parameter can be a combination of the following values:
 740:Drivers/STM32F7xx_HAL_Driver/Inc/stm32f7xx_ll_bus.h ****   *         @arg @ref LL_AHB2_GRP1_PERIPH_DCMI (*)
 741:Drivers/STM32F7xx_HAL_Driver/Inc/stm32f7xx_ll_bus.h ****   *         @arg @ref LL_AHB2_GRP1_PERIPH_JPEG (*)
 742:Drivers/STM32F7xx_HAL_Driver/Inc/stm32f7xx_ll_bus.h ****   *         @arg @ref LL_AHB2_GRP1_PERIPH_CRYP (*)
 743:Drivers/STM32F7xx_HAL_Driver/Inc/stm32f7xx_ll_bus.h ****   *         @arg @ref LL_AHB2_GRP1_PERIPH_AES  (*)
 744:Drivers/STM32F7xx_HAL_Driver/Inc/stm32f7xx_ll_bus.h ****   *         @arg @ref LL_AHB2_GRP1_PERIPH_HASH (*)
 745:Drivers/STM32F7xx_HAL_Driver/Inc/stm32f7xx_ll_bus.h ****   *         @arg @ref LL_AHB2_GRP1_PERIPH_RNG
 746:Drivers/STM32F7xx_HAL_Driver/Inc/stm32f7xx_ll_bus.h ****   *         @arg @ref LL_AHB2_GRP1_PERIPH_OTGFS
 747:Drivers/STM32F7xx_HAL_Driver/Inc/stm32f7xx_ll_bus.h ****   *
 748:Drivers/STM32F7xx_HAL_Driver/Inc/stm32f7xx_ll_bus.h ****   *         (*) value not defined in all devices.
 749:Drivers/STM32F7xx_HAL_Driver/Inc/stm32f7xx_ll_bus.h ****   * @retval None
 750:Drivers/STM32F7xx_HAL_Driver/Inc/stm32f7xx_ll_bus.h **** */
 751:Drivers/STM32F7xx_HAL_Driver/Inc/stm32f7xx_ll_bus.h **** __STATIC_INLINE void LL_AHB2_GRP1_DisableClock(uint32_t Periphs)
 752:Drivers/STM32F7xx_HAL_Driver/Inc/stm32f7xx_ll_bus.h **** {
 753:Drivers/STM32F7xx_HAL_Driver/Inc/stm32f7xx_ll_bus.h ****   CLEAR_BIT(RCC->AHB2ENR, Periphs);
 754:Drivers/STM32F7xx_HAL_Driver/Inc/stm32f7xx_ll_bus.h **** }
 755:Drivers/STM32F7xx_HAL_Driver/Inc/stm32f7xx_ll_bus.h **** 
 756:Drivers/STM32F7xx_HAL_Driver/Inc/stm32f7xx_ll_bus.h **** /**
 757:Drivers/STM32F7xx_HAL_Driver/Inc/stm32f7xx_ll_bus.h ****   * @brief  Force AHB2 peripherals reset.
 758:Drivers/STM32F7xx_HAL_Driver/Inc/stm32f7xx_ll_bus.h ****   * @rmtoll AHB2RSTR     DCMIRST      LL_AHB2_GRP1_ForceReset\n
 759:Drivers/STM32F7xx_HAL_Driver/Inc/stm32f7xx_ll_bus.h ****   *         AHB2RSTR     JPEGRST      LL_AHB2_GRP1_ForceReset\n
 760:Drivers/STM32F7xx_HAL_Driver/Inc/stm32f7xx_ll_bus.h ****   *         AHB2RSTR     CRYPRST      LL_AHB2_GRP1_ForceReset\n
 761:Drivers/STM32F7xx_HAL_Driver/Inc/stm32f7xx_ll_bus.h ****   *         AHB2RSTR     AESRST       LL_AHB2_GRP1_ForceReset\n
ARM GAS  C:\Users\Giorgio\AppData\Local\Temp\ccpuEN3p.s 			page 34


 762:Drivers/STM32F7xx_HAL_Driver/Inc/stm32f7xx_ll_bus.h ****   *         AHB2RSTR     HASHRST      LL_AHB2_GRP1_ForceReset\n
 763:Drivers/STM32F7xx_HAL_Driver/Inc/stm32f7xx_ll_bus.h ****   *         AHB2RSTR     RNGRST       LL_AHB2_GRP1_ForceReset\n
 764:Drivers/STM32F7xx_HAL_Driver/Inc/stm32f7xx_ll_bus.h ****   *         AHB2RSTR     OTGFSRST     LL_AHB2_GRP1_ForceReset
 765:Drivers/STM32F7xx_HAL_Driver/Inc/stm32f7xx_ll_bus.h ****   * @param  Periphs This parameter can be a combination of the following values:
 766:Drivers/STM32F7xx_HAL_Driver/Inc/stm32f7xx_ll_bus.h ****   *         @arg @ref LL_AHB2_GRP1_PERIPH_ALL
 767:Drivers/STM32F7xx_HAL_Driver/Inc/stm32f7xx_ll_bus.h ****   *         @arg @ref LL_AHB2_GRP1_PERIPH_DCMI (*)
 768:Drivers/STM32F7xx_HAL_Driver/Inc/stm32f7xx_ll_bus.h ****   *         @arg @ref LL_AHB2_GRP1_PERIPH_JPEG (*)
 769:Drivers/STM32F7xx_HAL_Driver/Inc/stm32f7xx_ll_bus.h ****   *         @arg @ref LL_AHB2_GRP1_PERIPH_CRYP (*)
 770:Drivers/STM32F7xx_HAL_Driver/Inc/stm32f7xx_ll_bus.h ****   *         @arg @ref LL_AHB2_GRP1_PERIPH_AES  (*)
 771:Drivers/STM32F7xx_HAL_Driver/Inc/stm32f7xx_ll_bus.h ****   *         @arg @ref LL_AHB2_GRP1_PERIPH_HASH (*)
 772:Drivers/STM32F7xx_HAL_Driver/Inc/stm32f7xx_ll_bus.h ****   *         @arg @ref LL_AHB2_GRP1_PERIPH_RNG
 773:Drivers/STM32F7xx_HAL_Driver/Inc/stm32f7xx_ll_bus.h ****   *         @arg @ref LL_AHB2_GRP1_PERIPH_OTGFS
 774:Drivers/STM32F7xx_HAL_Driver/Inc/stm32f7xx_ll_bus.h ****   *
 775:Drivers/STM32F7xx_HAL_Driver/Inc/stm32f7xx_ll_bus.h ****   *         (*) value not defined in all devices.
 776:Drivers/STM32F7xx_HAL_Driver/Inc/stm32f7xx_ll_bus.h ****   * @retval None
 777:Drivers/STM32F7xx_HAL_Driver/Inc/stm32f7xx_ll_bus.h **** */
 778:Drivers/STM32F7xx_HAL_Driver/Inc/stm32f7xx_ll_bus.h **** __STATIC_INLINE void LL_AHB2_GRP1_ForceReset(uint32_t Periphs)
 779:Drivers/STM32F7xx_HAL_Driver/Inc/stm32f7xx_ll_bus.h **** {
 780:Drivers/STM32F7xx_HAL_Driver/Inc/stm32f7xx_ll_bus.h ****   SET_BIT(RCC->AHB2RSTR, Periphs);
 781:Drivers/STM32F7xx_HAL_Driver/Inc/stm32f7xx_ll_bus.h **** }
 782:Drivers/STM32F7xx_HAL_Driver/Inc/stm32f7xx_ll_bus.h **** 
 783:Drivers/STM32F7xx_HAL_Driver/Inc/stm32f7xx_ll_bus.h **** /**
 784:Drivers/STM32F7xx_HAL_Driver/Inc/stm32f7xx_ll_bus.h ****   * @brief  Release AHB2 peripherals reset.
 785:Drivers/STM32F7xx_HAL_Driver/Inc/stm32f7xx_ll_bus.h ****   * @rmtoll AHB2RSTR     DCMIRST      LL_AHB2_GRP1_ReleaseReset\n
 786:Drivers/STM32F7xx_HAL_Driver/Inc/stm32f7xx_ll_bus.h ****   *         AHB2RSTR     JPEGRST      LL_AHB2_GRP1_ReleaseReset\n
 787:Drivers/STM32F7xx_HAL_Driver/Inc/stm32f7xx_ll_bus.h ****   *         AHB2RSTR     CRYPRST      LL_AHB2_GRP1_ReleaseReset\n
 788:Drivers/STM32F7xx_HAL_Driver/Inc/stm32f7xx_ll_bus.h ****   *         AHB2RSTR     AESRST       LL_AHB2_GRP1_ReleaseReset\n
 789:Drivers/STM32F7xx_HAL_Driver/Inc/stm32f7xx_ll_bus.h ****   *         AHB2RSTR     HASHRST      LL_AHB2_GRP1_ReleaseReset\n
 790:Drivers/STM32F7xx_HAL_Driver/Inc/stm32f7xx_ll_bus.h ****   *         AHB2RSTR     RNGRST       LL_AHB2_GRP1_ReleaseReset\n
 791:Drivers/STM32F7xx_HAL_Driver/Inc/stm32f7xx_ll_bus.h ****   *         AHB2RSTR     OTGFSRST     LL_AHB2_GRP1_ReleaseReset
 792:Drivers/STM32F7xx_HAL_Driver/Inc/stm32f7xx_ll_bus.h ****   * @param  Periphs This parameter can be a combination of the following values:
 793:Drivers/STM32F7xx_HAL_Driver/Inc/stm32f7xx_ll_bus.h ****   *         @arg @ref LL_AHB2_GRP1_PERIPH_ALL
 794:Drivers/STM32F7xx_HAL_Driver/Inc/stm32f7xx_ll_bus.h ****   *         @arg @ref LL_AHB2_GRP1_PERIPH_DCMI (*)
 795:Drivers/STM32F7xx_HAL_Driver/Inc/stm32f7xx_ll_bus.h ****   *         @arg @ref LL_AHB2_GRP1_PERIPH_JPEG (*)
 796:Drivers/STM32F7xx_HAL_Driver/Inc/stm32f7xx_ll_bus.h ****   *         @arg @ref LL_AHB2_GRP1_PERIPH_CRYP (*)
 797:Drivers/STM32F7xx_HAL_Driver/Inc/stm32f7xx_ll_bus.h ****   *         @arg @ref LL_AHB2_GRP1_PERIPH_AES  (*)
 798:Drivers/STM32F7xx_HAL_Driver/Inc/stm32f7xx_ll_bus.h ****   *         @arg @ref LL_AHB2_GRP1_PERIPH_HASH (*)
 799:Drivers/STM32F7xx_HAL_Driver/Inc/stm32f7xx_ll_bus.h ****   *         @arg @ref LL_AHB2_GRP1_PERIPH_RNG
 800:Drivers/STM32F7xx_HAL_Driver/Inc/stm32f7xx_ll_bus.h ****   *         @arg @ref LL_AHB2_GRP1_PERIPH_OTGFS
 801:Drivers/STM32F7xx_HAL_Driver/Inc/stm32f7xx_ll_bus.h ****   *
 802:Drivers/STM32F7xx_HAL_Driver/Inc/stm32f7xx_ll_bus.h ****   *         (*) value not defined in all devices.
 803:Drivers/STM32F7xx_HAL_Driver/Inc/stm32f7xx_ll_bus.h ****   * @retval None
 804:Drivers/STM32F7xx_HAL_Driver/Inc/stm32f7xx_ll_bus.h **** */
 805:Drivers/STM32F7xx_HAL_Driver/Inc/stm32f7xx_ll_bus.h **** __STATIC_INLINE void LL_AHB2_GRP1_ReleaseReset(uint32_t Periphs)
 806:Drivers/STM32F7xx_HAL_Driver/Inc/stm32f7xx_ll_bus.h **** {
 807:Drivers/STM32F7xx_HAL_Driver/Inc/stm32f7xx_ll_bus.h ****   CLEAR_BIT(RCC->AHB2RSTR, Periphs);
 808:Drivers/STM32F7xx_HAL_Driver/Inc/stm32f7xx_ll_bus.h **** }
 809:Drivers/STM32F7xx_HAL_Driver/Inc/stm32f7xx_ll_bus.h **** 
 810:Drivers/STM32F7xx_HAL_Driver/Inc/stm32f7xx_ll_bus.h **** /**
 811:Drivers/STM32F7xx_HAL_Driver/Inc/stm32f7xx_ll_bus.h ****   * @brief  Enable AHB2 peripheral clocks in low-power mode
 812:Drivers/STM32F7xx_HAL_Driver/Inc/stm32f7xx_ll_bus.h ****   * @rmtoll AHB2LPENR    DCMILPEN     LL_AHB2_GRP1_EnableClockLowPower\n
 813:Drivers/STM32F7xx_HAL_Driver/Inc/stm32f7xx_ll_bus.h ****   *         AHB2LPENR    JPEGLPEN     LL_AHB2_GRP1_EnableClockLowPower\n
 814:Drivers/STM32F7xx_HAL_Driver/Inc/stm32f7xx_ll_bus.h ****   *         AHB2LPENR    CRYPLPEN     LL_AHB2_GRP1_EnableClockLowPower\n
 815:Drivers/STM32F7xx_HAL_Driver/Inc/stm32f7xx_ll_bus.h ****   *         AHB2LPENR    AESLPEN      LL_AHB2_GRP1_EnableClockLowPower\n
 816:Drivers/STM32F7xx_HAL_Driver/Inc/stm32f7xx_ll_bus.h ****   *         AHB2LPENR    HASHLPEN     LL_AHB2_GRP1_EnableClockLowPower\n
 817:Drivers/STM32F7xx_HAL_Driver/Inc/stm32f7xx_ll_bus.h ****   *         AHB2LPENR    RNGLPEN      LL_AHB2_GRP1_EnableClockLowPower\n
 818:Drivers/STM32F7xx_HAL_Driver/Inc/stm32f7xx_ll_bus.h ****   *         AHB2LPENR    OTGFSLPEN    LL_AHB2_GRP1_EnableClockLowPower
ARM GAS  C:\Users\Giorgio\AppData\Local\Temp\ccpuEN3p.s 			page 35


 819:Drivers/STM32F7xx_HAL_Driver/Inc/stm32f7xx_ll_bus.h ****   * @param  Periphs This parameter can be a combination of the following values:
 820:Drivers/STM32F7xx_HAL_Driver/Inc/stm32f7xx_ll_bus.h ****   *         @arg @ref LL_AHB2_GRP1_PERIPH_DCMI (*)
 821:Drivers/STM32F7xx_HAL_Driver/Inc/stm32f7xx_ll_bus.h ****   *         @arg @ref LL_AHB2_GRP1_PERIPH_JPEG (*)
 822:Drivers/STM32F7xx_HAL_Driver/Inc/stm32f7xx_ll_bus.h ****   *         @arg @ref LL_AHB2_GRP1_PERIPH_CRYP (*)
 823:Drivers/STM32F7xx_HAL_Driver/Inc/stm32f7xx_ll_bus.h ****   *         @arg @ref LL_AHB2_GRP1_PERIPH_AES  (*)
 824:Drivers/STM32F7xx_HAL_Driver/Inc/stm32f7xx_ll_bus.h ****   *         @arg @ref LL_AHB2_GRP1_PERIPH_HASH (*)
 825:Drivers/STM32F7xx_HAL_Driver/Inc/stm32f7xx_ll_bus.h ****   *         @arg @ref LL_AHB2_GRP1_PERIPH_RNG
 826:Drivers/STM32F7xx_HAL_Driver/Inc/stm32f7xx_ll_bus.h ****   *         @arg @ref LL_AHB2_GRP1_PERIPH_OTGFS
 827:Drivers/STM32F7xx_HAL_Driver/Inc/stm32f7xx_ll_bus.h ****   *
 828:Drivers/STM32F7xx_HAL_Driver/Inc/stm32f7xx_ll_bus.h ****   *         (*) value not defined in all devices.
 829:Drivers/STM32F7xx_HAL_Driver/Inc/stm32f7xx_ll_bus.h ****   * @retval None
 830:Drivers/STM32F7xx_HAL_Driver/Inc/stm32f7xx_ll_bus.h **** */
 831:Drivers/STM32F7xx_HAL_Driver/Inc/stm32f7xx_ll_bus.h **** __STATIC_INLINE void LL_AHB2_GRP1_EnableClockLowPower(uint32_t Periphs)
 832:Drivers/STM32F7xx_HAL_Driver/Inc/stm32f7xx_ll_bus.h **** {
 833:Drivers/STM32F7xx_HAL_Driver/Inc/stm32f7xx_ll_bus.h ****   __IO uint32_t tmpreg;
 834:Drivers/STM32F7xx_HAL_Driver/Inc/stm32f7xx_ll_bus.h ****   SET_BIT(RCC->AHB2LPENR, Periphs);
 835:Drivers/STM32F7xx_HAL_Driver/Inc/stm32f7xx_ll_bus.h ****   /* Delay after an RCC peripheral clock enabling */
 836:Drivers/STM32F7xx_HAL_Driver/Inc/stm32f7xx_ll_bus.h ****   tmpreg = READ_BIT(RCC->AHB2LPENR, Periphs);
 837:Drivers/STM32F7xx_HAL_Driver/Inc/stm32f7xx_ll_bus.h ****   (void)tmpreg;
 838:Drivers/STM32F7xx_HAL_Driver/Inc/stm32f7xx_ll_bus.h **** }
 839:Drivers/STM32F7xx_HAL_Driver/Inc/stm32f7xx_ll_bus.h **** 
 840:Drivers/STM32F7xx_HAL_Driver/Inc/stm32f7xx_ll_bus.h **** /**
 841:Drivers/STM32F7xx_HAL_Driver/Inc/stm32f7xx_ll_bus.h ****   * @brief  Disable AHB2 peripheral clocks in low-power mode
 842:Drivers/STM32F7xx_HAL_Driver/Inc/stm32f7xx_ll_bus.h ****   * @rmtoll AHB2LPENR    DCMILPEN     LL_AHB2_GRP1_DisableClockLowPower\n
 843:Drivers/STM32F7xx_HAL_Driver/Inc/stm32f7xx_ll_bus.h ****   *         AHB2LPENR    JPEGLPEN     LL_AHB2_GRP1_DisableClockLowPower\n
 844:Drivers/STM32F7xx_HAL_Driver/Inc/stm32f7xx_ll_bus.h ****   *         AHB2LPENR    CRYPLPEN     LL_AHB2_GRP1_DisableClockLowPower\n
 845:Drivers/STM32F7xx_HAL_Driver/Inc/stm32f7xx_ll_bus.h ****   *         AHB2LPENR    AESLPEN      LL_AHB2_GRP1_DisableClockLowPower\n
 846:Drivers/STM32F7xx_HAL_Driver/Inc/stm32f7xx_ll_bus.h ****   *         AHB2LPENR    HASHLPEN     LL_AHB2_GRP1_DisableClockLowPower\n
 847:Drivers/STM32F7xx_HAL_Driver/Inc/stm32f7xx_ll_bus.h ****   *         AHB2LPENR    RNGLPEN      LL_AHB2_GRP1_DisableClockLowPower\n
 848:Drivers/STM32F7xx_HAL_Driver/Inc/stm32f7xx_ll_bus.h ****   *         AHB2LPENR    OTGFSLPEN    LL_AHB2_GRP1_DisableClockLowPower
 849:Drivers/STM32F7xx_HAL_Driver/Inc/stm32f7xx_ll_bus.h ****   * @param  Periphs This parameter can be a combination of the following values:
 850:Drivers/STM32F7xx_HAL_Driver/Inc/stm32f7xx_ll_bus.h ****   *         @arg @ref LL_AHB2_GRP1_PERIPH_DCMI (*)
 851:Drivers/STM32F7xx_HAL_Driver/Inc/stm32f7xx_ll_bus.h ****   *         @arg @ref LL_AHB2_GRP1_PERIPH_JPEG (*)
 852:Drivers/STM32F7xx_HAL_Driver/Inc/stm32f7xx_ll_bus.h ****   *         @arg @ref LL_AHB2_GRP1_PERIPH_CRYP (*)
 853:Drivers/STM32F7xx_HAL_Driver/Inc/stm32f7xx_ll_bus.h ****   *         @arg @ref LL_AHB2_GRP1_PERIPH_AES  (*)
 854:Drivers/STM32F7xx_HAL_Driver/Inc/stm32f7xx_ll_bus.h ****   *         @arg @ref LL_AHB2_GRP1_PERIPH_HASH (*)
 855:Drivers/STM32F7xx_HAL_Driver/Inc/stm32f7xx_ll_bus.h ****   *         @arg @ref LL_AHB2_GRP1_PERIPH_RNG
 856:Drivers/STM32F7xx_HAL_Driver/Inc/stm32f7xx_ll_bus.h ****   *         @arg @ref LL_AHB2_GRP1_PERIPH_OTGFS
 857:Drivers/STM32F7xx_HAL_Driver/Inc/stm32f7xx_ll_bus.h ****   *
 858:Drivers/STM32F7xx_HAL_Driver/Inc/stm32f7xx_ll_bus.h ****   *         (*) value not defined in all devices.
 859:Drivers/STM32F7xx_HAL_Driver/Inc/stm32f7xx_ll_bus.h ****   * @retval None
 860:Drivers/STM32F7xx_HAL_Driver/Inc/stm32f7xx_ll_bus.h **** */
 861:Drivers/STM32F7xx_HAL_Driver/Inc/stm32f7xx_ll_bus.h **** __STATIC_INLINE void LL_AHB2_GRP1_DisableClockLowPower(uint32_t Periphs)
 862:Drivers/STM32F7xx_HAL_Driver/Inc/stm32f7xx_ll_bus.h **** {
 863:Drivers/STM32F7xx_HAL_Driver/Inc/stm32f7xx_ll_bus.h ****   CLEAR_BIT(RCC->AHB2LPENR, Periphs);
 864:Drivers/STM32F7xx_HAL_Driver/Inc/stm32f7xx_ll_bus.h **** }
 865:Drivers/STM32F7xx_HAL_Driver/Inc/stm32f7xx_ll_bus.h **** 
 866:Drivers/STM32F7xx_HAL_Driver/Inc/stm32f7xx_ll_bus.h **** /**
 867:Drivers/STM32F7xx_HAL_Driver/Inc/stm32f7xx_ll_bus.h ****   * @}
 868:Drivers/STM32F7xx_HAL_Driver/Inc/stm32f7xx_ll_bus.h ****   */
 869:Drivers/STM32F7xx_HAL_Driver/Inc/stm32f7xx_ll_bus.h **** 
 870:Drivers/STM32F7xx_HAL_Driver/Inc/stm32f7xx_ll_bus.h **** /** @defgroup BUS_LL_EF_AHB3 AHB3
 871:Drivers/STM32F7xx_HAL_Driver/Inc/stm32f7xx_ll_bus.h ****   * @{
 872:Drivers/STM32F7xx_HAL_Driver/Inc/stm32f7xx_ll_bus.h ****   */
 873:Drivers/STM32F7xx_HAL_Driver/Inc/stm32f7xx_ll_bus.h **** 
 874:Drivers/STM32F7xx_HAL_Driver/Inc/stm32f7xx_ll_bus.h **** /**
 875:Drivers/STM32F7xx_HAL_Driver/Inc/stm32f7xx_ll_bus.h ****   * @brief  Enable AHB3 peripherals clock.
ARM GAS  C:\Users\Giorgio\AppData\Local\Temp\ccpuEN3p.s 			page 36


 876:Drivers/STM32F7xx_HAL_Driver/Inc/stm32f7xx_ll_bus.h ****   * @rmtoll AHB3ENR      FMCEN         LL_AHB3_GRP1_EnableClock\n
 877:Drivers/STM32F7xx_HAL_Driver/Inc/stm32f7xx_ll_bus.h ****   *         AHB3ENR      QSPIEN        LL_AHB3_GRP1_EnableClock
 878:Drivers/STM32F7xx_HAL_Driver/Inc/stm32f7xx_ll_bus.h ****   * @param  Periphs This parameter can be a combination of the following values:
 879:Drivers/STM32F7xx_HAL_Driver/Inc/stm32f7xx_ll_bus.h ****   *         @arg @ref LL_AHB3_GRP1_PERIPH_FMC (*)
 880:Drivers/STM32F7xx_HAL_Driver/Inc/stm32f7xx_ll_bus.h ****   *         @arg @ref LL_AHB3_GRP1_PERIPH_QSPI
 881:Drivers/STM32F7xx_HAL_Driver/Inc/stm32f7xx_ll_bus.h ****   *
 882:Drivers/STM32F7xx_HAL_Driver/Inc/stm32f7xx_ll_bus.h ****   *         (*) value not defined in all devices.
 883:Drivers/STM32F7xx_HAL_Driver/Inc/stm32f7xx_ll_bus.h ****   * @retval None
 884:Drivers/STM32F7xx_HAL_Driver/Inc/stm32f7xx_ll_bus.h **** */
 885:Drivers/STM32F7xx_HAL_Driver/Inc/stm32f7xx_ll_bus.h **** __STATIC_INLINE void LL_AHB3_GRP1_EnableClock(uint32_t Periphs)
 886:Drivers/STM32F7xx_HAL_Driver/Inc/stm32f7xx_ll_bus.h **** {
 887:Drivers/STM32F7xx_HAL_Driver/Inc/stm32f7xx_ll_bus.h ****   __IO uint32_t tmpreg;
 888:Drivers/STM32F7xx_HAL_Driver/Inc/stm32f7xx_ll_bus.h ****   SET_BIT(RCC->AHB3ENR, Periphs);
 889:Drivers/STM32F7xx_HAL_Driver/Inc/stm32f7xx_ll_bus.h ****   /* Delay after an RCC peripheral clock enabling */
 890:Drivers/STM32F7xx_HAL_Driver/Inc/stm32f7xx_ll_bus.h ****   tmpreg = READ_BIT(RCC->AHB3ENR, Periphs);
 891:Drivers/STM32F7xx_HAL_Driver/Inc/stm32f7xx_ll_bus.h ****   (void)tmpreg;
 892:Drivers/STM32F7xx_HAL_Driver/Inc/stm32f7xx_ll_bus.h **** }
 893:Drivers/STM32F7xx_HAL_Driver/Inc/stm32f7xx_ll_bus.h **** 
 894:Drivers/STM32F7xx_HAL_Driver/Inc/stm32f7xx_ll_bus.h **** /**
 895:Drivers/STM32F7xx_HAL_Driver/Inc/stm32f7xx_ll_bus.h ****   * @brief  Check if AHB3 peripheral clock is enabled or not
 896:Drivers/STM32F7xx_HAL_Driver/Inc/stm32f7xx_ll_bus.h ****   * @rmtoll AHB3ENR      FMCEN         LL_AHB3_GRP1_IsEnabledClock\n
 897:Drivers/STM32F7xx_HAL_Driver/Inc/stm32f7xx_ll_bus.h ****   *         AHB3ENR      QSPIEN        LL_AHB3_GRP1_IsEnabledClock
 898:Drivers/STM32F7xx_HAL_Driver/Inc/stm32f7xx_ll_bus.h ****   * @param  Periphs This parameter can be a combination of the following values:
 899:Drivers/STM32F7xx_HAL_Driver/Inc/stm32f7xx_ll_bus.h ****   *         @arg @ref LL_AHB3_GRP1_PERIPH_FMC (*)
 900:Drivers/STM32F7xx_HAL_Driver/Inc/stm32f7xx_ll_bus.h ****   *         @arg @ref LL_AHB3_GRP1_PERIPH_QSPI
 901:Drivers/STM32F7xx_HAL_Driver/Inc/stm32f7xx_ll_bus.h ****   *
 902:Drivers/STM32F7xx_HAL_Driver/Inc/stm32f7xx_ll_bus.h ****   *         (*) value not defined in all devices.
 903:Drivers/STM32F7xx_HAL_Driver/Inc/stm32f7xx_ll_bus.h ****   * @retval State of Periphs (1 or 0).
 904:Drivers/STM32F7xx_HAL_Driver/Inc/stm32f7xx_ll_bus.h **** */
 905:Drivers/STM32F7xx_HAL_Driver/Inc/stm32f7xx_ll_bus.h **** __STATIC_INLINE uint32_t LL_AHB3_GRP1_IsEnabledClock(uint32_t Periphs)
 906:Drivers/STM32F7xx_HAL_Driver/Inc/stm32f7xx_ll_bus.h **** {
 907:Drivers/STM32F7xx_HAL_Driver/Inc/stm32f7xx_ll_bus.h ****   return (READ_BIT(RCC->AHB3ENR, Periphs) == Periphs);
 908:Drivers/STM32F7xx_HAL_Driver/Inc/stm32f7xx_ll_bus.h **** }
 909:Drivers/STM32F7xx_HAL_Driver/Inc/stm32f7xx_ll_bus.h **** 
 910:Drivers/STM32F7xx_HAL_Driver/Inc/stm32f7xx_ll_bus.h **** /**
 911:Drivers/STM32F7xx_HAL_Driver/Inc/stm32f7xx_ll_bus.h ****   * @brief  Disable AHB3 peripherals clock.
 912:Drivers/STM32F7xx_HAL_Driver/Inc/stm32f7xx_ll_bus.h ****   * @rmtoll AHB3ENR      FMCEN         LL_AHB3_GRP1_DisableClock\n
 913:Drivers/STM32F7xx_HAL_Driver/Inc/stm32f7xx_ll_bus.h ****   *         AHB3ENR      QSPIEN        LL_AHB3_GRP1_DisableClock
 914:Drivers/STM32F7xx_HAL_Driver/Inc/stm32f7xx_ll_bus.h ****   * @param  Periphs This parameter can be a combination of the following values:
 915:Drivers/STM32F7xx_HAL_Driver/Inc/stm32f7xx_ll_bus.h ****   *         @arg @ref LL_AHB3_GRP1_PERIPH_FMC (*)
 916:Drivers/STM32F7xx_HAL_Driver/Inc/stm32f7xx_ll_bus.h ****   *         @arg @ref LL_AHB3_GRP1_PERIPH_QSPI
 917:Drivers/STM32F7xx_HAL_Driver/Inc/stm32f7xx_ll_bus.h ****   *
 918:Drivers/STM32F7xx_HAL_Driver/Inc/stm32f7xx_ll_bus.h ****   *         (*) value not defined in all devices.
 919:Drivers/STM32F7xx_HAL_Driver/Inc/stm32f7xx_ll_bus.h ****   * @retval None
 920:Drivers/STM32F7xx_HAL_Driver/Inc/stm32f7xx_ll_bus.h **** */
 921:Drivers/STM32F7xx_HAL_Driver/Inc/stm32f7xx_ll_bus.h **** __STATIC_INLINE void LL_AHB3_GRP1_DisableClock(uint32_t Periphs)
 922:Drivers/STM32F7xx_HAL_Driver/Inc/stm32f7xx_ll_bus.h **** {
 923:Drivers/STM32F7xx_HAL_Driver/Inc/stm32f7xx_ll_bus.h ****   CLEAR_BIT(RCC->AHB3ENR, Periphs);
 924:Drivers/STM32F7xx_HAL_Driver/Inc/stm32f7xx_ll_bus.h **** }
 925:Drivers/STM32F7xx_HAL_Driver/Inc/stm32f7xx_ll_bus.h **** 
 926:Drivers/STM32F7xx_HAL_Driver/Inc/stm32f7xx_ll_bus.h **** /**
 927:Drivers/STM32F7xx_HAL_Driver/Inc/stm32f7xx_ll_bus.h ****   * @brief  Force AHB3 peripherals reset.
 928:Drivers/STM32F7xx_HAL_Driver/Inc/stm32f7xx_ll_bus.h ****   * @rmtoll AHB3RSTR     FMCRST        LL_AHB3_GRP1_ForceReset\n
 929:Drivers/STM32F7xx_HAL_Driver/Inc/stm32f7xx_ll_bus.h ****   *         AHB3RSTR     QSPIRST       LL_AHB3_GRP1_ForceReset
 930:Drivers/STM32F7xx_HAL_Driver/Inc/stm32f7xx_ll_bus.h ****   * @param  Periphs This parameter can be a combination of the following values:
 931:Drivers/STM32F7xx_HAL_Driver/Inc/stm32f7xx_ll_bus.h ****   *         @arg @ref LL_AHB3_GRP1_PERIPH_ALL
 932:Drivers/STM32F7xx_HAL_Driver/Inc/stm32f7xx_ll_bus.h ****   *         @arg @ref LL_AHB3_GRP1_PERIPH_FMC (*)
ARM GAS  C:\Users\Giorgio\AppData\Local\Temp\ccpuEN3p.s 			page 37


 933:Drivers/STM32F7xx_HAL_Driver/Inc/stm32f7xx_ll_bus.h ****   *         @arg @ref LL_AHB3_GRP1_PERIPH_QSPI
 934:Drivers/STM32F7xx_HAL_Driver/Inc/stm32f7xx_ll_bus.h ****   *
 935:Drivers/STM32F7xx_HAL_Driver/Inc/stm32f7xx_ll_bus.h ****   *         (*) value not defined in all devices.
 936:Drivers/STM32F7xx_HAL_Driver/Inc/stm32f7xx_ll_bus.h ****   * @retval None
 937:Drivers/STM32F7xx_HAL_Driver/Inc/stm32f7xx_ll_bus.h **** */
 938:Drivers/STM32F7xx_HAL_Driver/Inc/stm32f7xx_ll_bus.h **** __STATIC_INLINE void LL_AHB3_GRP1_ForceReset(uint32_t Periphs)
 939:Drivers/STM32F7xx_HAL_Driver/Inc/stm32f7xx_ll_bus.h **** {
 940:Drivers/STM32F7xx_HAL_Driver/Inc/stm32f7xx_ll_bus.h ****   SET_BIT(RCC->AHB3RSTR, Periphs);
 941:Drivers/STM32F7xx_HAL_Driver/Inc/stm32f7xx_ll_bus.h **** }
 942:Drivers/STM32F7xx_HAL_Driver/Inc/stm32f7xx_ll_bus.h **** 
 943:Drivers/STM32F7xx_HAL_Driver/Inc/stm32f7xx_ll_bus.h **** /**
 944:Drivers/STM32F7xx_HAL_Driver/Inc/stm32f7xx_ll_bus.h ****   * @brief  Release AHB3 peripherals reset.
 945:Drivers/STM32F7xx_HAL_Driver/Inc/stm32f7xx_ll_bus.h ****   * @rmtoll AHB3RSTR     FMCRST        LL_AHB3_GRP1_ReleaseReset\n
 946:Drivers/STM32F7xx_HAL_Driver/Inc/stm32f7xx_ll_bus.h ****   *         AHB3RSTR     QSPIRST       LL_AHB3_GRP1_ReleaseReset
 947:Drivers/STM32F7xx_HAL_Driver/Inc/stm32f7xx_ll_bus.h ****   * @param  Periphs This parameter can be a combination of the following values:
 948:Drivers/STM32F7xx_HAL_Driver/Inc/stm32f7xx_ll_bus.h ****   *         @arg @ref LL_AHB2_GRP1_PERIPH_ALL
 949:Drivers/STM32F7xx_HAL_Driver/Inc/stm32f7xx_ll_bus.h ****   *         @arg @ref LL_AHB3_GRP1_PERIPH_FMC (*)
 950:Drivers/STM32F7xx_HAL_Driver/Inc/stm32f7xx_ll_bus.h ****   *         @arg @ref LL_AHB3_GRP1_PERIPH_QSPI
 951:Drivers/STM32F7xx_HAL_Driver/Inc/stm32f7xx_ll_bus.h ****   *
 952:Drivers/STM32F7xx_HAL_Driver/Inc/stm32f7xx_ll_bus.h ****   *         (*) value not defined in all devices.
 953:Drivers/STM32F7xx_HAL_Driver/Inc/stm32f7xx_ll_bus.h ****   * @retval None
 954:Drivers/STM32F7xx_HAL_Driver/Inc/stm32f7xx_ll_bus.h **** */
 955:Drivers/STM32F7xx_HAL_Driver/Inc/stm32f7xx_ll_bus.h **** __STATIC_INLINE void LL_AHB3_GRP1_ReleaseReset(uint32_t Periphs)
 956:Drivers/STM32F7xx_HAL_Driver/Inc/stm32f7xx_ll_bus.h **** {
 957:Drivers/STM32F7xx_HAL_Driver/Inc/stm32f7xx_ll_bus.h ****   CLEAR_BIT(RCC->AHB3RSTR, Periphs);
 958:Drivers/STM32F7xx_HAL_Driver/Inc/stm32f7xx_ll_bus.h **** }
 959:Drivers/STM32F7xx_HAL_Driver/Inc/stm32f7xx_ll_bus.h **** 
 960:Drivers/STM32F7xx_HAL_Driver/Inc/stm32f7xx_ll_bus.h **** /**
 961:Drivers/STM32F7xx_HAL_Driver/Inc/stm32f7xx_ll_bus.h ****   * @brief  Enable AHB3 peripheral clocks in low-power mode
 962:Drivers/STM32F7xx_HAL_Driver/Inc/stm32f7xx_ll_bus.h ****   * @rmtoll AHB3LPENR    FMCLPEN       LL_AHB3_GRP1_EnableClockLowPower\n
 963:Drivers/STM32F7xx_HAL_Driver/Inc/stm32f7xx_ll_bus.h ****   *         AHB3LPENR    QSPILPEN      LL_AHB3_GRP1_EnableClockLowPower
 964:Drivers/STM32F7xx_HAL_Driver/Inc/stm32f7xx_ll_bus.h ****   * @param  Periphs This parameter can be a combination of the following values:
 965:Drivers/STM32F7xx_HAL_Driver/Inc/stm32f7xx_ll_bus.h ****   *         @arg @ref LL_AHB3_GRP1_PERIPH_FMC (*)
 966:Drivers/STM32F7xx_HAL_Driver/Inc/stm32f7xx_ll_bus.h ****   *         @arg @ref LL_AHB3_GRP1_PERIPH_QSPI
 967:Drivers/STM32F7xx_HAL_Driver/Inc/stm32f7xx_ll_bus.h ****   *
 968:Drivers/STM32F7xx_HAL_Driver/Inc/stm32f7xx_ll_bus.h ****   *         (*) value not defined in all devices.
 969:Drivers/STM32F7xx_HAL_Driver/Inc/stm32f7xx_ll_bus.h ****   * @retval None
 970:Drivers/STM32F7xx_HAL_Driver/Inc/stm32f7xx_ll_bus.h **** */
 971:Drivers/STM32F7xx_HAL_Driver/Inc/stm32f7xx_ll_bus.h **** __STATIC_INLINE void LL_AHB3_GRP1_EnableClockLowPower(uint32_t Periphs)
 972:Drivers/STM32F7xx_HAL_Driver/Inc/stm32f7xx_ll_bus.h **** {
 973:Drivers/STM32F7xx_HAL_Driver/Inc/stm32f7xx_ll_bus.h ****   __IO uint32_t tmpreg;
 974:Drivers/STM32F7xx_HAL_Driver/Inc/stm32f7xx_ll_bus.h ****   SET_BIT(RCC->AHB3LPENR, Periphs);
 975:Drivers/STM32F7xx_HAL_Driver/Inc/stm32f7xx_ll_bus.h ****   /* Delay after an RCC peripheral clock enabling */
 976:Drivers/STM32F7xx_HAL_Driver/Inc/stm32f7xx_ll_bus.h ****   tmpreg = READ_BIT(RCC->AHB3LPENR, Periphs);
 977:Drivers/STM32F7xx_HAL_Driver/Inc/stm32f7xx_ll_bus.h ****   (void)tmpreg;
 978:Drivers/STM32F7xx_HAL_Driver/Inc/stm32f7xx_ll_bus.h **** }
 979:Drivers/STM32F7xx_HAL_Driver/Inc/stm32f7xx_ll_bus.h **** 
 980:Drivers/STM32F7xx_HAL_Driver/Inc/stm32f7xx_ll_bus.h **** /**
 981:Drivers/STM32F7xx_HAL_Driver/Inc/stm32f7xx_ll_bus.h ****   * @brief  Disable AHB3 peripheral clocks in low-power mode
 982:Drivers/STM32F7xx_HAL_Driver/Inc/stm32f7xx_ll_bus.h ****   * @rmtoll AHB3LPENR    FMCLPEN       LL_AHB3_GRP1_DisableClockLowPower\n
 983:Drivers/STM32F7xx_HAL_Driver/Inc/stm32f7xx_ll_bus.h ****   *         AHB3LPENR    QSPILPEN      LL_AHB3_GRP1_DisableClockLowPower
 984:Drivers/STM32F7xx_HAL_Driver/Inc/stm32f7xx_ll_bus.h ****   * @param  Periphs This parameter can be a combination of the following values:
 985:Drivers/STM32F7xx_HAL_Driver/Inc/stm32f7xx_ll_bus.h ****   *         @arg @ref LL_AHB3_GRP1_PERIPH_FMC (*)
 986:Drivers/STM32F7xx_HAL_Driver/Inc/stm32f7xx_ll_bus.h ****   *         @arg @ref LL_AHB3_GRP1_PERIPH_QSPI
 987:Drivers/STM32F7xx_HAL_Driver/Inc/stm32f7xx_ll_bus.h ****   *
 988:Drivers/STM32F7xx_HAL_Driver/Inc/stm32f7xx_ll_bus.h ****   *         (*) value not defined in all devices.
 989:Drivers/STM32F7xx_HAL_Driver/Inc/stm32f7xx_ll_bus.h ****   * @retval None
ARM GAS  C:\Users\Giorgio\AppData\Local\Temp\ccpuEN3p.s 			page 38


 990:Drivers/STM32F7xx_HAL_Driver/Inc/stm32f7xx_ll_bus.h **** */
 991:Drivers/STM32F7xx_HAL_Driver/Inc/stm32f7xx_ll_bus.h **** __STATIC_INLINE void LL_AHB3_GRP1_DisableClockLowPower(uint32_t Periphs)
 992:Drivers/STM32F7xx_HAL_Driver/Inc/stm32f7xx_ll_bus.h **** {
 993:Drivers/STM32F7xx_HAL_Driver/Inc/stm32f7xx_ll_bus.h ****   CLEAR_BIT(RCC->AHB3LPENR, Periphs);
 994:Drivers/STM32F7xx_HAL_Driver/Inc/stm32f7xx_ll_bus.h **** }
 995:Drivers/STM32F7xx_HAL_Driver/Inc/stm32f7xx_ll_bus.h **** 
 996:Drivers/STM32F7xx_HAL_Driver/Inc/stm32f7xx_ll_bus.h **** /**
 997:Drivers/STM32F7xx_HAL_Driver/Inc/stm32f7xx_ll_bus.h ****   * @}
 998:Drivers/STM32F7xx_HAL_Driver/Inc/stm32f7xx_ll_bus.h ****   */
 999:Drivers/STM32F7xx_HAL_Driver/Inc/stm32f7xx_ll_bus.h **** 
1000:Drivers/STM32F7xx_HAL_Driver/Inc/stm32f7xx_ll_bus.h **** /** @defgroup BUS_LL_EF_APB1 APB1
1001:Drivers/STM32F7xx_HAL_Driver/Inc/stm32f7xx_ll_bus.h ****   * @{
1002:Drivers/STM32F7xx_HAL_Driver/Inc/stm32f7xx_ll_bus.h ****   */
1003:Drivers/STM32F7xx_HAL_Driver/Inc/stm32f7xx_ll_bus.h **** 
1004:Drivers/STM32F7xx_HAL_Driver/Inc/stm32f7xx_ll_bus.h **** /**
1005:Drivers/STM32F7xx_HAL_Driver/Inc/stm32f7xx_ll_bus.h ****   * @brief  Enable APB1 peripherals clock.
1006:Drivers/STM32F7xx_HAL_Driver/Inc/stm32f7xx_ll_bus.h ****   * @rmtoll APB1ENR     TIM2EN        LL_APB1_GRP1_EnableClock\n
1007:Drivers/STM32F7xx_HAL_Driver/Inc/stm32f7xx_ll_bus.h ****   *         APB1ENR     TIM3EN        LL_APB1_GRP1_EnableClock\n
1008:Drivers/STM32F7xx_HAL_Driver/Inc/stm32f7xx_ll_bus.h ****   *         APB1ENR     TIM4EN        LL_APB1_GRP1_EnableClock\n
1009:Drivers/STM32F7xx_HAL_Driver/Inc/stm32f7xx_ll_bus.h ****   *         APB1ENR     TIM5EN        LL_APB1_GRP1_EnableClock\n
1010:Drivers/STM32F7xx_HAL_Driver/Inc/stm32f7xx_ll_bus.h ****   *         APB1ENR     TIM6EN        LL_APB1_GRP1_EnableClock\n
1011:Drivers/STM32F7xx_HAL_Driver/Inc/stm32f7xx_ll_bus.h ****   *         APB1ENR     TIM7EN        LL_APB1_GRP1_EnableClock\n
1012:Drivers/STM32F7xx_HAL_Driver/Inc/stm32f7xx_ll_bus.h ****   *         APB1ENR     TIM12EN       LL_APB1_GRP1_EnableClock\n
1013:Drivers/STM32F7xx_HAL_Driver/Inc/stm32f7xx_ll_bus.h ****   *         APB1ENR     TIM13EN       LL_APB1_GRP1_EnableClock\n
1014:Drivers/STM32F7xx_HAL_Driver/Inc/stm32f7xx_ll_bus.h ****   *         APB1ENR     TIM14EN       LL_APB1_GRP1_EnableClock\n
1015:Drivers/STM32F7xx_HAL_Driver/Inc/stm32f7xx_ll_bus.h ****   *         APB1ENR     LPTIM1EN      LL_APB1_GRP1_EnableClock\n
1016:Drivers/STM32F7xx_HAL_Driver/Inc/stm32f7xx_ll_bus.h ****   *         APB1ENR     WWDGEN        LL_APB1_GRP1_EnableClock\n
1017:Drivers/STM32F7xx_HAL_Driver/Inc/stm32f7xx_ll_bus.h ****   *         APB1ENR     SPI2EN        LL_APB1_GRP1_EnableClock\n
1018:Drivers/STM32F7xx_HAL_Driver/Inc/stm32f7xx_ll_bus.h ****   *         APB1ENR     SPI3EN        LL_APB1_GRP1_EnableClock\n
1019:Drivers/STM32F7xx_HAL_Driver/Inc/stm32f7xx_ll_bus.h ****   *         APB1ENR     SPDIFRXEN     LL_APB1_GRP1_EnableClock\n
1020:Drivers/STM32F7xx_HAL_Driver/Inc/stm32f7xx_ll_bus.h ****   *         APB1ENR     USART2EN      LL_APB1_GRP1_EnableClock\n
1021:Drivers/STM32F7xx_HAL_Driver/Inc/stm32f7xx_ll_bus.h ****   *         APB1ENR     USART3EN      LL_APB1_GRP1_EnableClock\n
1022:Drivers/STM32F7xx_HAL_Driver/Inc/stm32f7xx_ll_bus.h ****   *         APB1ENR     UART4EN       LL_APB1_GRP1_EnableClock\n
1023:Drivers/STM32F7xx_HAL_Driver/Inc/stm32f7xx_ll_bus.h ****   *         APB1ENR     UART5EN       LL_APB1_GRP1_EnableClock\n
1024:Drivers/STM32F7xx_HAL_Driver/Inc/stm32f7xx_ll_bus.h ****   *         APB1ENR     I2C1EN        LL_APB1_GRP1_EnableClock\n
1025:Drivers/STM32F7xx_HAL_Driver/Inc/stm32f7xx_ll_bus.h ****   *         APB1ENR     I2C2EN        LL_APB1_GRP1_EnableClock\n
1026:Drivers/STM32F7xx_HAL_Driver/Inc/stm32f7xx_ll_bus.h ****   *         APB1ENR     I2C3EN        LL_APB1_GRP1_EnableClock\n
1027:Drivers/STM32F7xx_HAL_Driver/Inc/stm32f7xx_ll_bus.h ****   *         APB1ENR     I2C4EN        LL_APB1_GRP1_EnableClock\n
1028:Drivers/STM32F7xx_HAL_Driver/Inc/stm32f7xx_ll_bus.h ****   *         APB1ENR     CAN1EN        LL_APB1_GRP1_EnableClock\n
1029:Drivers/STM32F7xx_HAL_Driver/Inc/stm32f7xx_ll_bus.h ****   *         APB1ENR     CAN2EN        LL_APB1_GRP1_EnableClock\n
1030:Drivers/STM32F7xx_HAL_Driver/Inc/stm32f7xx_ll_bus.h ****   *         APB1ENR     CAN3EN        LL_APB1_GRP1_EnableClock\n
1031:Drivers/STM32F7xx_HAL_Driver/Inc/stm32f7xx_ll_bus.h ****   *         APB1ENR     CECEN         LL_APB1_GRP1_EnableClock\n
1032:Drivers/STM32F7xx_HAL_Driver/Inc/stm32f7xx_ll_bus.h ****   *         APB1ENR     PWREN         LL_APB1_GRP1_EnableClock\n
1033:Drivers/STM32F7xx_HAL_Driver/Inc/stm32f7xx_ll_bus.h ****   *         APB1ENR     DACEN         LL_APB1_GRP1_EnableClock\n
1034:Drivers/STM32F7xx_HAL_Driver/Inc/stm32f7xx_ll_bus.h ****   *         APB1ENR     UART7EN       LL_APB1_GRP1_EnableClock\n
1035:Drivers/STM32F7xx_HAL_Driver/Inc/stm32f7xx_ll_bus.h ****   *         APB1ENR     UART8EN       LL_APB1_GRP1_EnableClock\n
1036:Drivers/STM32F7xx_HAL_Driver/Inc/stm32f7xx_ll_bus.h ****   *         APB1ENR     RTCEN         LL_APB1_GRP1_EnableClock
1037:Drivers/STM32F7xx_HAL_Driver/Inc/stm32f7xx_ll_bus.h ****   * @param  Periphs This parameter can be a combination of the following values:
1038:Drivers/STM32F7xx_HAL_Driver/Inc/stm32f7xx_ll_bus.h ****   *         @arg @ref LL_APB1_GRP1_PERIPH_TIM2
1039:Drivers/STM32F7xx_HAL_Driver/Inc/stm32f7xx_ll_bus.h ****   *         @arg @ref LL_APB1_GRP1_PERIPH_TIM3 
1040:Drivers/STM32F7xx_HAL_Driver/Inc/stm32f7xx_ll_bus.h ****   *         @arg @ref LL_APB1_GRP1_PERIPH_TIM4
1041:Drivers/STM32F7xx_HAL_Driver/Inc/stm32f7xx_ll_bus.h ****   *         @arg @ref LL_APB1_GRP1_PERIPH_TIM5 
1042:Drivers/STM32F7xx_HAL_Driver/Inc/stm32f7xx_ll_bus.h ****   *         @arg @ref LL_APB1_GRP1_PERIPH_TIM6
1043:Drivers/STM32F7xx_HAL_Driver/Inc/stm32f7xx_ll_bus.h ****   *         @arg @ref LL_APB1_GRP1_PERIPH_TIM7
1044:Drivers/STM32F7xx_HAL_Driver/Inc/stm32f7xx_ll_bus.h ****   *         @arg @ref LL_APB1_GRP1_PERIPH_TIM12
1045:Drivers/STM32F7xx_HAL_Driver/Inc/stm32f7xx_ll_bus.h ****   *         @arg @ref LL_APB1_GRP1_PERIPH_TIM13
1046:Drivers/STM32F7xx_HAL_Driver/Inc/stm32f7xx_ll_bus.h ****   *         @arg @ref LL_APB1_GRP1_PERIPH_TIM14
ARM GAS  C:\Users\Giorgio\AppData\Local\Temp\ccpuEN3p.s 			page 39


1047:Drivers/STM32F7xx_HAL_Driver/Inc/stm32f7xx_ll_bus.h ****   *         @arg @ref LL_APB1_GRP1_PERIPH_LPTIM1
1048:Drivers/STM32F7xx_HAL_Driver/Inc/stm32f7xx_ll_bus.h ****   *         @arg @ref LL_APB1_GRP1_PERIPH_WWDG
1049:Drivers/STM32F7xx_HAL_Driver/Inc/stm32f7xx_ll_bus.h ****   *         @arg @ref LL_APB1_GRP1_PERIPH_SPI2 
1050:Drivers/STM32F7xx_HAL_Driver/Inc/stm32f7xx_ll_bus.h ****   *         @arg @ref LL_APB1_GRP1_PERIPH_SPI3
1051:Drivers/STM32F7xx_HAL_Driver/Inc/stm32f7xx_ll_bus.h ****   *         @arg @ref LL_APB1_GRP1_PERIPH_SPDIFRX (*)
1052:Drivers/STM32F7xx_HAL_Driver/Inc/stm32f7xx_ll_bus.h ****   *         @arg @ref LL_APB1_GRP1_PERIPH_USART2
1053:Drivers/STM32F7xx_HAL_Driver/Inc/stm32f7xx_ll_bus.h ****   *         @arg @ref LL_APB1_GRP1_PERIPH_USART3
1054:Drivers/STM32F7xx_HAL_Driver/Inc/stm32f7xx_ll_bus.h ****   *         @arg @ref LL_APB1_GRP1_PERIPH_UART4
1055:Drivers/STM32F7xx_HAL_Driver/Inc/stm32f7xx_ll_bus.h ****   *         @arg @ref LL_APB1_GRP1_PERIPH_UART5
1056:Drivers/STM32F7xx_HAL_Driver/Inc/stm32f7xx_ll_bus.h ****   *         @arg @ref LL_APB1_GRP1_PERIPH_I2C1
1057:Drivers/STM32F7xx_HAL_Driver/Inc/stm32f7xx_ll_bus.h ****   *         @arg @ref LL_APB1_GRP1_PERIPH_I2C2
1058:Drivers/STM32F7xx_HAL_Driver/Inc/stm32f7xx_ll_bus.h ****   *         @arg @ref LL_APB1_GRP1_PERIPH_I2C3
1059:Drivers/STM32F7xx_HAL_Driver/Inc/stm32f7xx_ll_bus.h ****   *         @arg @ref LL_APB1_GRP1_PERIPH_I2C4 (*)
1060:Drivers/STM32F7xx_HAL_Driver/Inc/stm32f7xx_ll_bus.h ****   *         @arg @ref LL_APB1_GRP1_PERIPH_CAN1
1061:Drivers/STM32F7xx_HAL_Driver/Inc/stm32f7xx_ll_bus.h ****   *         @arg @ref LL_APB1_GRP1_PERIPH_CAN2 (*)
1062:Drivers/STM32F7xx_HAL_Driver/Inc/stm32f7xx_ll_bus.h ****   *         @arg @ref LL_APB1_GRP1_PERIPH_CAN3 (*)
1063:Drivers/STM32F7xx_HAL_Driver/Inc/stm32f7xx_ll_bus.h ****   *         @arg @ref LL_APB1_GRP1_PERIPH_CEC  (*)
1064:Drivers/STM32F7xx_HAL_Driver/Inc/stm32f7xx_ll_bus.h ****   *         @arg @ref LL_APB1_GRP1_PERIPH_PWR
1065:Drivers/STM32F7xx_HAL_Driver/Inc/stm32f7xx_ll_bus.h ****   *         @arg @ref LL_APB1_GRP1_PERIPH_DAC1
1066:Drivers/STM32F7xx_HAL_Driver/Inc/stm32f7xx_ll_bus.h ****   *         @arg @ref LL_APB1_GRP1_PERIPH_UART7
1067:Drivers/STM32F7xx_HAL_Driver/Inc/stm32f7xx_ll_bus.h ****   *         @arg @ref LL_APB1_GRP1_PERIPH_UART8
1068:Drivers/STM32F7xx_HAL_Driver/Inc/stm32f7xx_ll_bus.h ****   *         @arg @ref LL_APB1_GRP1_PERIPH_RTCAPB (*)
1069:Drivers/STM32F7xx_HAL_Driver/Inc/stm32f7xx_ll_bus.h ****   *
1070:Drivers/STM32F7xx_HAL_Driver/Inc/stm32f7xx_ll_bus.h ****   *         (*) value not defined in all devices.
1071:Drivers/STM32F7xx_HAL_Driver/Inc/stm32f7xx_ll_bus.h ****   * @retval None
1072:Drivers/STM32F7xx_HAL_Driver/Inc/stm32f7xx_ll_bus.h **** */
1073:Drivers/STM32F7xx_HAL_Driver/Inc/stm32f7xx_ll_bus.h **** __STATIC_INLINE void LL_APB1_GRP1_EnableClock(uint32_t Periphs)
1074:Drivers/STM32F7xx_HAL_Driver/Inc/stm32f7xx_ll_bus.h **** {
1075:Drivers/STM32F7xx_HAL_Driver/Inc/stm32f7xx_ll_bus.h ****   __IO uint32_t tmpreg;
1076:Drivers/STM32F7xx_HAL_Driver/Inc/stm32f7xx_ll_bus.h ****   SET_BIT(RCC->APB1ENR, Periphs);
1077:Drivers/STM32F7xx_HAL_Driver/Inc/stm32f7xx_ll_bus.h ****   /* Delay after an RCC peripheral clock enabling */
1078:Drivers/STM32F7xx_HAL_Driver/Inc/stm32f7xx_ll_bus.h ****   tmpreg = READ_BIT(RCC->APB1ENR, Periphs);
1079:Drivers/STM32F7xx_HAL_Driver/Inc/stm32f7xx_ll_bus.h ****   (void)tmpreg;
1080:Drivers/STM32F7xx_HAL_Driver/Inc/stm32f7xx_ll_bus.h **** }
1081:Drivers/STM32F7xx_HAL_Driver/Inc/stm32f7xx_ll_bus.h **** 
1082:Drivers/STM32F7xx_HAL_Driver/Inc/stm32f7xx_ll_bus.h **** /**
1083:Drivers/STM32F7xx_HAL_Driver/Inc/stm32f7xx_ll_bus.h ****   * @brief  Check if APB1 peripheral clock is enabled or not
1084:Drivers/STM32F7xx_HAL_Driver/Inc/stm32f7xx_ll_bus.h ****   * @rmtoll APB1ENR     TIM2EN        LL_APB1_GRP1_IsEnabledClock\n
1085:Drivers/STM32F7xx_HAL_Driver/Inc/stm32f7xx_ll_bus.h ****   *         APB1ENR     TIM3EN        LL_APB1_GRP1_IsEnabledClock\n
1086:Drivers/STM32F7xx_HAL_Driver/Inc/stm32f7xx_ll_bus.h ****   *         APB1ENR     TIM4EN        LL_APB1_GRP1_IsEnabledClock\n
1087:Drivers/STM32F7xx_HAL_Driver/Inc/stm32f7xx_ll_bus.h ****   *         APB1ENR     TIM5EN        LL_APB1_GRP1_IsEnabledClock\n
1088:Drivers/STM32F7xx_HAL_Driver/Inc/stm32f7xx_ll_bus.h ****   *         APB1ENR     TIM6EN        LL_APB1_GRP1_IsEnabledClock\n
1089:Drivers/STM32F7xx_HAL_Driver/Inc/stm32f7xx_ll_bus.h ****   *         APB1ENR     TIM7EN        LL_APB1_GRP1_IsEnabledClock\n
1090:Drivers/STM32F7xx_HAL_Driver/Inc/stm32f7xx_ll_bus.h ****   *         APB1ENR     TIM12EN       LL_APB1_GRP1_IsEnabledClock\n
1091:Drivers/STM32F7xx_HAL_Driver/Inc/stm32f7xx_ll_bus.h ****   *         APB1ENR     TIM13EN       LL_APB1_GRP1_IsEnabledClock\n
1092:Drivers/STM32F7xx_HAL_Driver/Inc/stm32f7xx_ll_bus.h ****   *         APB1ENR     TIM14EN       LL_APB1_GRP1_IsEnabledClock\n
1093:Drivers/STM32F7xx_HAL_Driver/Inc/stm32f7xx_ll_bus.h ****   *         APB1ENR     LPTIM1EN      LL_APB1_GRP1_IsEnabledClock\n
1094:Drivers/STM32F7xx_HAL_Driver/Inc/stm32f7xx_ll_bus.h ****   *         APB1ENR     WWDGEN        LL_APB1_GRP1_IsEnabledClock\n
1095:Drivers/STM32F7xx_HAL_Driver/Inc/stm32f7xx_ll_bus.h ****   *         APB1ENR     SPI2EN        LL_APB1_GRP1_IsEnabledClock\n
1096:Drivers/STM32F7xx_HAL_Driver/Inc/stm32f7xx_ll_bus.h ****   *         APB1ENR     SPI3EN        LL_APB1_GRP1_IsEnabledClock\n
1097:Drivers/STM32F7xx_HAL_Driver/Inc/stm32f7xx_ll_bus.h ****   *         APB1ENR     SPDIFRXEN     LL_APB1_GRP1_IsEnabledClock\n
1098:Drivers/STM32F7xx_HAL_Driver/Inc/stm32f7xx_ll_bus.h ****   *         APB1ENR     USART2EN      LL_APB1_GRP1_IsEnabledClock\n
1099:Drivers/STM32F7xx_HAL_Driver/Inc/stm32f7xx_ll_bus.h ****   *         APB1ENR     USART3EN      LL_APB1_GRP1_IsEnabledClock\n
1100:Drivers/STM32F7xx_HAL_Driver/Inc/stm32f7xx_ll_bus.h ****   *         APB1ENR     UART4EN       LL_APB1_GRP1_IsEnabledClock\n
1101:Drivers/STM32F7xx_HAL_Driver/Inc/stm32f7xx_ll_bus.h ****   *         APB1ENR     UART5EN       LL_APB1_GRP1_IsEnabledClock\n
1102:Drivers/STM32F7xx_HAL_Driver/Inc/stm32f7xx_ll_bus.h ****   *         APB1ENR     I2C1EN        LL_APB1_GRP1_IsEnabledClock\n
1103:Drivers/STM32F7xx_HAL_Driver/Inc/stm32f7xx_ll_bus.h ****   *         APB1ENR     I2C2EN        LL_APB1_GRP1_IsEnabledClock\n
ARM GAS  C:\Users\Giorgio\AppData\Local\Temp\ccpuEN3p.s 			page 40


1104:Drivers/STM32F7xx_HAL_Driver/Inc/stm32f7xx_ll_bus.h ****   *         APB1ENR     I2C3EN        LL_APB1_GRP1_IsEnabledClock\n
1105:Drivers/STM32F7xx_HAL_Driver/Inc/stm32f7xx_ll_bus.h ****   *         APB1ENR     I2C4EN        LL_APB1_GRP1_IsEnabledClock\n
1106:Drivers/STM32F7xx_HAL_Driver/Inc/stm32f7xx_ll_bus.h ****   *         APB1ENR     CAN1EN        LL_APB1_GRP1_IsEnabledClock\n
1107:Drivers/STM32F7xx_HAL_Driver/Inc/stm32f7xx_ll_bus.h ****   *         APB1ENR     CAN2EN        LL_APB1_GRP1_IsEnabledClock\n
1108:Drivers/STM32F7xx_HAL_Driver/Inc/stm32f7xx_ll_bus.h ****   *         APB1ENR     CAN3EN        LL_APB1_GRP1_IsEnabledClock\n
1109:Drivers/STM32F7xx_HAL_Driver/Inc/stm32f7xx_ll_bus.h ****   *         APB1ENR     CECEN         LL_APB1_GRP1_IsEnabledClock\n
1110:Drivers/STM32F7xx_HAL_Driver/Inc/stm32f7xx_ll_bus.h ****   *         APB1ENR     PWREN         LL_APB1_GRP1_IsEnabledClock\n
1111:Drivers/STM32F7xx_HAL_Driver/Inc/stm32f7xx_ll_bus.h ****   *         APB1ENR     DACEN         LL_APB1_GRP1_IsEnabledClock\n
1112:Drivers/STM32F7xx_HAL_Driver/Inc/stm32f7xx_ll_bus.h ****   *         APB1ENR     UART7EN       LL_APB1_GRP1_IsEnabledClock\n
1113:Drivers/STM32F7xx_HAL_Driver/Inc/stm32f7xx_ll_bus.h ****   *         APB1ENR     UART8EN       LL_APB1_GRP1_IsEnabledClock\n
1114:Drivers/STM32F7xx_HAL_Driver/Inc/stm32f7xx_ll_bus.h ****   *         APB1ENR     RTCEN         LL_APB1_GRP1_IsEnabledClock
1115:Drivers/STM32F7xx_HAL_Driver/Inc/stm32f7xx_ll_bus.h ****   * @param  Periphs This parameter can be a combination of the following values:
1116:Drivers/STM32F7xx_HAL_Driver/Inc/stm32f7xx_ll_bus.h ****   *         @arg @ref LL_APB1_GRP1_PERIPH_TIM2
1117:Drivers/STM32F7xx_HAL_Driver/Inc/stm32f7xx_ll_bus.h ****   *         @arg @ref LL_APB1_GRP1_PERIPH_TIM3 
1118:Drivers/STM32F7xx_HAL_Driver/Inc/stm32f7xx_ll_bus.h ****   *         @arg @ref LL_APB1_GRP1_PERIPH_TIM4
1119:Drivers/STM32F7xx_HAL_Driver/Inc/stm32f7xx_ll_bus.h ****   *         @arg @ref LL_APB1_GRP1_PERIPH_TIM5 
1120:Drivers/STM32F7xx_HAL_Driver/Inc/stm32f7xx_ll_bus.h ****   *         @arg @ref LL_APB1_GRP1_PERIPH_TIM6
1121:Drivers/STM32F7xx_HAL_Driver/Inc/stm32f7xx_ll_bus.h ****   *         @arg @ref LL_APB1_GRP1_PERIPH_TIM7
1122:Drivers/STM32F7xx_HAL_Driver/Inc/stm32f7xx_ll_bus.h ****   *         @arg @ref LL_APB1_GRP1_PERIPH_TIM12
1123:Drivers/STM32F7xx_HAL_Driver/Inc/stm32f7xx_ll_bus.h ****   *         @arg @ref LL_APB1_GRP1_PERIPH_TIM13
1124:Drivers/STM32F7xx_HAL_Driver/Inc/stm32f7xx_ll_bus.h ****   *         @arg @ref LL_APB1_GRP1_PERIPH_TIM14
1125:Drivers/STM32F7xx_HAL_Driver/Inc/stm32f7xx_ll_bus.h ****   *         @arg @ref LL_APB1_GRP1_PERIPH_LPTIM1
1126:Drivers/STM32F7xx_HAL_Driver/Inc/stm32f7xx_ll_bus.h ****   *         @arg @ref LL_APB1_GRP1_PERIPH_WWDG
1127:Drivers/STM32F7xx_HAL_Driver/Inc/stm32f7xx_ll_bus.h ****   *         @arg @ref LL_APB1_GRP1_PERIPH_SPI2 
1128:Drivers/STM32F7xx_HAL_Driver/Inc/stm32f7xx_ll_bus.h ****   *         @arg @ref LL_APB1_GRP1_PERIPH_SPI3
1129:Drivers/STM32F7xx_HAL_Driver/Inc/stm32f7xx_ll_bus.h ****   *         @arg @ref LL_APB1_GRP1_PERIPH_SPDIFRX (*)
1130:Drivers/STM32F7xx_HAL_Driver/Inc/stm32f7xx_ll_bus.h ****   *         @arg @ref LL_APB1_GRP1_PERIPH_USART2
1131:Drivers/STM32F7xx_HAL_Driver/Inc/stm32f7xx_ll_bus.h ****   *         @arg @ref LL_APB1_GRP1_PERIPH_USART3
1132:Drivers/STM32F7xx_HAL_Driver/Inc/stm32f7xx_ll_bus.h ****   *         @arg @ref LL_APB1_GRP1_PERIPH_UART4
1133:Drivers/STM32F7xx_HAL_Driver/Inc/stm32f7xx_ll_bus.h ****   *         @arg @ref LL_APB1_GRP1_PERIPH_UART5
1134:Drivers/STM32F7xx_HAL_Driver/Inc/stm32f7xx_ll_bus.h ****   *         @arg @ref LL_APB1_GRP1_PERIPH_I2C1
1135:Drivers/STM32F7xx_HAL_Driver/Inc/stm32f7xx_ll_bus.h ****   *         @arg @ref LL_APB1_GRP1_PERIPH_I2C2
1136:Drivers/STM32F7xx_HAL_Driver/Inc/stm32f7xx_ll_bus.h ****   *         @arg @ref LL_APB1_GRP1_PERIPH_I2C3
1137:Drivers/STM32F7xx_HAL_Driver/Inc/stm32f7xx_ll_bus.h ****   *         @arg @ref LL_APB1_GRP1_PERIPH_I2C4 (*)
1138:Drivers/STM32F7xx_HAL_Driver/Inc/stm32f7xx_ll_bus.h ****   *         @arg @ref LL_APB1_GRP1_PERIPH_CAN1
1139:Drivers/STM32F7xx_HAL_Driver/Inc/stm32f7xx_ll_bus.h ****   *         @arg @ref LL_APB1_GRP1_PERIPH_CAN2 (*)
1140:Drivers/STM32F7xx_HAL_Driver/Inc/stm32f7xx_ll_bus.h ****   *         @arg @ref LL_APB1_GRP1_PERIPH_CAN3 (*)
1141:Drivers/STM32F7xx_HAL_Driver/Inc/stm32f7xx_ll_bus.h ****   *         @arg @ref LL_APB1_GRP1_PERIPH_CEC  (*)
1142:Drivers/STM32F7xx_HAL_Driver/Inc/stm32f7xx_ll_bus.h ****   *         @arg @ref LL_APB1_GRP1_PERIPH_PWR
1143:Drivers/STM32F7xx_HAL_Driver/Inc/stm32f7xx_ll_bus.h ****   *         @arg @ref LL_APB1_GRP1_PERIPH_DAC1
1144:Drivers/STM32F7xx_HAL_Driver/Inc/stm32f7xx_ll_bus.h ****   *         @arg @ref LL_APB1_GRP1_PERIPH_UART7
1145:Drivers/STM32F7xx_HAL_Driver/Inc/stm32f7xx_ll_bus.h ****   *         @arg @ref LL_APB1_GRP1_PERIPH_UART8
1146:Drivers/STM32F7xx_HAL_Driver/Inc/stm32f7xx_ll_bus.h ****   *         @arg @ref LL_APB1_GRP1_PERIPH_RTCAPB (*)
1147:Drivers/STM32F7xx_HAL_Driver/Inc/stm32f7xx_ll_bus.h ****   *
1148:Drivers/STM32F7xx_HAL_Driver/Inc/stm32f7xx_ll_bus.h ****   *         (*) value not defined in all devices.
1149:Drivers/STM32F7xx_HAL_Driver/Inc/stm32f7xx_ll_bus.h ****   * @retval State of Periphs (1 or 0).
1150:Drivers/STM32F7xx_HAL_Driver/Inc/stm32f7xx_ll_bus.h **** */
1151:Drivers/STM32F7xx_HAL_Driver/Inc/stm32f7xx_ll_bus.h **** __STATIC_INLINE uint32_t LL_APB1_GRP1_IsEnabledClock(uint32_t Periphs)
1152:Drivers/STM32F7xx_HAL_Driver/Inc/stm32f7xx_ll_bus.h **** {
1153:Drivers/STM32F7xx_HAL_Driver/Inc/stm32f7xx_ll_bus.h ****   return (READ_BIT(RCC->APB1ENR, Periphs) == Periphs);
1154:Drivers/STM32F7xx_HAL_Driver/Inc/stm32f7xx_ll_bus.h **** }
1155:Drivers/STM32F7xx_HAL_Driver/Inc/stm32f7xx_ll_bus.h **** 
1156:Drivers/STM32F7xx_HAL_Driver/Inc/stm32f7xx_ll_bus.h **** /**
1157:Drivers/STM32F7xx_HAL_Driver/Inc/stm32f7xx_ll_bus.h ****   * @brief  Disable APB1 peripherals clock.
1158:Drivers/STM32F7xx_HAL_Driver/Inc/stm32f7xx_ll_bus.h ****   * @rmtoll APB1ENR     TIM2EN        LL_APB1_GRP1_DisableClock\n
1159:Drivers/STM32F7xx_HAL_Driver/Inc/stm32f7xx_ll_bus.h ****   *         APB1ENR     TIM3EN        LL_APB1_GRP1_DisableClock\n
1160:Drivers/STM32F7xx_HAL_Driver/Inc/stm32f7xx_ll_bus.h ****   *         APB1ENR     TIM4EN        LL_APB1_GRP1_DisableClock\n
ARM GAS  C:\Users\Giorgio\AppData\Local\Temp\ccpuEN3p.s 			page 41


1161:Drivers/STM32F7xx_HAL_Driver/Inc/stm32f7xx_ll_bus.h ****   *         APB1ENR     TIM5EN        LL_APB1_GRP1_DisableClock\n
1162:Drivers/STM32F7xx_HAL_Driver/Inc/stm32f7xx_ll_bus.h ****   *         APB1ENR     TIM6EN        LL_APB1_GRP1_DisableClock\n
1163:Drivers/STM32F7xx_HAL_Driver/Inc/stm32f7xx_ll_bus.h ****   *         APB1ENR     TIM7EN        LL_APB1_GRP1_DisableClock\n
1164:Drivers/STM32F7xx_HAL_Driver/Inc/stm32f7xx_ll_bus.h ****   *         APB1ENR     TIM12EN       LL_APB1_GRP1_DisableClock\n
1165:Drivers/STM32F7xx_HAL_Driver/Inc/stm32f7xx_ll_bus.h ****   *         APB1ENR     TIM13EN       LL_APB1_GRP1_DisableClock\n
1166:Drivers/STM32F7xx_HAL_Driver/Inc/stm32f7xx_ll_bus.h ****   *         APB1ENR     TIM14EN       LL_APB1_GRP1_DisableClock\n
1167:Drivers/STM32F7xx_HAL_Driver/Inc/stm32f7xx_ll_bus.h ****   *         APB1ENR     LPTIM1EN      LL_APB1_GRP1_DisableClock\n
1168:Drivers/STM32F7xx_HAL_Driver/Inc/stm32f7xx_ll_bus.h ****   *         APB1ENR     WWDGEN        LL_APB1_GRP1_DisableClock\n
1169:Drivers/STM32F7xx_HAL_Driver/Inc/stm32f7xx_ll_bus.h ****   *         APB1ENR     SPI2EN        LL_APB1_GRP1_DisableClock\n
1170:Drivers/STM32F7xx_HAL_Driver/Inc/stm32f7xx_ll_bus.h ****   *         APB1ENR     SPI3EN        LL_APB1_GRP1_DisableClock\n
1171:Drivers/STM32F7xx_HAL_Driver/Inc/stm32f7xx_ll_bus.h ****   *         APB1ENR     SPDIFRXEN     LL_APB1_GRP1_DisableClock\n
1172:Drivers/STM32F7xx_HAL_Driver/Inc/stm32f7xx_ll_bus.h ****   *         APB1ENR     USART2EN      LL_APB1_GRP1_DisableClock\n
1173:Drivers/STM32F7xx_HAL_Driver/Inc/stm32f7xx_ll_bus.h ****   *         APB1ENR     USART3EN      LL_APB1_GRP1_DisableClock\n
1174:Drivers/STM32F7xx_HAL_Driver/Inc/stm32f7xx_ll_bus.h ****   *         APB1ENR     UART4EN       LL_APB1_GRP1_DisableClock\n
1175:Drivers/STM32F7xx_HAL_Driver/Inc/stm32f7xx_ll_bus.h ****   *         APB1ENR     UART5EN       LL_APB1_GRP1_DisableClock\n
1176:Drivers/STM32F7xx_HAL_Driver/Inc/stm32f7xx_ll_bus.h ****   *         APB1ENR     I2C1EN        LL_APB1_GRP1_DisableClock\n
1177:Drivers/STM32F7xx_HAL_Driver/Inc/stm32f7xx_ll_bus.h ****   *         APB1ENR     I2C2EN        LL_APB1_GRP1_DisableClock\n
1178:Drivers/STM32F7xx_HAL_Driver/Inc/stm32f7xx_ll_bus.h ****   *         APB1ENR     I2C3EN        LL_APB1_GRP1_DisableClock\n
1179:Drivers/STM32F7xx_HAL_Driver/Inc/stm32f7xx_ll_bus.h ****   *         APB1ENR     I2C4EN        LL_APB1_GRP1_DisableClock\n
1180:Drivers/STM32F7xx_HAL_Driver/Inc/stm32f7xx_ll_bus.h ****   *         APB1ENR     CAN1EN        LL_APB1_GRP1_DisableClock\n
1181:Drivers/STM32F7xx_HAL_Driver/Inc/stm32f7xx_ll_bus.h ****   *         APB1ENR     CAN2EN        LL_APB1_GRP1_DisableClock\n
1182:Drivers/STM32F7xx_HAL_Driver/Inc/stm32f7xx_ll_bus.h ****   *         APB1ENR     CAN3EN        LL_APB1_GRP1_DisableClock\n
1183:Drivers/STM32F7xx_HAL_Driver/Inc/stm32f7xx_ll_bus.h ****   *         APB1ENR     CECEN         LL_APB1_GRP1_DisableClock\n
1184:Drivers/STM32F7xx_HAL_Driver/Inc/stm32f7xx_ll_bus.h ****   *         APB1ENR     PWREN         LL_APB1_GRP1_DisableClock\n
1185:Drivers/STM32F7xx_HAL_Driver/Inc/stm32f7xx_ll_bus.h ****   *         APB1ENR     DACEN         LL_APB1_GRP1_DisableClock\n
1186:Drivers/STM32F7xx_HAL_Driver/Inc/stm32f7xx_ll_bus.h ****   *         APB1ENR     UART7EN       LL_APB1_GRP1_DisableClock\n
1187:Drivers/STM32F7xx_HAL_Driver/Inc/stm32f7xx_ll_bus.h ****   *         APB1ENR     UART8EN       LL_APB1_GRP1_DisableClock\n
1188:Drivers/STM32F7xx_HAL_Driver/Inc/stm32f7xx_ll_bus.h ****   *         APB1ENR     RTCEN         LL_APB1_GRP1_DisableClock
1189:Drivers/STM32F7xx_HAL_Driver/Inc/stm32f7xx_ll_bus.h ****   * @param  Periphs This parameter can be a combination of the following values:
1190:Drivers/STM32F7xx_HAL_Driver/Inc/stm32f7xx_ll_bus.h ****   *         @arg @ref LL_APB1_GRP1_PERIPH_TIM2
1191:Drivers/STM32F7xx_HAL_Driver/Inc/stm32f7xx_ll_bus.h ****   *         @arg @ref LL_APB1_GRP1_PERIPH_TIM3 
1192:Drivers/STM32F7xx_HAL_Driver/Inc/stm32f7xx_ll_bus.h ****   *         @arg @ref LL_APB1_GRP1_PERIPH_TIM4
1193:Drivers/STM32F7xx_HAL_Driver/Inc/stm32f7xx_ll_bus.h ****   *         @arg @ref LL_APB1_GRP1_PERIPH_TIM5 
1194:Drivers/STM32F7xx_HAL_Driver/Inc/stm32f7xx_ll_bus.h ****   *         @arg @ref LL_APB1_GRP1_PERIPH_TIM6
1195:Drivers/STM32F7xx_HAL_Driver/Inc/stm32f7xx_ll_bus.h ****   *         @arg @ref LL_APB1_GRP1_PERIPH_TIM7
1196:Drivers/STM32F7xx_HAL_Driver/Inc/stm32f7xx_ll_bus.h ****   *         @arg @ref LL_APB1_GRP1_PERIPH_TIM12
1197:Drivers/STM32F7xx_HAL_Driver/Inc/stm32f7xx_ll_bus.h ****   *         @arg @ref LL_APB1_GRP1_PERIPH_TIM13
1198:Drivers/STM32F7xx_HAL_Driver/Inc/stm32f7xx_ll_bus.h ****   *         @arg @ref LL_APB1_GRP1_PERIPH_TIM14
1199:Drivers/STM32F7xx_HAL_Driver/Inc/stm32f7xx_ll_bus.h ****   *         @arg @ref LL_APB1_GRP1_PERIPH_LPTIM1
1200:Drivers/STM32F7xx_HAL_Driver/Inc/stm32f7xx_ll_bus.h ****   *         @arg @ref LL_APB1_GRP1_PERIPH_WWDG
1201:Drivers/STM32F7xx_HAL_Driver/Inc/stm32f7xx_ll_bus.h ****   *         @arg @ref LL_APB1_GRP1_PERIPH_SPI2 
1202:Drivers/STM32F7xx_HAL_Driver/Inc/stm32f7xx_ll_bus.h ****   *         @arg @ref LL_APB1_GRP1_PERIPH_SPI3
1203:Drivers/STM32F7xx_HAL_Driver/Inc/stm32f7xx_ll_bus.h ****   *         @arg @ref LL_APB1_GRP1_PERIPH_SPDIFRX (*)
1204:Drivers/STM32F7xx_HAL_Driver/Inc/stm32f7xx_ll_bus.h ****   *         @arg @ref LL_APB1_GRP1_PERIPH_USART2
1205:Drivers/STM32F7xx_HAL_Driver/Inc/stm32f7xx_ll_bus.h ****   *         @arg @ref LL_APB1_GRP1_PERIPH_USART3
1206:Drivers/STM32F7xx_HAL_Driver/Inc/stm32f7xx_ll_bus.h ****   *         @arg @ref LL_APB1_GRP1_PERIPH_UART4
1207:Drivers/STM32F7xx_HAL_Driver/Inc/stm32f7xx_ll_bus.h ****   *         @arg @ref LL_APB1_GRP1_PERIPH_UART5
1208:Drivers/STM32F7xx_HAL_Driver/Inc/stm32f7xx_ll_bus.h ****   *         @arg @ref LL_APB1_GRP1_PERIPH_I2C1
1209:Drivers/STM32F7xx_HAL_Driver/Inc/stm32f7xx_ll_bus.h ****   *         @arg @ref LL_APB1_GRP1_PERIPH_I2C2
1210:Drivers/STM32F7xx_HAL_Driver/Inc/stm32f7xx_ll_bus.h ****   *         @arg @ref LL_APB1_GRP1_PERIPH_I2C3
1211:Drivers/STM32F7xx_HAL_Driver/Inc/stm32f7xx_ll_bus.h ****   *         @arg @ref LL_APB1_GRP1_PERIPH_I2C4 (*)
1212:Drivers/STM32F7xx_HAL_Driver/Inc/stm32f7xx_ll_bus.h ****   *         @arg @ref LL_APB1_GRP1_PERIPH_CAN1
1213:Drivers/STM32F7xx_HAL_Driver/Inc/stm32f7xx_ll_bus.h ****   *         @arg @ref LL_APB1_GRP1_PERIPH_CAN2 (*)
1214:Drivers/STM32F7xx_HAL_Driver/Inc/stm32f7xx_ll_bus.h ****   *         @arg @ref LL_APB1_GRP1_PERIPH_CAN3 (*)
1215:Drivers/STM32F7xx_HAL_Driver/Inc/stm32f7xx_ll_bus.h ****   *         @arg @ref LL_APB1_GRP1_PERIPH_CEC  (*)
1216:Drivers/STM32F7xx_HAL_Driver/Inc/stm32f7xx_ll_bus.h ****   *         @arg @ref LL_APB1_GRP1_PERIPH_PWR
1217:Drivers/STM32F7xx_HAL_Driver/Inc/stm32f7xx_ll_bus.h ****   *         @arg @ref LL_APB1_GRP1_PERIPH_DAC1
ARM GAS  C:\Users\Giorgio\AppData\Local\Temp\ccpuEN3p.s 			page 42


1218:Drivers/STM32F7xx_HAL_Driver/Inc/stm32f7xx_ll_bus.h ****   *         @arg @ref LL_APB1_GRP1_PERIPH_UART7
1219:Drivers/STM32F7xx_HAL_Driver/Inc/stm32f7xx_ll_bus.h ****   *         @arg @ref LL_APB1_GRP1_PERIPH_UART8
1220:Drivers/STM32F7xx_HAL_Driver/Inc/stm32f7xx_ll_bus.h ****   *         @arg @ref LL_APB1_GRP1_PERIPH_RTCAPB (*)
1221:Drivers/STM32F7xx_HAL_Driver/Inc/stm32f7xx_ll_bus.h ****   *
1222:Drivers/STM32F7xx_HAL_Driver/Inc/stm32f7xx_ll_bus.h ****   *         (*) value not defined in all devices.
1223:Drivers/STM32F7xx_HAL_Driver/Inc/stm32f7xx_ll_bus.h ****   * @retval None
1224:Drivers/STM32F7xx_HAL_Driver/Inc/stm32f7xx_ll_bus.h **** */
1225:Drivers/STM32F7xx_HAL_Driver/Inc/stm32f7xx_ll_bus.h **** __STATIC_INLINE void LL_APB1_GRP1_DisableClock(uint32_t Periphs)
1226:Drivers/STM32F7xx_HAL_Driver/Inc/stm32f7xx_ll_bus.h **** {
1227:Drivers/STM32F7xx_HAL_Driver/Inc/stm32f7xx_ll_bus.h ****   CLEAR_BIT(RCC->APB1ENR, Periphs);
1228:Drivers/STM32F7xx_HAL_Driver/Inc/stm32f7xx_ll_bus.h **** }
1229:Drivers/STM32F7xx_HAL_Driver/Inc/stm32f7xx_ll_bus.h **** 
1230:Drivers/STM32F7xx_HAL_Driver/Inc/stm32f7xx_ll_bus.h **** /**
1231:Drivers/STM32F7xx_HAL_Driver/Inc/stm32f7xx_ll_bus.h ****   * @brief  Force APB1 peripherals reset.
1232:Drivers/STM32F7xx_HAL_Driver/Inc/stm32f7xx_ll_bus.h ****   * @rmtoll APB1RSTR     TIM2RST        LL_APB1_GRP1_ForceReset\n
1233:Drivers/STM32F7xx_HAL_Driver/Inc/stm32f7xx_ll_bus.h ****   *         APB1RSTR     TIM3RST        LL_APB1_GRP1_ForceReset\n
1234:Drivers/STM32F7xx_HAL_Driver/Inc/stm32f7xx_ll_bus.h ****   *         APB1RSTR     TIM4RST        LL_APB1_GRP1_ForceReset\n
1235:Drivers/STM32F7xx_HAL_Driver/Inc/stm32f7xx_ll_bus.h ****   *         APB1RSTR     TIM5RST        LL_APB1_GRP1_ForceReset\n
1236:Drivers/STM32F7xx_HAL_Driver/Inc/stm32f7xx_ll_bus.h ****   *         APB1RSTR     TIM6RST        LL_APB1_GRP1_ForceReset\n
1237:Drivers/STM32F7xx_HAL_Driver/Inc/stm32f7xx_ll_bus.h ****   *         APB1RSTR     TIM7RST        LL_APB1_GRP1_ForceReset\n
1238:Drivers/STM32F7xx_HAL_Driver/Inc/stm32f7xx_ll_bus.h ****   *         APB1RSTR     TIM12RST       LL_APB1_GRP1_ForceReset\n
1239:Drivers/STM32F7xx_HAL_Driver/Inc/stm32f7xx_ll_bus.h ****   *         APB1RSTR     TIM13RST       LL_APB1_GRP1_ForceReset\n
1240:Drivers/STM32F7xx_HAL_Driver/Inc/stm32f7xx_ll_bus.h ****   *         APB1RSTR     TIM14RST       LL_APB1_GRP1_ForceReset\n
1241:Drivers/STM32F7xx_HAL_Driver/Inc/stm32f7xx_ll_bus.h ****   *         APB1RSTR     LPTIM1RST      LL_APB1_GRP1_ForceReset\n
1242:Drivers/STM32F7xx_HAL_Driver/Inc/stm32f7xx_ll_bus.h ****   *         APB1RSTR     WWDGRST        LL_APB1_GRP1_ForceReset\n
1243:Drivers/STM32F7xx_HAL_Driver/Inc/stm32f7xx_ll_bus.h ****   *         APB1RSTR     SPI2RST        LL_APB1_GRP1_ForceReset\n
1244:Drivers/STM32F7xx_HAL_Driver/Inc/stm32f7xx_ll_bus.h ****   *         APB1RSTR     SPI3RST        LL_APB1_GRP1_ForceReset\n
1245:Drivers/STM32F7xx_HAL_Driver/Inc/stm32f7xx_ll_bus.h ****   *         APB1RSTR     SPDIFRXRST     LL_APB1_GRP1_ForceReset\n
1246:Drivers/STM32F7xx_HAL_Driver/Inc/stm32f7xx_ll_bus.h ****   *         APB1RSTR     USART2RST      LL_APB1_GRP1_ForceReset\n
1247:Drivers/STM32F7xx_HAL_Driver/Inc/stm32f7xx_ll_bus.h ****   *         APB1RSTR     USART3RST      LL_APB1_GRP1_ForceReset\n
1248:Drivers/STM32F7xx_HAL_Driver/Inc/stm32f7xx_ll_bus.h ****   *         APB1RSTR     UART4RST       LL_APB1_GRP1_ForceReset\n
1249:Drivers/STM32F7xx_HAL_Driver/Inc/stm32f7xx_ll_bus.h ****   *         APB1RSTR     UART5RST       LL_APB1_GRP1_ForceReset\n
1250:Drivers/STM32F7xx_HAL_Driver/Inc/stm32f7xx_ll_bus.h ****   *         APB1RSTR     I2C1RST        LL_APB1_GRP1_ForceReset\n
1251:Drivers/STM32F7xx_HAL_Driver/Inc/stm32f7xx_ll_bus.h ****   *         APB1RSTR     I2C2RST        LL_APB1_GRP1_ForceReset\n
1252:Drivers/STM32F7xx_HAL_Driver/Inc/stm32f7xx_ll_bus.h ****   *         APB1RSTR     I2C3RST        LL_APB1_GRP1_ForceReset\n
1253:Drivers/STM32F7xx_HAL_Driver/Inc/stm32f7xx_ll_bus.h ****   *         APB1RSTR     I2C4RST        LL_APB1_GRP1_ForceReset\n
1254:Drivers/STM32F7xx_HAL_Driver/Inc/stm32f7xx_ll_bus.h ****   *         APB1RSTR     CAN1RST        LL_APB1_GRP1_ForceReset\n
1255:Drivers/STM32F7xx_HAL_Driver/Inc/stm32f7xx_ll_bus.h ****   *         APB1RSTR     CAN2RST        LL_APB1_GRP1_ForceReset\n
1256:Drivers/STM32F7xx_HAL_Driver/Inc/stm32f7xx_ll_bus.h ****   *         APB1RSTR     CAN3RST        LL_APB1_GRP1_ForceReset\n
1257:Drivers/STM32F7xx_HAL_Driver/Inc/stm32f7xx_ll_bus.h ****   *         APB1RSTR     CECRST         LL_APB1_GRP1_ForceReset\n
1258:Drivers/STM32F7xx_HAL_Driver/Inc/stm32f7xx_ll_bus.h ****   *         APB1RSTR     PWRRST         LL_APB1_GRP1_ForceReset\n
1259:Drivers/STM32F7xx_HAL_Driver/Inc/stm32f7xx_ll_bus.h ****   *         APB1RSTR     DACRST         LL_APB1_GRP1_ForceReset\n
1260:Drivers/STM32F7xx_HAL_Driver/Inc/stm32f7xx_ll_bus.h ****   *         APB1RSTR     UART7RST       LL_APB1_GRP1_ForceReset\n
1261:Drivers/STM32F7xx_HAL_Driver/Inc/stm32f7xx_ll_bus.h ****   *         APB1RSTR     UART8RST       LL_APB1_GRP1_ForceReset
1262:Drivers/STM32F7xx_HAL_Driver/Inc/stm32f7xx_ll_bus.h ****   * @param  Periphs This parameter can be a combination of the following values:
1263:Drivers/STM32F7xx_HAL_Driver/Inc/stm32f7xx_ll_bus.h ****   *         @arg @ref LL_APB1_GRP1_PERIPH_TIM2
1264:Drivers/STM32F7xx_HAL_Driver/Inc/stm32f7xx_ll_bus.h ****   *         @arg @ref LL_APB1_GRP1_PERIPH_TIM3 
1265:Drivers/STM32F7xx_HAL_Driver/Inc/stm32f7xx_ll_bus.h ****   *         @arg @ref LL_APB1_GRP1_PERIPH_TIM4
1266:Drivers/STM32F7xx_HAL_Driver/Inc/stm32f7xx_ll_bus.h ****   *         @arg @ref LL_APB1_GRP1_PERIPH_TIM5 
1267:Drivers/STM32F7xx_HAL_Driver/Inc/stm32f7xx_ll_bus.h ****   *         @arg @ref LL_APB1_GRP1_PERIPH_TIM6
1268:Drivers/STM32F7xx_HAL_Driver/Inc/stm32f7xx_ll_bus.h ****   *         @arg @ref LL_APB1_GRP1_PERIPH_TIM7
1269:Drivers/STM32F7xx_HAL_Driver/Inc/stm32f7xx_ll_bus.h ****   *         @arg @ref LL_APB1_GRP1_PERIPH_TIM12
1270:Drivers/STM32F7xx_HAL_Driver/Inc/stm32f7xx_ll_bus.h ****   *         @arg @ref LL_APB1_GRP1_PERIPH_TIM13
1271:Drivers/STM32F7xx_HAL_Driver/Inc/stm32f7xx_ll_bus.h ****   *         @arg @ref LL_APB1_GRP1_PERIPH_TIM14
1272:Drivers/STM32F7xx_HAL_Driver/Inc/stm32f7xx_ll_bus.h ****   *         @arg @ref LL_APB1_GRP1_PERIPH_LPTIM1
1273:Drivers/STM32F7xx_HAL_Driver/Inc/stm32f7xx_ll_bus.h ****   *         @arg @ref LL_APB1_GRP1_PERIPH_WWDG
1274:Drivers/STM32F7xx_HAL_Driver/Inc/stm32f7xx_ll_bus.h ****   *         @arg @ref LL_APB1_GRP1_PERIPH_SPI2 
ARM GAS  C:\Users\Giorgio\AppData\Local\Temp\ccpuEN3p.s 			page 43


1275:Drivers/STM32F7xx_HAL_Driver/Inc/stm32f7xx_ll_bus.h ****   *         @arg @ref LL_APB1_GRP1_PERIPH_SPI3
1276:Drivers/STM32F7xx_HAL_Driver/Inc/stm32f7xx_ll_bus.h ****   *         @arg @ref LL_APB1_GRP1_PERIPH_SPDIFRX (*)
1277:Drivers/STM32F7xx_HAL_Driver/Inc/stm32f7xx_ll_bus.h ****   *         @arg @ref LL_APB1_GRP1_PERIPH_USART2
1278:Drivers/STM32F7xx_HAL_Driver/Inc/stm32f7xx_ll_bus.h ****   *         @arg @ref LL_APB1_GRP1_PERIPH_USART3
1279:Drivers/STM32F7xx_HAL_Driver/Inc/stm32f7xx_ll_bus.h ****   *         @arg @ref LL_APB1_GRP1_PERIPH_UART4
1280:Drivers/STM32F7xx_HAL_Driver/Inc/stm32f7xx_ll_bus.h ****   *         @arg @ref LL_APB1_GRP1_PERIPH_UART5
1281:Drivers/STM32F7xx_HAL_Driver/Inc/stm32f7xx_ll_bus.h ****   *         @arg @ref LL_APB1_GRP1_PERIPH_I2C1
1282:Drivers/STM32F7xx_HAL_Driver/Inc/stm32f7xx_ll_bus.h ****   *         @arg @ref LL_APB1_GRP1_PERIPH_I2C2
1283:Drivers/STM32F7xx_HAL_Driver/Inc/stm32f7xx_ll_bus.h ****   *         @arg @ref LL_APB1_GRP1_PERIPH_I2C3
1284:Drivers/STM32F7xx_HAL_Driver/Inc/stm32f7xx_ll_bus.h ****   *         @arg @ref LL_APB1_GRP1_PERIPH_I2C4 (*)
1285:Drivers/STM32F7xx_HAL_Driver/Inc/stm32f7xx_ll_bus.h ****   *         @arg @ref LL_APB1_GRP1_PERIPH_CAN1
1286:Drivers/STM32F7xx_HAL_Driver/Inc/stm32f7xx_ll_bus.h ****   *         @arg @ref LL_APB1_GRP1_PERIPH_CAN2 (*)
1287:Drivers/STM32F7xx_HAL_Driver/Inc/stm32f7xx_ll_bus.h ****   *         @arg @ref LL_APB1_GRP1_PERIPH_CAN3 (*)
1288:Drivers/STM32F7xx_HAL_Driver/Inc/stm32f7xx_ll_bus.h ****   *         @arg @ref LL_APB1_GRP1_PERIPH_CEC  (*)
1289:Drivers/STM32F7xx_HAL_Driver/Inc/stm32f7xx_ll_bus.h ****   *         @arg @ref LL_APB1_GRP1_PERIPH_PWR
1290:Drivers/STM32F7xx_HAL_Driver/Inc/stm32f7xx_ll_bus.h ****   *         @arg @ref LL_APB1_GRP1_PERIPH_DAC1
1291:Drivers/STM32F7xx_HAL_Driver/Inc/stm32f7xx_ll_bus.h ****   *         @arg @ref LL_APB1_GRP1_PERIPH_UART7
1292:Drivers/STM32F7xx_HAL_Driver/Inc/stm32f7xx_ll_bus.h ****   *         @arg @ref LL_APB1_GRP1_PERIPH_UART8
1293:Drivers/STM32F7xx_HAL_Driver/Inc/stm32f7xx_ll_bus.h ****   *
1294:Drivers/STM32F7xx_HAL_Driver/Inc/stm32f7xx_ll_bus.h ****   *         (*) value not defined in all devices.
1295:Drivers/STM32F7xx_HAL_Driver/Inc/stm32f7xx_ll_bus.h ****   * @retval None
1296:Drivers/STM32F7xx_HAL_Driver/Inc/stm32f7xx_ll_bus.h **** */
1297:Drivers/STM32F7xx_HAL_Driver/Inc/stm32f7xx_ll_bus.h **** __STATIC_INLINE void LL_APB1_GRP1_ForceReset(uint32_t Periphs)
1298:Drivers/STM32F7xx_HAL_Driver/Inc/stm32f7xx_ll_bus.h **** {
1299:Drivers/STM32F7xx_HAL_Driver/Inc/stm32f7xx_ll_bus.h ****   SET_BIT(RCC->APB1RSTR, Periphs);
1300:Drivers/STM32F7xx_HAL_Driver/Inc/stm32f7xx_ll_bus.h **** }
1301:Drivers/STM32F7xx_HAL_Driver/Inc/stm32f7xx_ll_bus.h **** 
1302:Drivers/STM32F7xx_HAL_Driver/Inc/stm32f7xx_ll_bus.h **** /**
1303:Drivers/STM32F7xx_HAL_Driver/Inc/stm32f7xx_ll_bus.h ****   * @brief  Release APB1 peripherals reset.
1304:Drivers/STM32F7xx_HAL_Driver/Inc/stm32f7xx_ll_bus.h ****   * @rmtoll APB1RSTR     TIM2RST        LL_APB1_GRP1_ReleaseReset\n
1305:Drivers/STM32F7xx_HAL_Driver/Inc/stm32f7xx_ll_bus.h ****   *         APB1RSTR     TIM3RST        LL_APB1_GRP1_ReleaseReset\n
1306:Drivers/STM32F7xx_HAL_Driver/Inc/stm32f7xx_ll_bus.h ****   *         APB1RSTR     TIM4RST        LL_APB1_GRP1_ReleaseReset\n
1307:Drivers/STM32F7xx_HAL_Driver/Inc/stm32f7xx_ll_bus.h ****   *         APB1RSTR     TIM5RST        LL_APB1_GRP1_ReleaseReset\n
1308:Drivers/STM32F7xx_HAL_Driver/Inc/stm32f7xx_ll_bus.h ****   *         APB1RSTR     TIM6RST        LL_APB1_GRP1_ReleaseReset\n
1309:Drivers/STM32F7xx_HAL_Driver/Inc/stm32f7xx_ll_bus.h ****   *         APB1RSTR     TIM7RST        LL_APB1_GRP1_ReleaseReset\n
1310:Drivers/STM32F7xx_HAL_Driver/Inc/stm32f7xx_ll_bus.h ****   *         APB1RSTR     TIM12RST       LL_APB1_GRP1_ReleaseReset\n
1311:Drivers/STM32F7xx_HAL_Driver/Inc/stm32f7xx_ll_bus.h ****   *         APB1RSTR     TIM13RST       LL_APB1_GRP1_ReleaseReset\n
1312:Drivers/STM32F7xx_HAL_Driver/Inc/stm32f7xx_ll_bus.h ****   *         APB1RSTR     TIM14RST       LL_APB1_GRP1_ReleaseReset\n
1313:Drivers/STM32F7xx_HAL_Driver/Inc/stm32f7xx_ll_bus.h ****   *         APB1RSTR     LPTIM1RST      LL_APB1_GRP1_ReleaseReset\n
1314:Drivers/STM32F7xx_HAL_Driver/Inc/stm32f7xx_ll_bus.h ****   *         APB1RSTR     WWDGRST        LL_APB1_GRP1_ReleaseReset\n
1315:Drivers/STM32F7xx_HAL_Driver/Inc/stm32f7xx_ll_bus.h ****   *         APB1RSTR     SPI2RST        LL_APB1_GRP1_ReleaseReset\n
1316:Drivers/STM32F7xx_HAL_Driver/Inc/stm32f7xx_ll_bus.h ****   *         APB1RSTR     SPI3RST        LL_APB1_GRP1_ReleaseReset\n
1317:Drivers/STM32F7xx_HAL_Driver/Inc/stm32f7xx_ll_bus.h ****   *         APB1RSTR     SPDIFRXRST     LL_APB1_GRP1_ReleaseReset\n
1318:Drivers/STM32F7xx_HAL_Driver/Inc/stm32f7xx_ll_bus.h ****   *         APB1RSTR     USART2RST      LL_APB1_GRP1_ReleaseReset\n
1319:Drivers/STM32F7xx_HAL_Driver/Inc/stm32f7xx_ll_bus.h ****   *         APB1RSTR     USART3RST      LL_APB1_GRP1_ReleaseReset\n
1320:Drivers/STM32F7xx_HAL_Driver/Inc/stm32f7xx_ll_bus.h ****   *         APB1RSTR     UART4RST       LL_APB1_GRP1_ReleaseReset\n
1321:Drivers/STM32F7xx_HAL_Driver/Inc/stm32f7xx_ll_bus.h ****   *         APB1RSTR     UART5RST       LL_APB1_GRP1_ReleaseReset\n
1322:Drivers/STM32F7xx_HAL_Driver/Inc/stm32f7xx_ll_bus.h ****   *         APB1RSTR     I2C1RST        LL_APB1_GRP1_ReleaseReset\n
1323:Drivers/STM32F7xx_HAL_Driver/Inc/stm32f7xx_ll_bus.h ****   *         APB1RSTR     I2C2RST        LL_APB1_GRP1_ReleaseReset\n
1324:Drivers/STM32F7xx_HAL_Driver/Inc/stm32f7xx_ll_bus.h ****   *         APB1RSTR     I2C3RST        LL_APB1_GRP1_ReleaseReset\n
1325:Drivers/STM32F7xx_HAL_Driver/Inc/stm32f7xx_ll_bus.h ****   *         APB1RSTR     I2C4RST        LL_APB1_GRP1_ReleaseReset\n
1326:Drivers/STM32F7xx_HAL_Driver/Inc/stm32f7xx_ll_bus.h ****   *         APB1RSTR     CAN1RST        LL_APB1_GRP1_ReleaseReset\n
1327:Drivers/STM32F7xx_HAL_Driver/Inc/stm32f7xx_ll_bus.h ****   *         APB1RSTR     CAN2RST        LL_APB1_GRP1_ReleaseReset\n
1328:Drivers/STM32F7xx_HAL_Driver/Inc/stm32f7xx_ll_bus.h ****   *         APB1RSTR     CAN3RST        LL_APB1_GRP1_ReleaseReset\n
1329:Drivers/STM32F7xx_HAL_Driver/Inc/stm32f7xx_ll_bus.h ****   *         APB1RSTR     CECRST         LL_APB1_GRP1_ReleaseReset\n
1330:Drivers/STM32F7xx_HAL_Driver/Inc/stm32f7xx_ll_bus.h ****   *         APB1RSTR     PWRRST         LL_APB1_GRP1_ReleaseReset\n
1331:Drivers/STM32F7xx_HAL_Driver/Inc/stm32f7xx_ll_bus.h ****   *         APB1RSTR     DACRST         LL_APB1_GRP1_ReleaseReset\n
ARM GAS  C:\Users\Giorgio\AppData\Local\Temp\ccpuEN3p.s 			page 44


1332:Drivers/STM32F7xx_HAL_Driver/Inc/stm32f7xx_ll_bus.h ****   *         APB1RSTR     UART7RST       LL_APB1_GRP1_ReleaseReset\n
1333:Drivers/STM32F7xx_HAL_Driver/Inc/stm32f7xx_ll_bus.h ****   *         APB1RSTR     UART8RST       LL_APB1_GRP1_ReleaseReset
1334:Drivers/STM32F7xx_HAL_Driver/Inc/stm32f7xx_ll_bus.h ****   * @param  Periphs This parameter can be a combination of the following values:
1335:Drivers/STM32F7xx_HAL_Driver/Inc/stm32f7xx_ll_bus.h ****   *         @arg @ref LL_APB1_GRP1_PERIPH_TIM2
1336:Drivers/STM32F7xx_HAL_Driver/Inc/stm32f7xx_ll_bus.h ****   *         @arg @ref LL_APB1_GRP1_PERIPH_TIM3 
1337:Drivers/STM32F7xx_HAL_Driver/Inc/stm32f7xx_ll_bus.h ****   *         @arg @ref LL_APB1_GRP1_PERIPH_TIM4
1338:Drivers/STM32F7xx_HAL_Driver/Inc/stm32f7xx_ll_bus.h ****   *         @arg @ref LL_APB1_GRP1_PERIPH_TIM5 
1339:Drivers/STM32F7xx_HAL_Driver/Inc/stm32f7xx_ll_bus.h ****   *         @arg @ref LL_APB1_GRP1_PERIPH_TIM6
1340:Drivers/STM32F7xx_HAL_Driver/Inc/stm32f7xx_ll_bus.h ****   *         @arg @ref LL_APB1_GRP1_PERIPH_TIM7
1341:Drivers/STM32F7xx_HAL_Driver/Inc/stm32f7xx_ll_bus.h ****   *         @arg @ref LL_APB1_GRP1_PERIPH_TIM12
1342:Drivers/STM32F7xx_HAL_Driver/Inc/stm32f7xx_ll_bus.h ****   *         @arg @ref LL_APB1_GRP1_PERIPH_TIM13
1343:Drivers/STM32F7xx_HAL_Driver/Inc/stm32f7xx_ll_bus.h ****   *         @arg @ref LL_APB1_GRP1_PERIPH_TIM14
1344:Drivers/STM32F7xx_HAL_Driver/Inc/stm32f7xx_ll_bus.h ****   *         @arg @ref LL_APB1_GRP1_PERIPH_LPTIM1
1345:Drivers/STM32F7xx_HAL_Driver/Inc/stm32f7xx_ll_bus.h ****   *         @arg @ref LL_APB1_GRP1_PERIPH_WWDG
1346:Drivers/STM32F7xx_HAL_Driver/Inc/stm32f7xx_ll_bus.h ****   *         @arg @ref LL_APB1_GRP1_PERIPH_SPI2 
1347:Drivers/STM32F7xx_HAL_Driver/Inc/stm32f7xx_ll_bus.h ****   *         @arg @ref LL_APB1_GRP1_PERIPH_SPI3
1348:Drivers/STM32F7xx_HAL_Driver/Inc/stm32f7xx_ll_bus.h ****   *         @arg @ref LL_APB1_GRP1_PERIPH_SPDIFRX (*)
1349:Drivers/STM32F7xx_HAL_Driver/Inc/stm32f7xx_ll_bus.h ****   *         @arg @ref LL_APB1_GRP1_PERIPH_USART2
1350:Drivers/STM32F7xx_HAL_Driver/Inc/stm32f7xx_ll_bus.h ****   *         @arg @ref LL_APB1_GRP1_PERIPH_USART3
1351:Drivers/STM32F7xx_HAL_Driver/Inc/stm32f7xx_ll_bus.h ****   *         @arg @ref LL_APB1_GRP1_PERIPH_UART4
1352:Drivers/STM32F7xx_HAL_Driver/Inc/stm32f7xx_ll_bus.h ****   *         @arg @ref LL_APB1_GRP1_PERIPH_UART5
1353:Drivers/STM32F7xx_HAL_Driver/Inc/stm32f7xx_ll_bus.h ****   *         @arg @ref LL_APB1_GRP1_PERIPH_I2C1
1354:Drivers/STM32F7xx_HAL_Driver/Inc/stm32f7xx_ll_bus.h ****   *         @arg @ref LL_APB1_GRP1_PERIPH_I2C2
1355:Drivers/STM32F7xx_HAL_Driver/Inc/stm32f7xx_ll_bus.h ****   *         @arg @ref LL_APB1_GRP1_PERIPH_I2C3
1356:Drivers/STM32F7xx_HAL_Driver/Inc/stm32f7xx_ll_bus.h ****   *         @arg @ref LL_APB1_GRP1_PERIPH_I2C4 (*)
1357:Drivers/STM32F7xx_HAL_Driver/Inc/stm32f7xx_ll_bus.h ****   *         @arg @ref LL_APB1_GRP1_PERIPH_CAN1
1358:Drivers/STM32F7xx_HAL_Driver/Inc/stm32f7xx_ll_bus.h ****   *         @arg @ref LL_APB1_GRP1_PERIPH_CAN2 (*)
1359:Drivers/STM32F7xx_HAL_Driver/Inc/stm32f7xx_ll_bus.h ****   *         @arg @ref LL_APB1_GRP1_PERIPH_CAN3 (*)
1360:Drivers/STM32F7xx_HAL_Driver/Inc/stm32f7xx_ll_bus.h ****   *         @arg @ref LL_APB1_GRP1_PERIPH_CEC  (*)
1361:Drivers/STM32F7xx_HAL_Driver/Inc/stm32f7xx_ll_bus.h ****   *         @arg @ref LL_APB1_GRP1_PERIPH_PWR
1362:Drivers/STM32F7xx_HAL_Driver/Inc/stm32f7xx_ll_bus.h ****   *         @arg @ref LL_APB1_GRP1_PERIPH_DAC1
1363:Drivers/STM32F7xx_HAL_Driver/Inc/stm32f7xx_ll_bus.h ****   *         @arg @ref LL_APB1_GRP1_PERIPH_UART7
1364:Drivers/STM32F7xx_HAL_Driver/Inc/stm32f7xx_ll_bus.h ****   *         @arg @ref LL_APB1_GRP1_PERIPH_UART8
1365:Drivers/STM32F7xx_HAL_Driver/Inc/stm32f7xx_ll_bus.h ****   *
1366:Drivers/STM32F7xx_HAL_Driver/Inc/stm32f7xx_ll_bus.h ****   *         (*) value not defined in all devices.
1367:Drivers/STM32F7xx_HAL_Driver/Inc/stm32f7xx_ll_bus.h ****   * @retval None
1368:Drivers/STM32F7xx_HAL_Driver/Inc/stm32f7xx_ll_bus.h **** */
1369:Drivers/STM32F7xx_HAL_Driver/Inc/stm32f7xx_ll_bus.h **** __STATIC_INLINE void LL_APB1_GRP1_ReleaseReset(uint32_t Periphs)
1370:Drivers/STM32F7xx_HAL_Driver/Inc/stm32f7xx_ll_bus.h **** {
1371:Drivers/STM32F7xx_HAL_Driver/Inc/stm32f7xx_ll_bus.h ****   CLEAR_BIT(RCC->APB1RSTR, Periphs);
1372:Drivers/STM32F7xx_HAL_Driver/Inc/stm32f7xx_ll_bus.h **** }
1373:Drivers/STM32F7xx_HAL_Driver/Inc/stm32f7xx_ll_bus.h **** 
1374:Drivers/STM32F7xx_HAL_Driver/Inc/stm32f7xx_ll_bus.h **** /**
1375:Drivers/STM32F7xx_HAL_Driver/Inc/stm32f7xx_ll_bus.h ****   * @brief  Enable APB1 peripheral clocks in low-power mode
1376:Drivers/STM32F7xx_HAL_Driver/Inc/stm32f7xx_ll_bus.h ****   * @rmtoll APB1LPENR     TIM2LPEN        LL_APB1_GRP1_EnableClockLowPower\n
1377:Drivers/STM32F7xx_HAL_Driver/Inc/stm32f7xx_ll_bus.h ****   *         APB1LPENR     TIM3LPEN        LL_APB1_GRP1_EnableClockLowPower\n
1378:Drivers/STM32F7xx_HAL_Driver/Inc/stm32f7xx_ll_bus.h ****   *         APB1LPENR     TIM4LPEN        LL_APB1_GRP1_EnableClockLowPower\n
1379:Drivers/STM32F7xx_HAL_Driver/Inc/stm32f7xx_ll_bus.h ****   *         APB1LPENR     TIM5LPEN        LL_APB1_GRP1_EnableClockLowPower\n
1380:Drivers/STM32F7xx_HAL_Driver/Inc/stm32f7xx_ll_bus.h ****   *         APB1LPENR     TIM6LPEN        LL_APB1_GRP1_EnableClockLowPower\n
1381:Drivers/STM32F7xx_HAL_Driver/Inc/stm32f7xx_ll_bus.h ****   *         APB1LPENR     TIM7LPEN        LL_APB1_GRP1_EnableClockLowPower\n
1382:Drivers/STM32F7xx_HAL_Driver/Inc/stm32f7xx_ll_bus.h ****   *         APB1LPENR     TIM12LPEN       LL_APB1_GRP1_EnableClockLowPower\n
1383:Drivers/STM32F7xx_HAL_Driver/Inc/stm32f7xx_ll_bus.h ****   *         APB1LPENR     TIM13LPEN       LL_APB1_GRP1_EnableClockLowPower\n
1384:Drivers/STM32F7xx_HAL_Driver/Inc/stm32f7xx_ll_bus.h ****   *         APB1LPENR     TIM14LPEN       LL_APB1_GRP1_EnableClockLowPower\n
1385:Drivers/STM32F7xx_HAL_Driver/Inc/stm32f7xx_ll_bus.h ****   *         APB1LPENR     LPTIM1LPEN      LL_APB1_GRP1_EnableClockLowPower\n
1386:Drivers/STM32F7xx_HAL_Driver/Inc/stm32f7xx_ll_bus.h ****   *         APB1LPENR     WWDGLPEN        LL_APB1_GRP1_EnableClockLowPower\n
1387:Drivers/STM32F7xx_HAL_Driver/Inc/stm32f7xx_ll_bus.h ****   *         APB1LPENR     SPI2LPEN        LL_APB1_GRP1_EnableClockLowPower\n
1388:Drivers/STM32F7xx_HAL_Driver/Inc/stm32f7xx_ll_bus.h ****   *         APB1LPENR     SPI3LPEN        LL_APB1_GRP1_EnableClockLowPower\n
ARM GAS  C:\Users\Giorgio\AppData\Local\Temp\ccpuEN3p.s 			page 45


1389:Drivers/STM32F7xx_HAL_Driver/Inc/stm32f7xx_ll_bus.h ****   *         APB1LPENR     SPDIFRXLPEN     LL_APB1_GRP1_EnableClockLowPower\n
1390:Drivers/STM32F7xx_HAL_Driver/Inc/stm32f7xx_ll_bus.h ****   *         APB1LPENR     USART2LPEN      LL_APB1_GRP1_EnableClockLowPower\n
1391:Drivers/STM32F7xx_HAL_Driver/Inc/stm32f7xx_ll_bus.h ****   *         APB1LPENR     USART3LPEN      LL_APB1_GRP1_EnableClockLowPower\n
1392:Drivers/STM32F7xx_HAL_Driver/Inc/stm32f7xx_ll_bus.h ****   *         APB1LPENR     UART4LPEN       LL_APB1_GRP1_EnableClockLowPower\n
1393:Drivers/STM32F7xx_HAL_Driver/Inc/stm32f7xx_ll_bus.h ****   *         APB1LPENR     UART5LPEN       LL_APB1_GRP1_EnableClockLowPower\n
1394:Drivers/STM32F7xx_HAL_Driver/Inc/stm32f7xx_ll_bus.h ****   *         APB1LPENR     I2C1LPEN        LL_APB1_GRP1_EnableClockLowPower\n
1395:Drivers/STM32F7xx_HAL_Driver/Inc/stm32f7xx_ll_bus.h ****   *         APB1LPENR     I2C2LPEN        LL_APB1_GRP1_EnableClockLowPower\n
1396:Drivers/STM32F7xx_HAL_Driver/Inc/stm32f7xx_ll_bus.h ****   *         APB1LPENR     I2C3LPEN        LL_APB1_GRP1_EnableClockLowPower\n
1397:Drivers/STM32F7xx_HAL_Driver/Inc/stm32f7xx_ll_bus.h ****   *         APB1LPENR     I2C4LPEN        LL_APB1_GRP1_EnableClockLowPower\n
1398:Drivers/STM32F7xx_HAL_Driver/Inc/stm32f7xx_ll_bus.h ****   *         APB1LPENR     CAN1LPEN        LL_APB1_GRP1_EnableClockLowPower\n
1399:Drivers/STM32F7xx_HAL_Driver/Inc/stm32f7xx_ll_bus.h ****   *         APB1LPENR     CAN2LPEN        LL_APB1_GRP1_EnableClockLowPower\n
1400:Drivers/STM32F7xx_HAL_Driver/Inc/stm32f7xx_ll_bus.h ****   *         APB1LPENR     CAN3LPEN        LL_APB1_GRP1_EnableClockLowPower\n
1401:Drivers/STM32F7xx_HAL_Driver/Inc/stm32f7xx_ll_bus.h ****   *         APB1LPENR     CECLPEN         LL_APB1_GRP1_EnableClockLowPower\n
1402:Drivers/STM32F7xx_HAL_Driver/Inc/stm32f7xx_ll_bus.h ****   *         APB1LPENR     PWRLPEN         LL_APB1_GRP1_EnableClockLowPower\n
1403:Drivers/STM32F7xx_HAL_Driver/Inc/stm32f7xx_ll_bus.h ****   *         APB1LPENR     DACLPEN         LL_APB1_GRP1_EnableClockLowPower\n
1404:Drivers/STM32F7xx_HAL_Driver/Inc/stm32f7xx_ll_bus.h ****   *         APB1LPENR     UART7LPEN       LL_APB1_GRP1_EnableClockLowPower\n
1405:Drivers/STM32F7xx_HAL_Driver/Inc/stm32f7xx_ll_bus.h ****   *         APB1LPENR     UART8LPEN       LL_APB1_GRP1_EnableClockLowPower\n
1406:Drivers/STM32F7xx_HAL_Driver/Inc/stm32f7xx_ll_bus.h ****   *         APB1LPENR     RTCLPEN         LL_APB1_GRP1_EnableClockLowPower
1407:Drivers/STM32F7xx_HAL_Driver/Inc/stm32f7xx_ll_bus.h ****   * @param  Periphs This parameter can be a combination of the following values:
1408:Drivers/STM32F7xx_HAL_Driver/Inc/stm32f7xx_ll_bus.h ****   *         @arg @ref LL_APB1_GRP1_PERIPH_TIM2
1409:Drivers/STM32F7xx_HAL_Driver/Inc/stm32f7xx_ll_bus.h ****   *         @arg @ref LL_APB1_GRP1_PERIPH_TIM3 
1410:Drivers/STM32F7xx_HAL_Driver/Inc/stm32f7xx_ll_bus.h ****   *         @arg @ref LL_APB1_GRP1_PERIPH_TIM4
1411:Drivers/STM32F7xx_HAL_Driver/Inc/stm32f7xx_ll_bus.h ****   *         @arg @ref LL_APB1_GRP1_PERIPH_TIM5 
1412:Drivers/STM32F7xx_HAL_Driver/Inc/stm32f7xx_ll_bus.h ****   *         @arg @ref LL_APB1_GRP1_PERIPH_TIM6
1413:Drivers/STM32F7xx_HAL_Driver/Inc/stm32f7xx_ll_bus.h ****   *         @arg @ref LL_APB1_GRP1_PERIPH_TIM7
1414:Drivers/STM32F7xx_HAL_Driver/Inc/stm32f7xx_ll_bus.h ****   *         @arg @ref LL_APB1_GRP1_PERIPH_TIM12
1415:Drivers/STM32F7xx_HAL_Driver/Inc/stm32f7xx_ll_bus.h ****   *         @arg @ref LL_APB1_GRP1_PERIPH_TIM13
1416:Drivers/STM32F7xx_HAL_Driver/Inc/stm32f7xx_ll_bus.h ****   *         @arg @ref LL_APB1_GRP1_PERIPH_TIM14
1417:Drivers/STM32F7xx_HAL_Driver/Inc/stm32f7xx_ll_bus.h ****   *         @arg @ref LL_APB1_GRP1_PERIPH_LPTIM1
1418:Drivers/STM32F7xx_HAL_Driver/Inc/stm32f7xx_ll_bus.h ****   *         @arg @ref LL_APB1_GRP1_PERIPH_WWDG
1419:Drivers/STM32F7xx_HAL_Driver/Inc/stm32f7xx_ll_bus.h ****   *         @arg @ref LL_APB1_GRP1_PERIPH_SPI2 
1420:Drivers/STM32F7xx_HAL_Driver/Inc/stm32f7xx_ll_bus.h ****   *         @arg @ref LL_APB1_GRP1_PERIPH_SPI3
1421:Drivers/STM32F7xx_HAL_Driver/Inc/stm32f7xx_ll_bus.h ****   *         @arg @ref LL_APB1_GRP1_PERIPH_SPDIFRX (*)
1422:Drivers/STM32F7xx_HAL_Driver/Inc/stm32f7xx_ll_bus.h ****   *         @arg @ref LL_APB1_GRP1_PERIPH_USART2
1423:Drivers/STM32F7xx_HAL_Driver/Inc/stm32f7xx_ll_bus.h ****   *         @arg @ref LL_APB1_GRP1_PERIPH_USART3
1424:Drivers/STM32F7xx_HAL_Driver/Inc/stm32f7xx_ll_bus.h ****   *         @arg @ref LL_APB1_GRP1_PERIPH_UART4
1425:Drivers/STM32F7xx_HAL_Driver/Inc/stm32f7xx_ll_bus.h ****   *         @arg @ref LL_APB1_GRP1_PERIPH_UART5
1426:Drivers/STM32F7xx_HAL_Driver/Inc/stm32f7xx_ll_bus.h ****   *         @arg @ref LL_APB1_GRP1_PERIPH_I2C1
1427:Drivers/STM32F7xx_HAL_Driver/Inc/stm32f7xx_ll_bus.h ****   *         @arg @ref LL_APB1_GRP1_PERIPH_I2C2
1428:Drivers/STM32F7xx_HAL_Driver/Inc/stm32f7xx_ll_bus.h ****   *         @arg @ref LL_APB1_GRP1_PERIPH_I2C3
1429:Drivers/STM32F7xx_HAL_Driver/Inc/stm32f7xx_ll_bus.h ****   *         @arg @ref LL_APB1_GRP1_PERIPH_I2C4 (*)
1430:Drivers/STM32F7xx_HAL_Driver/Inc/stm32f7xx_ll_bus.h ****   *         @arg @ref LL_APB1_GRP1_PERIPH_CAN1
1431:Drivers/STM32F7xx_HAL_Driver/Inc/stm32f7xx_ll_bus.h ****   *         @arg @ref LL_APB1_GRP1_PERIPH_CAN2 (*)
1432:Drivers/STM32F7xx_HAL_Driver/Inc/stm32f7xx_ll_bus.h ****   *         @arg @ref LL_APB1_GRP1_PERIPH_CAN3 (*)
1433:Drivers/STM32F7xx_HAL_Driver/Inc/stm32f7xx_ll_bus.h ****   *         @arg @ref LL_APB1_GRP1_PERIPH_CEC  (*)
1434:Drivers/STM32F7xx_HAL_Driver/Inc/stm32f7xx_ll_bus.h ****   *         @arg @ref LL_APB1_GRP1_PERIPH_PWR
1435:Drivers/STM32F7xx_HAL_Driver/Inc/stm32f7xx_ll_bus.h ****   *         @arg @ref LL_APB1_GRP1_PERIPH_DAC1
1436:Drivers/STM32F7xx_HAL_Driver/Inc/stm32f7xx_ll_bus.h ****   *         @arg @ref LL_APB1_GRP1_PERIPH_UART7
1437:Drivers/STM32F7xx_HAL_Driver/Inc/stm32f7xx_ll_bus.h ****   *         @arg @ref LL_APB1_GRP1_PERIPH_UART8
1438:Drivers/STM32F7xx_HAL_Driver/Inc/stm32f7xx_ll_bus.h ****   *         @arg @ref LL_APB1_GRP1_PERIPH_RTCAPB (*)
1439:Drivers/STM32F7xx_HAL_Driver/Inc/stm32f7xx_ll_bus.h ****   *
1440:Drivers/STM32F7xx_HAL_Driver/Inc/stm32f7xx_ll_bus.h ****   *         (*) value not defined in all devices.
1441:Drivers/STM32F7xx_HAL_Driver/Inc/stm32f7xx_ll_bus.h ****   * @retval None
1442:Drivers/STM32F7xx_HAL_Driver/Inc/stm32f7xx_ll_bus.h **** */
1443:Drivers/STM32F7xx_HAL_Driver/Inc/stm32f7xx_ll_bus.h **** __STATIC_INLINE void LL_APB1_GRP1_EnableClockLowPower(uint32_t Periphs)
1444:Drivers/STM32F7xx_HAL_Driver/Inc/stm32f7xx_ll_bus.h **** {
1445:Drivers/STM32F7xx_HAL_Driver/Inc/stm32f7xx_ll_bus.h ****   __IO uint32_t tmpreg;
ARM GAS  C:\Users\Giorgio\AppData\Local\Temp\ccpuEN3p.s 			page 46


1446:Drivers/STM32F7xx_HAL_Driver/Inc/stm32f7xx_ll_bus.h ****   SET_BIT(RCC->APB1LPENR, Periphs);
1447:Drivers/STM32F7xx_HAL_Driver/Inc/stm32f7xx_ll_bus.h ****   /* Delay after an RCC peripheral clock enabling */
1448:Drivers/STM32F7xx_HAL_Driver/Inc/stm32f7xx_ll_bus.h ****   tmpreg = READ_BIT(RCC->APB1LPENR, Periphs);
1449:Drivers/STM32F7xx_HAL_Driver/Inc/stm32f7xx_ll_bus.h ****   (void)tmpreg;
1450:Drivers/STM32F7xx_HAL_Driver/Inc/stm32f7xx_ll_bus.h **** }
1451:Drivers/STM32F7xx_HAL_Driver/Inc/stm32f7xx_ll_bus.h **** 
1452:Drivers/STM32F7xx_HAL_Driver/Inc/stm32f7xx_ll_bus.h **** /**
1453:Drivers/STM32F7xx_HAL_Driver/Inc/stm32f7xx_ll_bus.h ****   * @brief  Disable APB1 peripheral clocks in low-power mode
1454:Drivers/STM32F7xx_HAL_Driver/Inc/stm32f7xx_ll_bus.h ****   * @rmtoll APB1LPENR     TIM2LPEN        LL_APB1_GRP1_DisableClockLowPower\n
1455:Drivers/STM32F7xx_HAL_Driver/Inc/stm32f7xx_ll_bus.h ****   *         APB1LPENR     TIM3LPEN        LL_APB1_GRP1_DisableClockLowPower\n
1456:Drivers/STM32F7xx_HAL_Driver/Inc/stm32f7xx_ll_bus.h ****   *         APB1LPENR     TIM4LPEN        LL_APB1_GRP1_DisableClockLowPower\n
1457:Drivers/STM32F7xx_HAL_Driver/Inc/stm32f7xx_ll_bus.h ****   *         APB1LPENR     TIM5LPEN        LL_APB1_GRP1_DisableClockLowPower\n
1458:Drivers/STM32F7xx_HAL_Driver/Inc/stm32f7xx_ll_bus.h ****   *         APB1LPENR     TIM6LPEN        LL_APB1_GRP1_DisableClockLowPower\n
1459:Drivers/STM32F7xx_HAL_Driver/Inc/stm32f7xx_ll_bus.h ****   *         APB1LPENR     TIM7LPEN        LL_APB1_GRP1_DisableClockLowPower\n
1460:Drivers/STM32F7xx_HAL_Driver/Inc/stm32f7xx_ll_bus.h ****   *         APB1LPENR     TIM12LPEN       LL_APB1_GRP1_DisableClockLowPower\n
1461:Drivers/STM32F7xx_HAL_Driver/Inc/stm32f7xx_ll_bus.h ****   *         APB1LPENR     TIM13LPEN       LL_APB1_GRP1_DisableClockLowPower\n
1462:Drivers/STM32F7xx_HAL_Driver/Inc/stm32f7xx_ll_bus.h ****   *         APB1LPENR     TIM14LPEN       LL_APB1_GRP1_DisableClockLowPower\n
1463:Drivers/STM32F7xx_HAL_Driver/Inc/stm32f7xx_ll_bus.h ****   *         APB1LPENR     LPTIM1LPEN      LL_APB1_GRP1_DisableClockLowPower\n
1464:Drivers/STM32F7xx_HAL_Driver/Inc/stm32f7xx_ll_bus.h ****   *         APB1LPENR     WWDGLPEN        LL_APB1_GRP1_DisableClockLowPower\n
1465:Drivers/STM32F7xx_HAL_Driver/Inc/stm32f7xx_ll_bus.h ****   *         APB1LPENR     SPI2LPEN        LL_APB1_GRP1_DisableClockLowPower\n
1466:Drivers/STM32F7xx_HAL_Driver/Inc/stm32f7xx_ll_bus.h ****   *         APB1LPENR     SPI3LPEN        LL_APB1_GRP1_DisableClockLowPower\n
1467:Drivers/STM32F7xx_HAL_Driver/Inc/stm32f7xx_ll_bus.h ****   *         APB1LPENR     SPDIFRXLPEN     LL_APB1_GRP1_DisableClockLowPower\n
1468:Drivers/STM32F7xx_HAL_Driver/Inc/stm32f7xx_ll_bus.h ****   *         APB1LPENR     USART2LPEN      LL_APB1_GRP1_DisableClockLowPower\n
1469:Drivers/STM32F7xx_HAL_Driver/Inc/stm32f7xx_ll_bus.h ****   *         APB1LPENR     USART3LPEN      LL_APB1_GRP1_DisableClockLowPower\n
1470:Drivers/STM32F7xx_HAL_Driver/Inc/stm32f7xx_ll_bus.h ****   *         APB1LPENR     UART4LPEN       LL_APB1_GRP1_DisableClockLowPower\n
1471:Drivers/STM32F7xx_HAL_Driver/Inc/stm32f7xx_ll_bus.h ****   *         APB1LPENR     UART5LPEN       LL_APB1_GRP1_DisableClockLowPower\n
1472:Drivers/STM32F7xx_HAL_Driver/Inc/stm32f7xx_ll_bus.h ****   *         APB1LPENR     I2C1LPEN        LL_APB1_GRP1_DisableClockLowPower\n
1473:Drivers/STM32F7xx_HAL_Driver/Inc/stm32f7xx_ll_bus.h ****   *         APB1LPENR     I2C2LPEN        LL_APB1_GRP1_DisableClockLowPower\n
1474:Drivers/STM32F7xx_HAL_Driver/Inc/stm32f7xx_ll_bus.h ****   *         APB1LPENR     I2C3LPEN        LL_APB1_GRP1_DisableClockLowPower\n
1475:Drivers/STM32F7xx_HAL_Driver/Inc/stm32f7xx_ll_bus.h ****   *         APB1LPENR     I2C4LPEN        LL_APB1_GRP1_DisableClockLowPower\n
1476:Drivers/STM32F7xx_HAL_Driver/Inc/stm32f7xx_ll_bus.h ****   *         APB1LPENR     CAN1LPEN        LL_APB1_GRP1_DisableClockLowPower\n
1477:Drivers/STM32F7xx_HAL_Driver/Inc/stm32f7xx_ll_bus.h ****   *         APB1LPENR     CAN2LPEN        LL_APB1_GRP1_DisableClockLowPower\n
1478:Drivers/STM32F7xx_HAL_Driver/Inc/stm32f7xx_ll_bus.h ****   *         APB1LPENR     CAN3LPEN        LL_APB1_GRP1_DisableClockLowPower\n
1479:Drivers/STM32F7xx_HAL_Driver/Inc/stm32f7xx_ll_bus.h ****   *         APB1LPENR     CECLPEN         LL_APB1_GRP1_DisableClockLowPower\n
1480:Drivers/STM32F7xx_HAL_Driver/Inc/stm32f7xx_ll_bus.h ****   *         APB1LPENR     PWRLPEN         LL_APB1_GRP1_DisableClockLowPower\n
1481:Drivers/STM32F7xx_HAL_Driver/Inc/stm32f7xx_ll_bus.h ****   *         APB1LPENR     DACLPEN         LL_APB1_GRP1_DisableClockLowPower\n
1482:Drivers/STM32F7xx_HAL_Driver/Inc/stm32f7xx_ll_bus.h ****   *         APB1LPENR     UART7LPEN       LL_APB1_GRP1_DisableClockLowPower\n
1483:Drivers/STM32F7xx_HAL_Driver/Inc/stm32f7xx_ll_bus.h ****   *         APB1LPENR     UART8LPEN       LL_APB1_GRP1_DisableClockLowPower\n
1484:Drivers/STM32F7xx_HAL_Driver/Inc/stm32f7xx_ll_bus.h ****   *         APB1LPENR     RTCLPEN         LL_APB1_GRP1_DisableClockLowPower
1485:Drivers/STM32F7xx_HAL_Driver/Inc/stm32f7xx_ll_bus.h ****   * @param  Periphs This parameter can be a combination of the following values:
1486:Drivers/STM32F7xx_HAL_Driver/Inc/stm32f7xx_ll_bus.h ****   *         @arg @ref LL_APB1_GRP1_PERIPH_TIM2
1487:Drivers/STM32F7xx_HAL_Driver/Inc/stm32f7xx_ll_bus.h ****   *         @arg @ref LL_APB1_GRP1_PERIPH_TIM3 
1488:Drivers/STM32F7xx_HAL_Driver/Inc/stm32f7xx_ll_bus.h ****   *         @arg @ref LL_APB1_GRP1_PERIPH_TIM4
1489:Drivers/STM32F7xx_HAL_Driver/Inc/stm32f7xx_ll_bus.h ****   *         @arg @ref LL_APB1_GRP1_PERIPH_TIM5 
1490:Drivers/STM32F7xx_HAL_Driver/Inc/stm32f7xx_ll_bus.h ****   *         @arg @ref LL_APB1_GRP1_PERIPH_TIM6
1491:Drivers/STM32F7xx_HAL_Driver/Inc/stm32f7xx_ll_bus.h ****   *         @arg @ref LL_APB1_GRP1_PERIPH_TIM7
1492:Drivers/STM32F7xx_HAL_Driver/Inc/stm32f7xx_ll_bus.h ****   *         @arg @ref LL_APB1_GRP1_PERIPH_TIM12
1493:Drivers/STM32F7xx_HAL_Driver/Inc/stm32f7xx_ll_bus.h ****   *         @arg @ref LL_APB1_GRP1_PERIPH_TIM13
1494:Drivers/STM32F7xx_HAL_Driver/Inc/stm32f7xx_ll_bus.h ****   *         @arg @ref LL_APB1_GRP1_PERIPH_TIM14
1495:Drivers/STM32F7xx_HAL_Driver/Inc/stm32f7xx_ll_bus.h ****   *         @arg @ref LL_APB1_GRP1_PERIPH_LPTIM1
1496:Drivers/STM32F7xx_HAL_Driver/Inc/stm32f7xx_ll_bus.h ****   *         @arg @ref LL_APB1_GRP1_PERIPH_WWDG
1497:Drivers/STM32F7xx_HAL_Driver/Inc/stm32f7xx_ll_bus.h ****   *         @arg @ref LL_APB1_GRP1_PERIPH_SPI2 
1498:Drivers/STM32F7xx_HAL_Driver/Inc/stm32f7xx_ll_bus.h ****   *         @arg @ref LL_APB1_GRP1_PERIPH_SPI3
1499:Drivers/STM32F7xx_HAL_Driver/Inc/stm32f7xx_ll_bus.h ****   *         @arg @ref LL_APB1_GRP1_PERIPH_SPDIFRX (*)
1500:Drivers/STM32F7xx_HAL_Driver/Inc/stm32f7xx_ll_bus.h ****   *         @arg @ref LL_APB1_GRP1_PERIPH_USART2
1501:Drivers/STM32F7xx_HAL_Driver/Inc/stm32f7xx_ll_bus.h ****   *         @arg @ref LL_APB1_GRP1_PERIPH_USART3
1502:Drivers/STM32F7xx_HAL_Driver/Inc/stm32f7xx_ll_bus.h ****   *         @arg @ref LL_APB1_GRP1_PERIPH_UART4
ARM GAS  C:\Users\Giorgio\AppData\Local\Temp\ccpuEN3p.s 			page 47


1503:Drivers/STM32F7xx_HAL_Driver/Inc/stm32f7xx_ll_bus.h ****   *         @arg @ref LL_APB1_GRP1_PERIPH_UART5
1504:Drivers/STM32F7xx_HAL_Driver/Inc/stm32f7xx_ll_bus.h ****   *         @arg @ref LL_APB1_GRP1_PERIPH_I2C1
1505:Drivers/STM32F7xx_HAL_Driver/Inc/stm32f7xx_ll_bus.h ****   *         @arg @ref LL_APB1_GRP1_PERIPH_I2C2
1506:Drivers/STM32F7xx_HAL_Driver/Inc/stm32f7xx_ll_bus.h ****   *         @arg @ref LL_APB1_GRP1_PERIPH_I2C3
1507:Drivers/STM32F7xx_HAL_Driver/Inc/stm32f7xx_ll_bus.h ****   *         @arg @ref LL_APB1_GRP1_PERIPH_I2C4 (*)
1508:Drivers/STM32F7xx_HAL_Driver/Inc/stm32f7xx_ll_bus.h ****   *         @arg @ref LL_APB1_GRP1_PERIPH_CAN1
1509:Drivers/STM32F7xx_HAL_Driver/Inc/stm32f7xx_ll_bus.h ****   *         @arg @ref LL_APB1_GRP1_PERIPH_CAN2 (*)
1510:Drivers/STM32F7xx_HAL_Driver/Inc/stm32f7xx_ll_bus.h ****   *         @arg @ref LL_APB1_GRP1_PERIPH_CAN3 (*)
1511:Drivers/STM32F7xx_HAL_Driver/Inc/stm32f7xx_ll_bus.h ****   *         @arg @ref LL_APB1_GRP1_PERIPH_CEC  (*)
1512:Drivers/STM32F7xx_HAL_Driver/Inc/stm32f7xx_ll_bus.h ****   *         @arg @ref LL_APB1_GRP1_PERIPH_PWR
1513:Drivers/STM32F7xx_HAL_Driver/Inc/stm32f7xx_ll_bus.h ****   *         @arg @ref LL_APB1_GRP1_PERIPH_DAC1
1514:Drivers/STM32F7xx_HAL_Driver/Inc/stm32f7xx_ll_bus.h ****   *         @arg @ref LL_APB1_GRP1_PERIPH_UART7
1515:Drivers/STM32F7xx_HAL_Driver/Inc/stm32f7xx_ll_bus.h ****   *         @arg @ref LL_APB1_GRP1_PERIPH_UART8
1516:Drivers/STM32F7xx_HAL_Driver/Inc/stm32f7xx_ll_bus.h ****   *         @arg @ref LL_APB1_GRP1_PERIPH_RTCAPB (*)
1517:Drivers/STM32F7xx_HAL_Driver/Inc/stm32f7xx_ll_bus.h ****   *
1518:Drivers/STM32F7xx_HAL_Driver/Inc/stm32f7xx_ll_bus.h ****   *         (*) value not defined in all devices.
1519:Drivers/STM32F7xx_HAL_Driver/Inc/stm32f7xx_ll_bus.h ****   * @retval None
1520:Drivers/STM32F7xx_HAL_Driver/Inc/stm32f7xx_ll_bus.h **** */
1521:Drivers/STM32F7xx_HAL_Driver/Inc/stm32f7xx_ll_bus.h **** __STATIC_INLINE void LL_APB1_GRP1_DisableClockLowPower(uint32_t Periphs)
1522:Drivers/STM32F7xx_HAL_Driver/Inc/stm32f7xx_ll_bus.h **** {
1523:Drivers/STM32F7xx_HAL_Driver/Inc/stm32f7xx_ll_bus.h ****   CLEAR_BIT(RCC->APB1LPENR, Periphs);
1524:Drivers/STM32F7xx_HAL_Driver/Inc/stm32f7xx_ll_bus.h **** }
1525:Drivers/STM32F7xx_HAL_Driver/Inc/stm32f7xx_ll_bus.h **** 
1526:Drivers/STM32F7xx_HAL_Driver/Inc/stm32f7xx_ll_bus.h **** /**
1527:Drivers/STM32F7xx_HAL_Driver/Inc/stm32f7xx_ll_bus.h ****   * @}
1528:Drivers/STM32F7xx_HAL_Driver/Inc/stm32f7xx_ll_bus.h ****   */
1529:Drivers/STM32F7xx_HAL_Driver/Inc/stm32f7xx_ll_bus.h **** 
1530:Drivers/STM32F7xx_HAL_Driver/Inc/stm32f7xx_ll_bus.h **** /** @defgroup BUS_LL_EF_APB2 APB2
1531:Drivers/STM32F7xx_HAL_Driver/Inc/stm32f7xx_ll_bus.h ****   * @{
1532:Drivers/STM32F7xx_HAL_Driver/Inc/stm32f7xx_ll_bus.h ****   */
1533:Drivers/STM32F7xx_HAL_Driver/Inc/stm32f7xx_ll_bus.h **** 
1534:Drivers/STM32F7xx_HAL_Driver/Inc/stm32f7xx_ll_bus.h **** /**
1535:Drivers/STM32F7xx_HAL_Driver/Inc/stm32f7xx_ll_bus.h ****   * @brief  Enable APB2 peripherals clock.
1536:Drivers/STM32F7xx_HAL_Driver/Inc/stm32f7xx_ll_bus.h ****   * @rmtoll APB2ENR     TIM1EN        LL_APB2_GRP1_EnableClock\n
1537:Drivers/STM32F7xx_HAL_Driver/Inc/stm32f7xx_ll_bus.h ****   *         APB2ENR     TIM8EN        LL_APB2_GRP1_EnableClock\n
1538:Drivers/STM32F7xx_HAL_Driver/Inc/stm32f7xx_ll_bus.h ****   *         APB2ENR     USART1EN      LL_APB2_GRP1_EnableClock\n
1539:Drivers/STM32F7xx_HAL_Driver/Inc/stm32f7xx_ll_bus.h ****   *         APB2ENR     USART6EN      LL_APB2_GRP1_EnableClock\n
1540:Drivers/STM32F7xx_HAL_Driver/Inc/stm32f7xx_ll_bus.h ****   *         APB2ENR     ADC1EN        LL_APB2_GRP1_EnableClock\n
1541:Drivers/STM32F7xx_HAL_Driver/Inc/stm32f7xx_ll_bus.h ****   *         APB2ENR     ADC2EN        LL_APB2_GRP1_EnableClock\n
1542:Drivers/STM32F7xx_HAL_Driver/Inc/stm32f7xx_ll_bus.h ****   *         APB2ENR     ADC3EN        LL_APB2_GRP1_EnableClock\n
1543:Drivers/STM32F7xx_HAL_Driver/Inc/stm32f7xx_ll_bus.h ****   *         APB2ENR     SDMMC1EN      LL_APB2_GRP1_EnableClock\n
1544:Drivers/STM32F7xx_HAL_Driver/Inc/stm32f7xx_ll_bus.h ****   *         APB2ENR     SDMMC2EN      LL_APB2_GRP1_EnableClock\n
1545:Drivers/STM32F7xx_HAL_Driver/Inc/stm32f7xx_ll_bus.h ****   *         APB2ENR     SPI1EN        LL_APB2_GRP1_EnableClock\n
1546:Drivers/STM32F7xx_HAL_Driver/Inc/stm32f7xx_ll_bus.h ****   *         APB2ENR     SPI4EN        LL_APB2_GRP1_EnableClock\n
1547:Drivers/STM32F7xx_HAL_Driver/Inc/stm32f7xx_ll_bus.h ****   *         APB2ENR     SYSCFGEN      LL_APB2_GRP1_EnableClock\n
1548:Drivers/STM32F7xx_HAL_Driver/Inc/stm32f7xx_ll_bus.h ****   *         APB2ENR     TIM9EN        LL_APB2_GRP1_EnableClock\n
1549:Drivers/STM32F7xx_HAL_Driver/Inc/stm32f7xx_ll_bus.h ****   *         APB2ENR     TIM10EN       LL_APB2_GRP1_EnableClock\n
1550:Drivers/STM32F7xx_HAL_Driver/Inc/stm32f7xx_ll_bus.h ****   *         APB2ENR     TIM11EN       LL_APB2_GRP1_EnableClock\n
1551:Drivers/STM32F7xx_HAL_Driver/Inc/stm32f7xx_ll_bus.h ****   *         APB2ENR     SPI5EN        LL_APB2_GRP1_EnableClock\n
1552:Drivers/STM32F7xx_HAL_Driver/Inc/stm32f7xx_ll_bus.h ****   *         APB2ENR     SPI6EN        LL_APB2_GRP1_EnableClock\n
1553:Drivers/STM32F7xx_HAL_Driver/Inc/stm32f7xx_ll_bus.h ****   *         APB2ENR     SAI1EN        LL_APB2_GRP1_EnableClock\n
1554:Drivers/STM32F7xx_HAL_Driver/Inc/stm32f7xx_ll_bus.h ****   *         APB2ENR     SAI2EN        LL_APB2_GRP1_EnableClock\n
1555:Drivers/STM32F7xx_HAL_Driver/Inc/stm32f7xx_ll_bus.h ****   *         APB2ENR     LTDCEN        LL_APB2_GRP1_EnableClock\n
1556:Drivers/STM32F7xx_HAL_Driver/Inc/stm32f7xx_ll_bus.h ****   *         APB2ENR     DSIEN         LL_APB2_GRP1_EnableClock\n
1557:Drivers/STM32F7xx_HAL_Driver/Inc/stm32f7xx_ll_bus.h ****   *         APB2ENR     DFSDM1EN      LL_APB2_GRP1_EnableClock\n
1558:Drivers/STM32F7xx_HAL_Driver/Inc/stm32f7xx_ll_bus.h ****   *         APB2ENR     MDIOEN        LL_APB2_GRP1_EnableClock\n
1559:Drivers/STM32F7xx_HAL_Driver/Inc/stm32f7xx_ll_bus.h ****   *         APB2ENR     OTGPHYCEN     LL_APB2_GRP1_EnableClock
ARM GAS  C:\Users\Giorgio\AppData\Local\Temp\ccpuEN3p.s 			page 48


1560:Drivers/STM32F7xx_HAL_Driver/Inc/stm32f7xx_ll_bus.h ****   * @param  Periphs This parameter can be a combination of the following values:
1561:Drivers/STM32F7xx_HAL_Driver/Inc/stm32f7xx_ll_bus.h ****   *         @arg @ref LL_APB2_GRP1_PERIPH_TIM1
1562:Drivers/STM32F7xx_HAL_Driver/Inc/stm32f7xx_ll_bus.h ****   *         @arg @ref LL_APB2_GRP1_PERIPH_TIM8
1563:Drivers/STM32F7xx_HAL_Driver/Inc/stm32f7xx_ll_bus.h ****   *         @arg @ref LL_APB2_GRP1_PERIPH_USART1
1564:Drivers/STM32F7xx_HAL_Driver/Inc/stm32f7xx_ll_bus.h ****   *         @arg @ref LL_APB2_GRP1_PERIPH_USART6
1565:Drivers/STM32F7xx_HAL_Driver/Inc/stm32f7xx_ll_bus.h ****   *         @arg @ref LL_APB2_GRP1_PERIPH_ADC1
1566:Drivers/STM32F7xx_HAL_Driver/Inc/stm32f7xx_ll_bus.h ****   *         @arg @ref LL_APB2_GRP1_PERIPH_ADC2
1567:Drivers/STM32F7xx_HAL_Driver/Inc/stm32f7xx_ll_bus.h ****   *         @arg @ref LL_APB2_GRP1_PERIPH_ADC3
1568:Drivers/STM32F7xx_HAL_Driver/Inc/stm32f7xx_ll_bus.h ****   *         @arg @ref LL_APB2_GRP1_PERIPH_SDMMC1
1569:Drivers/STM32F7xx_HAL_Driver/Inc/stm32f7xx_ll_bus.h ****   *         @arg @ref LL_APB2_GRP1_PERIPH_SDMMC2 (*)
1570:Drivers/STM32F7xx_HAL_Driver/Inc/stm32f7xx_ll_bus.h ****   *         @arg @ref LL_APB2_GRP1_PERIPH_SPI1
1571:Drivers/STM32F7xx_HAL_Driver/Inc/stm32f7xx_ll_bus.h ****   *         @arg @ref LL_APB2_GRP1_PERIPH_SPI4
1572:Drivers/STM32F7xx_HAL_Driver/Inc/stm32f7xx_ll_bus.h ****   *         @arg @ref LL_APB2_GRP1_PERIPH_SYSCFG
1573:Drivers/STM32F7xx_HAL_Driver/Inc/stm32f7xx_ll_bus.h ****   *         @arg @ref LL_APB2_GRP1_PERIPH_TIM9
1574:Drivers/STM32F7xx_HAL_Driver/Inc/stm32f7xx_ll_bus.h ****   *         @arg @ref LL_APB2_GRP1_PERIPH_TIM10
1575:Drivers/STM32F7xx_HAL_Driver/Inc/stm32f7xx_ll_bus.h ****   *         @arg @ref LL_APB2_GRP1_PERIPH_TIM11
1576:Drivers/STM32F7xx_HAL_Driver/Inc/stm32f7xx_ll_bus.h ****   *         @arg @ref LL_APB2_GRP1_PERIPH_SPI5
1577:Drivers/STM32F7xx_HAL_Driver/Inc/stm32f7xx_ll_bus.h ****   *         @arg @ref LL_APB2_GRP1_PERIPH_SPI6 (*)
1578:Drivers/STM32F7xx_HAL_Driver/Inc/stm32f7xx_ll_bus.h ****   *         @arg @ref LL_APB2_GRP1_PERIPH_SAI1
1579:Drivers/STM32F7xx_HAL_Driver/Inc/stm32f7xx_ll_bus.h ****   *         @arg @ref LL_APB2_GRP1_PERIPH_SAI2
1580:Drivers/STM32F7xx_HAL_Driver/Inc/stm32f7xx_ll_bus.h ****   *         @arg @ref LL_APB2_GRP1_PERIPH_LTDC (*)
1581:Drivers/STM32F7xx_HAL_Driver/Inc/stm32f7xx_ll_bus.h ****   *         @arg @ref LL_APB2_GRP1_PERIPH_DSI  (*)
1582:Drivers/STM32F7xx_HAL_Driver/Inc/stm32f7xx_ll_bus.h ****   *         @arg @ref LL_APB2_GRP1_PERIPH_DFSDM1 (*)
1583:Drivers/STM32F7xx_HAL_Driver/Inc/stm32f7xx_ll_bus.h ****   *         @arg @ref LL_APB2_GRP1_PERIPH_MDIO (*)
1584:Drivers/STM32F7xx_HAL_Driver/Inc/stm32f7xx_ll_bus.h ****   *         @arg @ref LL_APB2_GRP1_PERIPH_OTGPHYC (*)
1585:Drivers/STM32F7xx_HAL_Driver/Inc/stm32f7xx_ll_bus.h ****   *
1586:Drivers/STM32F7xx_HAL_Driver/Inc/stm32f7xx_ll_bus.h ****   *         (*) value not defined in all devices.
1587:Drivers/STM32F7xx_HAL_Driver/Inc/stm32f7xx_ll_bus.h ****   * @retval None
1588:Drivers/STM32F7xx_HAL_Driver/Inc/stm32f7xx_ll_bus.h **** */
1589:Drivers/STM32F7xx_HAL_Driver/Inc/stm32f7xx_ll_bus.h **** __STATIC_INLINE void LL_APB2_GRP1_EnableClock(uint32_t Periphs)
 554              		.loc 2 1589 22 view .LVU156
 555              	.LBB43:
1590:Drivers/STM32F7xx_HAL_Driver/Inc/stm32f7xx_ll_bus.h **** {
1591:Drivers/STM32F7xx_HAL_Driver/Inc/stm32f7xx_ll_bus.h ****   __IO uint32_t tmpreg;
 556              		.loc 2 1591 3 view .LVU157
1592:Drivers/STM32F7xx_HAL_Driver/Inc/stm32f7xx_ll_bus.h ****   SET_BIT(RCC->APB2ENR, Periphs);
 557              		.loc 2 1592 3 view .LVU158
 558 0010 154B     		ldr	r3, .L27
 559 0012 5A6C     		ldr	r2, [r3, #68]
 560 0014 42F00102 		orr	r2, r2, #1
 561 0018 5A64     		str	r2, [r3, #68]
1593:Drivers/STM32F7xx_HAL_Driver/Inc/stm32f7xx_ll_bus.h ****   /* Delay after an RCC peripheral clock enabling */
1594:Drivers/STM32F7xx_HAL_Driver/Inc/stm32f7xx_ll_bus.h ****   tmpreg = READ_BIT(RCC->APB2ENR, Periphs);
 562              		.loc 2 1594 3 view .LVU159
 563              		.loc 2 1594 12 is_stmt 0 view .LVU160
 564 001a 5B6C     		ldr	r3, [r3, #68]
 565 001c 03F00103 		and	r3, r3, #1
 566              		.loc 2 1594 10 view .LVU161
 567 0020 0093     		str	r3, [sp]
1595:Drivers/STM32F7xx_HAL_Driver/Inc/stm32f7xx_ll_bus.h ****   (void)tmpreg;
 568              		.loc 2 1595 3 is_stmt 1 view .LVU162
 569 0022 009B     		ldr	r3, [sp]
 570              	.LVL13:
 571              		.loc 2 1595 3 is_stmt 0 view .LVU163
 572              	.LBE43:
 573              	.LBE42:
 289:Src/main.c    ****   TIM_InitStruct.CounterMode = LL_TIM_COUNTERMODE_UP;
ARM GAS  C:\Users\Giorgio\AppData\Local\Temp\ccpuEN3p.s 			page 49


 574              		.loc 1 289 3 is_stmt 1 view .LVU164
 289:Src/main.c    ****   TIM_InitStruct.CounterMode = LL_TIM_COUNTERMODE_UP;
 575              		.loc 1 289 28 is_stmt 0 view .LVU165
 576 0024 BF23     		movs	r3, #191
 577 0026 ADF80430 		strh	r3, [sp, #4]	@ movhi
 290:Src/main.c    ****   TIM_InitStruct.Autoreload = 65000;
 578              		.loc 1 290 3 is_stmt 1 view .LVU166
 291:Src/main.c    ****   TIM_InitStruct.ClockDivision = LL_TIM_CLOCKDIVISION_DIV1;
 579              		.loc 1 291 3 view .LVU167
 291:Src/main.c    ****   TIM_InitStruct.ClockDivision = LL_TIM_CLOCKDIVISION_DIV1;
 580              		.loc 1 291 29 is_stmt 0 view .LVU168
 581 002a 4FF6E853 		movw	r3, #65000
 582 002e 0393     		str	r3, [sp, #12]
 292:Src/main.c    ****   TIM_InitStruct.RepetitionCounter = 0;
 583              		.loc 1 292 3 is_stmt 1 view .LVU169
 293:Src/main.c    ****   LL_TIM_Init(TIM1, &TIM_InitStruct);
 584              		.loc 1 293 3 view .LVU170
 294:Src/main.c    ****   LL_TIM_DisableARRPreload(TIM1);
 585              		.loc 1 294 3 view .LVU171
 586 0030 0E4C     		ldr	r4, .L27+4
 587 0032 01A9     		add	r1, sp, #4
 588 0034 2046     		mov	r0, r4
 589 0036 FFF7FEFF 		bl	LL_TIM_Init
 590              	.LVL14:
 295:Src/main.c    ****   LL_TIM_SetClockSource(TIM1, LL_TIM_CLOCKSOURCE_INTERNAL);
 591              		.loc 1 295 3 view .LVU172
 592              	.LBB44:
 593              	.LBI44:
 594              		.file 3 "Drivers/STM32F7xx_HAL_Driver/Inc/stm32f7xx_ll_tim.h"
   1:Drivers/STM32F7xx_HAL_Driver/Inc/stm32f7xx_ll_tim.h **** /**
   2:Drivers/STM32F7xx_HAL_Driver/Inc/stm32f7xx_ll_tim.h ****   ******************************************************************************
   3:Drivers/STM32F7xx_HAL_Driver/Inc/stm32f7xx_ll_tim.h ****   * @file    stm32f7xx_ll_tim.h
   4:Drivers/STM32F7xx_HAL_Driver/Inc/stm32f7xx_ll_tim.h ****   * @author  MCD Application Team
   5:Drivers/STM32F7xx_HAL_Driver/Inc/stm32f7xx_ll_tim.h ****   * @brief   Header file of TIM LL module.
   6:Drivers/STM32F7xx_HAL_Driver/Inc/stm32f7xx_ll_tim.h ****   ******************************************************************************
   7:Drivers/STM32F7xx_HAL_Driver/Inc/stm32f7xx_ll_tim.h ****   * @attention
   8:Drivers/STM32F7xx_HAL_Driver/Inc/stm32f7xx_ll_tim.h ****   *
   9:Drivers/STM32F7xx_HAL_Driver/Inc/stm32f7xx_ll_tim.h ****   * <h2><center>&copy; Copyright (c) 2017 STMicroelectronics.
  10:Drivers/STM32F7xx_HAL_Driver/Inc/stm32f7xx_ll_tim.h ****   * All rights reserved.</center></h2>
  11:Drivers/STM32F7xx_HAL_Driver/Inc/stm32f7xx_ll_tim.h ****   *
  12:Drivers/STM32F7xx_HAL_Driver/Inc/stm32f7xx_ll_tim.h ****   * This software component is licensed by ST under BSD 3-Clause license,
  13:Drivers/STM32F7xx_HAL_Driver/Inc/stm32f7xx_ll_tim.h ****   * the "License"; You may not use this file except in compliance with the
  14:Drivers/STM32F7xx_HAL_Driver/Inc/stm32f7xx_ll_tim.h ****   * License. You may obtain a copy of the License at:
  15:Drivers/STM32F7xx_HAL_Driver/Inc/stm32f7xx_ll_tim.h ****   *                        opensource.org/licenses/BSD-3-Clause
  16:Drivers/STM32F7xx_HAL_Driver/Inc/stm32f7xx_ll_tim.h ****   *
  17:Drivers/STM32F7xx_HAL_Driver/Inc/stm32f7xx_ll_tim.h ****   ******************************************************************************
  18:Drivers/STM32F7xx_HAL_Driver/Inc/stm32f7xx_ll_tim.h ****   */
  19:Drivers/STM32F7xx_HAL_Driver/Inc/stm32f7xx_ll_tim.h **** 
  20:Drivers/STM32F7xx_HAL_Driver/Inc/stm32f7xx_ll_tim.h **** /* Define to prevent recursive inclusion -------------------------------------*/
  21:Drivers/STM32F7xx_HAL_Driver/Inc/stm32f7xx_ll_tim.h **** #ifndef __STM32F7xx_LL_TIM_H
  22:Drivers/STM32F7xx_HAL_Driver/Inc/stm32f7xx_ll_tim.h **** #define __STM32F7xx_LL_TIM_H
  23:Drivers/STM32F7xx_HAL_Driver/Inc/stm32f7xx_ll_tim.h **** 
  24:Drivers/STM32F7xx_HAL_Driver/Inc/stm32f7xx_ll_tim.h **** #ifdef __cplusplus
  25:Drivers/STM32F7xx_HAL_Driver/Inc/stm32f7xx_ll_tim.h **** extern "C" {
  26:Drivers/STM32F7xx_HAL_Driver/Inc/stm32f7xx_ll_tim.h **** #endif
  27:Drivers/STM32F7xx_HAL_Driver/Inc/stm32f7xx_ll_tim.h **** 
  28:Drivers/STM32F7xx_HAL_Driver/Inc/stm32f7xx_ll_tim.h **** /* Includes ------------------------------------------------------------------*/
ARM GAS  C:\Users\Giorgio\AppData\Local\Temp\ccpuEN3p.s 			page 50


  29:Drivers/STM32F7xx_HAL_Driver/Inc/stm32f7xx_ll_tim.h **** #include "stm32f7xx.h"
  30:Drivers/STM32F7xx_HAL_Driver/Inc/stm32f7xx_ll_tim.h **** 
  31:Drivers/STM32F7xx_HAL_Driver/Inc/stm32f7xx_ll_tim.h **** /** @addtogroup STM32F7xx_LL_Driver
  32:Drivers/STM32F7xx_HAL_Driver/Inc/stm32f7xx_ll_tim.h ****   * @{
  33:Drivers/STM32F7xx_HAL_Driver/Inc/stm32f7xx_ll_tim.h ****   */
  34:Drivers/STM32F7xx_HAL_Driver/Inc/stm32f7xx_ll_tim.h **** 
  35:Drivers/STM32F7xx_HAL_Driver/Inc/stm32f7xx_ll_tim.h **** #if defined (TIM1) || defined (TIM8) || defined (TIM2) || defined (TIM3) ||  defined (TIM4) || defi
  36:Drivers/STM32F7xx_HAL_Driver/Inc/stm32f7xx_ll_tim.h **** 
  37:Drivers/STM32F7xx_HAL_Driver/Inc/stm32f7xx_ll_tim.h **** /** @defgroup TIM_LL TIM
  38:Drivers/STM32F7xx_HAL_Driver/Inc/stm32f7xx_ll_tim.h ****   * @{
  39:Drivers/STM32F7xx_HAL_Driver/Inc/stm32f7xx_ll_tim.h ****   */
  40:Drivers/STM32F7xx_HAL_Driver/Inc/stm32f7xx_ll_tim.h **** 
  41:Drivers/STM32F7xx_HAL_Driver/Inc/stm32f7xx_ll_tim.h **** /* Private types -------------------------------------------------------------*/
  42:Drivers/STM32F7xx_HAL_Driver/Inc/stm32f7xx_ll_tim.h **** /* Private variables ---------------------------------------------------------*/
  43:Drivers/STM32F7xx_HAL_Driver/Inc/stm32f7xx_ll_tim.h **** /** @defgroup TIM_LL_Private_Variables TIM Private Variables
  44:Drivers/STM32F7xx_HAL_Driver/Inc/stm32f7xx_ll_tim.h ****   * @{
  45:Drivers/STM32F7xx_HAL_Driver/Inc/stm32f7xx_ll_tim.h ****   */
  46:Drivers/STM32F7xx_HAL_Driver/Inc/stm32f7xx_ll_tim.h **** static const uint8_t OFFSET_TAB_CCMRx[] =
  47:Drivers/STM32F7xx_HAL_Driver/Inc/stm32f7xx_ll_tim.h **** {
  48:Drivers/STM32F7xx_HAL_Driver/Inc/stm32f7xx_ll_tim.h ****   0x00U,   /* 0: TIMx_CH1  */
  49:Drivers/STM32F7xx_HAL_Driver/Inc/stm32f7xx_ll_tim.h ****   0x00U,   /* 1: TIMx_CH1N */
  50:Drivers/STM32F7xx_HAL_Driver/Inc/stm32f7xx_ll_tim.h ****   0x00U,   /* 2: TIMx_CH2  */
  51:Drivers/STM32F7xx_HAL_Driver/Inc/stm32f7xx_ll_tim.h ****   0x00U,   /* 3: TIMx_CH2N */
  52:Drivers/STM32F7xx_HAL_Driver/Inc/stm32f7xx_ll_tim.h ****   0x04U,   /* 4: TIMx_CH3  */
  53:Drivers/STM32F7xx_HAL_Driver/Inc/stm32f7xx_ll_tim.h ****   0x04U,   /* 5: TIMx_CH3N */
  54:Drivers/STM32F7xx_HAL_Driver/Inc/stm32f7xx_ll_tim.h ****   0x04U,   /* 6: TIMx_CH4  */
  55:Drivers/STM32F7xx_HAL_Driver/Inc/stm32f7xx_ll_tim.h ****   0x3CU,   /* 7: TIMx_CH5  */
  56:Drivers/STM32F7xx_HAL_Driver/Inc/stm32f7xx_ll_tim.h ****   0x3CU    /* 8: TIMx_CH6  */
  57:Drivers/STM32F7xx_HAL_Driver/Inc/stm32f7xx_ll_tim.h **** };
  58:Drivers/STM32F7xx_HAL_Driver/Inc/stm32f7xx_ll_tim.h **** 
  59:Drivers/STM32F7xx_HAL_Driver/Inc/stm32f7xx_ll_tim.h **** static const uint8_t SHIFT_TAB_OCxx[] =
  60:Drivers/STM32F7xx_HAL_Driver/Inc/stm32f7xx_ll_tim.h **** {
  61:Drivers/STM32F7xx_HAL_Driver/Inc/stm32f7xx_ll_tim.h ****   0U,            /* 0: OC1M, OC1FE, OC1PE */
  62:Drivers/STM32F7xx_HAL_Driver/Inc/stm32f7xx_ll_tim.h ****   0U,            /* 1: - NA */
  63:Drivers/STM32F7xx_HAL_Driver/Inc/stm32f7xx_ll_tim.h ****   8U,            /* 2: OC2M, OC2FE, OC2PE */
  64:Drivers/STM32F7xx_HAL_Driver/Inc/stm32f7xx_ll_tim.h ****   0U,            /* 3: - NA */
  65:Drivers/STM32F7xx_HAL_Driver/Inc/stm32f7xx_ll_tim.h ****   0U,            /* 4: OC3M, OC3FE, OC3PE */
  66:Drivers/STM32F7xx_HAL_Driver/Inc/stm32f7xx_ll_tim.h ****   0U,            /* 5: - NA */
  67:Drivers/STM32F7xx_HAL_Driver/Inc/stm32f7xx_ll_tim.h ****   8U,            /* 6: OC4M, OC4FE, OC4PE */
  68:Drivers/STM32F7xx_HAL_Driver/Inc/stm32f7xx_ll_tim.h ****   0U,            /* 7: OC5M, OC5FE, OC5PE */
  69:Drivers/STM32F7xx_HAL_Driver/Inc/stm32f7xx_ll_tim.h ****   8U             /* 8: OC6M, OC6FE, OC6PE */
  70:Drivers/STM32F7xx_HAL_Driver/Inc/stm32f7xx_ll_tim.h **** };
  71:Drivers/STM32F7xx_HAL_Driver/Inc/stm32f7xx_ll_tim.h **** 
  72:Drivers/STM32F7xx_HAL_Driver/Inc/stm32f7xx_ll_tim.h **** static const uint8_t SHIFT_TAB_ICxx[] =
  73:Drivers/STM32F7xx_HAL_Driver/Inc/stm32f7xx_ll_tim.h **** {
  74:Drivers/STM32F7xx_HAL_Driver/Inc/stm32f7xx_ll_tim.h ****   0U,            /* 0: CC1S, IC1PSC, IC1F */
  75:Drivers/STM32F7xx_HAL_Driver/Inc/stm32f7xx_ll_tim.h ****   0U,            /* 1: - NA */
  76:Drivers/STM32F7xx_HAL_Driver/Inc/stm32f7xx_ll_tim.h ****   8U,            /* 2: CC2S, IC2PSC, IC2F */
  77:Drivers/STM32F7xx_HAL_Driver/Inc/stm32f7xx_ll_tim.h ****   0U,            /* 3: - NA */
  78:Drivers/STM32F7xx_HAL_Driver/Inc/stm32f7xx_ll_tim.h ****   0U,            /* 4: CC3S, IC3PSC, IC3F */
  79:Drivers/STM32F7xx_HAL_Driver/Inc/stm32f7xx_ll_tim.h ****   0U,            /* 5: - NA */
  80:Drivers/STM32F7xx_HAL_Driver/Inc/stm32f7xx_ll_tim.h ****   8U,            /* 6: CC4S, IC4PSC, IC4F */
  81:Drivers/STM32F7xx_HAL_Driver/Inc/stm32f7xx_ll_tim.h ****   0U,            /* 7: - NA */
  82:Drivers/STM32F7xx_HAL_Driver/Inc/stm32f7xx_ll_tim.h ****   0U             /* 8: - NA */
  83:Drivers/STM32F7xx_HAL_Driver/Inc/stm32f7xx_ll_tim.h **** };
  84:Drivers/STM32F7xx_HAL_Driver/Inc/stm32f7xx_ll_tim.h **** 
  85:Drivers/STM32F7xx_HAL_Driver/Inc/stm32f7xx_ll_tim.h **** static const uint8_t SHIFT_TAB_CCxP[] =
ARM GAS  C:\Users\Giorgio\AppData\Local\Temp\ccpuEN3p.s 			page 51


  86:Drivers/STM32F7xx_HAL_Driver/Inc/stm32f7xx_ll_tim.h **** {
  87:Drivers/STM32F7xx_HAL_Driver/Inc/stm32f7xx_ll_tim.h ****   0U,            /* 0: CC1P */
  88:Drivers/STM32F7xx_HAL_Driver/Inc/stm32f7xx_ll_tim.h ****   2U,            /* 1: CC1NP */
  89:Drivers/STM32F7xx_HAL_Driver/Inc/stm32f7xx_ll_tim.h ****   4U,            /* 2: CC2P */
  90:Drivers/STM32F7xx_HAL_Driver/Inc/stm32f7xx_ll_tim.h ****   6U,            /* 3: CC2NP */
  91:Drivers/STM32F7xx_HAL_Driver/Inc/stm32f7xx_ll_tim.h ****   8U,            /* 4: CC3P */
  92:Drivers/STM32F7xx_HAL_Driver/Inc/stm32f7xx_ll_tim.h ****   10U,           /* 5: CC3NP */
  93:Drivers/STM32F7xx_HAL_Driver/Inc/stm32f7xx_ll_tim.h ****   12U,           /* 6: CC4P */
  94:Drivers/STM32F7xx_HAL_Driver/Inc/stm32f7xx_ll_tim.h ****   16U,           /* 7: CC5P */
  95:Drivers/STM32F7xx_HAL_Driver/Inc/stm32f7xx_ll_tim.h ****   20U            /* 8: CC6P */
  96:Drivers/STM32F7xx_HAL_Driver/Inc/stm32f7xx_ll_tim.h **** };
  97:Drivers/STM32F7xx_HAL_Driver/Inc/stm32f7xx_ll_tim.h **** 
  98:Drivers/STM32F7xx_HAL_Driver/Inc/stm32f7xx_ll_tim.h **** static const uint8_t SHIFT_TAB_OISx[] =
  99:Drivers/STM32F7xx_HAL_Driver/Inc/stm32f7xx_ll_tim.h **** {
 100:Drivers/STM32F7xx_HAL_Driver/Inc/stm32f7xx_ll_tim.h ****   0U,            /* 0: OIS1 */
 101:Drivers/STM32F7xx_HAL_Driver/Inc/stm32f7xx_ll_tim.h ****   1U,            /* 1: OIS1N */
 102:Drivers/STM32F7xx_HAL_Driver/Inc/stm32f7xx_ll_tim.h ****   2U,            /* 2: OIS2 */
 103:Drivers/STM32F7xx_HAL_Driver/Inc/stm32f7xx_ll_tim.h ****   3U,            /* 3: OIS2N */
 104:Drivers/STM32F7xx_HAL_Driver/Inc/stm32f7xx_ll_tim.h ****   4U,            /* 4: OIS3 */
 105:Drivers/STM32F7xx_HAL_Driver/Inc/stm32f7xx_ll_tim.h ****   5U,            /* 5: OIS3N */
 106:Drivers/STM32F7xx_HAL_Driver/Inc/stm32f7xx_ll_tim.h ****   6U,            /* 6: OIS4 */
 107:Drivers/STM32F7xx_HAL_Driver/Inc/stm32f7xx_ll_tim.h ****   8U,            /* 7: OIS5 */
 108:Drivers/STM32F7xx_HAL_Driver/Inc/stm32f7xx_ll_tim.h ****   10U            /* 8: OIS6 */
 109:Drivers/STM32F7xx_HAL_Driver/Inc/stm32f7xx_ll_tim.h **** };
 110:Drivers/STM32F7xx_HAL_Driver/Inc/stm32f7xx_ll_tim.h **** /**
 111:Drivers/STM32F7xx_HAL_Driver/Inc/stm32f7xx_ll_tim.h ****   * @}
 112:Drivers/STM32F7xx_HAL_Driver/Inc/stm32f7xx_ll_tim.h ****   */
 113:Drivers/STM32F7xx_HAL_Driver/Inc/stm32f7xx_ll_tim.h **** 
 114:Drivers/STM32F7xx_HAL_Driver/Inc/stm32f7xx_ll_tim.h **** /* Private constants ---------------------------------------------------------*/
 115:Drivers/STM32F7xx_HAL_Driver/Inc/stm32f7xx_ll_tim.h **** /** @defgroup TIM_LL_Private_Constants TIM Private Constants
 116:Drivers/STM32F7xx_HAL_Driver/Inc/stm32f7xx_ll_tim.h ****   * @{
 117:Drivers/STM32F7xx_HAL_Driver/Inc/stm32f7xx_ll_tim.h ****   */
 118:Drivers/STM32F7xx_HAL_Driver/Inc/stm32f7xx_ll_tim.h **** 
 119:Drivers/STM32F7xx_HAL_Driver/Inc/stm32f7xx_ll_tim.h **** #if   defined(TIM_BREAK_INPUT_SUPPORT)
 120:Drivers/STM32F7xx_HAL_Driver/Inc/stm32f7xx_ll_tim.h **** /* Defines used for the bit position in the register and perform offsets */
 121:Drivers/STM32F7xx_HAL_Driver/Inc/stm32f7xx_ll_tim.h **** #define TIM_POSITION_BRK_SOURCE           (POSITION_VAL(Source) & 0x1FUL)
 122:Drivers/STM32F7xx_HAL_Driver/Inc/stm32f7xx_ll_tim.h **** 
 123:Drivers/STM32F7xx_HAL_Driver/Inc/stm32f7xx_ll_tim.h **** /* Generic bit definitions for TIMx_AF1 register */
 124:Drivers/STM32F7xx_HAL_Driver/Inc/stm32f7xx_ll_tim.h **** #define TIMx_AF1_BKINE          TIM1_AF1_BKINE       /*!< BRK BKINE input enable */
 125:Drivers/STM32F7xx_HAL_Driver/Inc/stm32f7xx_ll_tim.h **** #if defined(DFSDM1_Channel0)
 126:Drivers/STM32F7xx_HAL_Driver/Inc/stm32f7xx_ll_tim.h **** #define TIMx_AF1_BKDFBKE        TIM1_AF1_BKDFBKE     /*!< BRK DFSDM1_BREAK[0] enable */
 127:Drivers/STM32F7xx_HAL_Driver/Inc/stm32f7xx_ll_tim.h **** #endif /* DFSDM1_Channel0 */
 128:Drivers/STM32F7xx_HAL_Driver/Inc/stm32f7xx_ll_tim.h **** #define TIMx_AF1_BKINP        TIM1_AF1_BKINP       /*!< BRK BKIN input polarity */
 129:Drivers/STM32F7xx_HAL_Driver/Inc/stm32f7xx_ll_tim.h **** /* Generic bit definitions for TIMx_AF2 register */
 130:Drivers/STM32F7xx_HAL_Driver/Inc/stm32f7xx_ll_tim.h **** #define TIMx_AF2_BK2INE         TIM1_AF2_BK2INE      /*!< BRK B2KINE input enable */
 131:Drivers/STM32F7xx_HAL_Driver/Inc/stm32f7xx_ll_tim.h **** #if defined(DFSDM1_Channel0)
 132:Drivers/STM32F7xx_HAL_Driver/Inc/stm32f7xx_ll_tim.h **** #define TIMx_AF2_BK2DFBKE       TIM1_AF2_BK2DFBKE    /*!< BRK DFSDM_BREAK[0] enable */
 133:Drivers/STM32F7xx_HAL_Driver/Inc/stm32f7xx_ll_tim.h **** #endif /* DFSDM1_Channel0 */
 134:Drivers/STM32F7xx_HAL_Driver/Inc/stm32f7xx_ll_tim.h **** #define TIMx_AF2_BK2INP       TIM1_AF2_BK2INP      /*!< BRK BK2IN input polarity */
 135:Drivers/STM32F7xx_HAL_Driver/Inc/stm32f7xx_ll_tim.h **** #endif /* TIM_BREAK_INPUT_SUPPORT */
 136:Drivers/STM32F7xx_HAL_Driver/Inc/stm32f7xx_ll_tim.h **** 
 137:Drivers/STM32F7xx_HAL_Driver/Inc/stm32f7xx_ll_tim.h **** /* Remap mask definitions */
 138:Drivers/STM32F7xx_HAL_Driver/Inc/stm32f7xx_ll_tim.h **** #define TIMx_OR_RMP_SHIFT  16U
 139:Drivers/STM32F7xx_HAL_Driver/Inc/stm32f7xx_ll_tim.h **** #define TIMx_OR_RMP_MASK   0x0000FFFFU
 140:Drivers/STM32F7xx_HAL_Driver/Inc/stm32f7xx_ll_tim.h **** #define TIM2_OR_RMP_MASK   (TIM2_OR_ITR1_RMP << TIMx_OR_RMP_SHIFT)
 141:Drivers/STM32F7xx_HAL_Driver/Inc/stm32f7xx_ll_tim.h **** #define TIM5_OR_RMP_MASK   (TIM5_OR_TI4_RMP << TIMx_OR_RMP_SHIFT)
 142:Drivers/STM32F7xx_HAL_Driver/Inc/stm32f7xx_ll_tim.h **** #define TIM11_OR_RMP_MASK  (TIM11_OR_TI1_RMP << TIMx_OR_RMP_SHIFT)
ARM GAS  C:\Users\Giorgio\AppData\Local\Temp\ccpuEN3p.s 			page 52


 143:Drivers/STM32F7xx_HAL_Driver/Inc/stm32f7xx_ll_tim.h **** 
 144:Drivers/STM32F7xx_HAL_Driver/Inc/stm32f7xx_ll_tim.h **** /* Mask used to set the TDG[x:0] of the DTG bits of the TIMx_BDTR register */
 145:Drivers/STM32F7xx_HAL_Driver/Inc/stm32f7xx_ll_tim.h **** #define DT_DELAY_1 ((uint8_t)0x7F)
 146:Drivers/STM32F7xx_HAL_Driver/Inc/stm32f7xx_ll_tim.h **** #define DT_DELAY_2 ((uint8_t)0x3F)
 147:Drivers/STM32F7xx_HAL_Driver/Inc/stm32f7xx_ll_tim.h **** #define DT_DELAY_3 ((uint8_t)0x1F)
 148:Drivers/STM32F7xx_HAL_Driver/Inc/stm32f7xx_ll_tim.h **** #define DT_DELAY_4 ((uint8_t)0x1F)
 149:Drivers/STM32F7xx_HAL_Driver/Inc/stm32f7xx_ll_tim.h **** 
 150:Drivers/STM32F7xx_HAL_Driver/Inc/stm32f7xx_ll_tim.h **** /* Mask used to set the DTG[7:5] bits of the DTG bits of the TIMx_BDTR register */
 151:Drivers/STM32F7xx_HAL_Driver/Inc/stm32f7xx_ll_tim.h **** #define DT_RANGE_1 ((uint8_t)0x00)
 152:Drivers/STM32F7xx_HAL_Driver/Inc/stm32f7xx_ll_tim.h **** #define DT_RANGE_2 ((uint8_t)0x80)
 153:Drivers/STM32F7xx_HAL_Driver/Inc/stm32f7xx_ll_tim.h **** #define DT_RANGE_3 ((uint8_t)0xC0)
 154:Drivers/STM32F7xx_HAL_Driver/Inc/stm32f7xx_ll_tim.h **** #define DT_RANGE_4 ((uint8_t)0xE0)
 155:Drivers/STM32F7xx_HAL_Driver/Inc/stm32f7xx_ll_tim.h **** 
 156:Drivers/STM32F7xx_HAL_Driver/Inc/stm32f7xx_ll_tim.h **** 
 157:Drivers/STM32F7xx_HAL_Driver/Inc/stm32f7xx_ll_tim.h **** /**
 158:Drivers/STM32F7xx_HAL_Driver/Inc/stm32f7xx_ll_tim.h ****   * @}
 159:Drivers/STM32F7xx_HAL_Driver/Inc/stm32f7xx_ll_tim.h ****   */
 160:Drivers/STM32F7xx_HAL_Driver/Inc/stm32f7xx_ll_tim.h **** 
 161:Drivers/STM32F7xx_HAL_Driver/Inc/stm32f7xx_ll_tim.h **** /* Private macros ------------------------------------------------------------*/
 162:Drivers/STM32F7xx_HAL_Driver/Inc/stm32f7xx_ll_tim.h **** /** @defgroup TIM_LL_Private_Macros TIM Private Macros
 163:Drivers/STM32F7xx_HAL_Driver/Inc/stm32f7xx_ll_tim.h ****   * @{
 164:Drivers/STM32F7xx_HAL_Driver/Inc/stm32f7xx_ll_tim.h ****   */
 165:Drivers/STM32F7xx_HAL_Driver/Inc/stm32f7xx_ll_tim.h **** /** @brief  Convert channel id into channel index.
 166:Drivers/STM32F7xx_HAL_Driver/Inc/stm32f7xx_ll_tim.h ****   * @param  __CHANNEL__ This parameter can be one of the following values:
 167:Drivers/STM32F7xx_HAL_Driver/Inc/stm32f7xx_ll_tim.h ****   *         @arg @ref LL_TIM_CHANNEL_CH1
 168:Drivers/STM32F7xx_HAL_Driver/Inc/stm32f7xx_ll_tim.h ****   *         @arg @ref LL_TIM_CHANNEL_CH1N
 169:Drivers/STM32F7xx_HAL_Driver/Inc/stm32f7xx_ll_tim.h ****   *         @arg @ref LL_TIM_CHANNEL_CH2
 170:Drivers/STM32F7xx_HAL_Driver/Inc/stm32f7xx_ll_tim.h ****   *         @arg @ref LL_TIM_CHANNEL_CH2N
 171:Drivers/STM32F7xx_HAL_Driver/Inc/stm32f7xx_ll_tim.h ****   *         @arg @ref LL_TIM_CHANNEL_CH3
 172:Drivers/STM32F7xx_HAL_Driver/Inc/stm32f7xx_ll_tim.h ****   *         @arg @ref LL_TIM_CHANNEL_CH3N
 173:Drivers/STM32F7xx_HAL_Driver/Inc/stm32f7xx_ll_tim.h ****   *         @arg @ref LL_TIM_CHANNEL_CH4
 174:Drivers/STM32F7xx_HAL_Driver/Inc/stm32f7xx_ll_tim.h ****   *         @arg @ref LL_TIM_CHANNEL_CH5
 175:Drivers/STM32F7xx_HAL_Driver/Inc/stm32f7xx_ll_tim.h ****   *         @arg @ref LL_TIM_CHANNEL_CH6
 176:Drivers/STM32F7xx_HAL_Driver/Inc/stm32f7xx_ll_tim.h ****   * @retval none
 177:Drivers/STM32F7xx_HAL_Driver/Inc/stm32f7xx_ll_tim.h ****   */
 178:Drivers/STM32F7xx_HAL_Driver/Inc/stm32f7xx_ll_tim.h **** #define TIM_GET_CHANNEL_INDEX( __CHANNEL__) \
 179:Drivers/STM32F7xx_HAL_Driver/Inc/stm32f7xx_ll_tim.h **** (((__CHANNEL__) == LL_TIM_CHANNEL_CH1) ? 0U :\
 180:Drivers/STM32F7xx_HAL_Driver/Inc/stm32f7xx_ll_tim.h **** ((__CHANNEL__) == LL_TIM_CHANNEL_CH1N) ? 1U :\
 181:Drivers/STM32F7xx_HAL_Driver/Inc/stm32f7xx_ll_tim.h **** ((__CHANNEL__) == LL_TIM_CHANNEL_CH2) ? 2U :\
 182:Drivers/STM32F7xx_HAL_Driver/Inc/stm32f7xx_ll_tim.h **** ((__CHANNEL__) == LL_TIM_CHANNEL_CH2N) ? 3U :\
